
AC800-DTM-HS-RC3.elf:     file format elf32-avr

Sections:
Idx Name          Size      VMA       LMA       File off  Algn
  0 .data         000000e0  00800100  000065ec  00006680  2**0
                  CONTENTS, ALLOC, LOAD, DATA
  1 .text         000065ec  00000000  00000000  00000094  2**1
                  CONTENTS, ALLOC, LOAD, READONLY, CODE
  2 .bss          00000633  008001e0  008001e0  00006760  2**0
                  ALLOC
  3 .comment      0000005b  00000000  00000000  00006760  2**0
                  CONTENTS, READONLY
  4 .note.gnu.avr.deviceinfo 00000040  00000000  00000000  000067bc  2**2
                  CONTENTS, READONLY, OCTETS
  5 .avr.prop     0000002c  00000000  00000000  000067fc  2**0
                  CONTENTS, READONLY
  6 .debug_aranges 00000140  00000000  00000000  00006828  2**0
                  CONTENTS, READONLY, DEBUGGING, OCTETS
  7 .debug_info   0000a3d7  00000000  00000000  00006968  2**0
                  CONTENTS, READONLY, DEBUGGING, OCTETS
  8 .debug_abbrev 00001d23  00000000  00000000  00010d3f  2**0
                  CONTENTS, READONLY, DEBUGGING, OCTETS
  9 .debug_line   00004ded  00000000  00000000  00012a62  2**0
                  CONTENTS, READONLY, DEBUGGING, OCTETS
 10 .debug_frame  00000d28  00000000  00000000  00017850  2**2
                  CONTENTS, READONLY, DEBUGGING, OCTETS
 11 .debug_str    00004d58  00000000  00000000  00018578  2**0
                  CONTENTS, READONLY, DEBUGGING, OCTETS
 12 .debug_loc    0000578b  00000000  00000000  0001d2d0  2**0
                  CONTENTS, READONLY, DEBUGGING, OCTETS
 13 .debug_ranges 00000610  00000000  00000000  00022a5b  2**0
                  CONTENTS, READONLY, DEBUGGING, OCTETS

Disassembly of section .text:

00000000 <__vectors>:
       0:	0c 94 11 03 	jmp	0x622	; 0x622 <__ctors_end>
       4:	0c 94 30 03 	jmp	0x660	; 0x660 <__bad_interrupt>
       8:	0c 94 30 03 	jmp	0x660	; 0x660 <__bad_interrupt>
       c:	0c 94 30 03 	jmp	0x660	; 0x660 <__bad_interrupt>
      10:	0c 94 30 03 	jmp	0x660	; 0x660 <__bad_interrupt>
      14:	0c 94 30 03 	jmp	0x660	; 0x660 <__bad_interrupt>
      18:	0c 94 30 03 	jmp	0x660	; 0x660 <__bad_interrupt>
      1c:	0c 94 30 03 	jmp	0x660	; 0x660 <__bad_interrupt>
      20:	0c 94 30 03 	jmp	0x660	; 0x660 <__bad_interrupt>
      24:	0c 94 30 03 	jmp	0x660	; 0x660 <__bad_interrupt>
      28:	0c 94 30 03 	jmp	0x660	; 0x660 <__bad_interrupt>
      2c:	0c 94 30 03 	jmp	0x660	; 0x660 <__bad_interrupt>
      30:	0c 94 30 03 	jmp	0x660	; 0x660 <__bad_interrupt>
      34:	0c 94 30 03 	jmp	0x660	; 0x660 <__bad_interrupt>
      38:	0c 94 30 03 	jmp	0x660	; 0x660 <__bad_interrupt>
      3c:	0c 94 30 03 	jmp	0x660	; 0x660 <__bad_interrupt>
      40:	0c 94 ff 03 	jmp	0x7fe	; 0x7fe <__vector_16>
      44:	0c 94 30 03 	jmp	0x660	; 0x660 <__bad_interrupt>
      48:	0c 94 30 03 	jmp	0x660	; 0x660 <__bad_interrupt>
      4c:	0c 94 30 03 	jmp	0x660	; 0x660 <__bad_interrupt>
      50:	0c 94 a6 1e 	jmp	0x3d4c	; 0x3d4c <__vector_20>
      54:	0c 94 30 03 	jmp	0x660	; 0x660 <__bad_interrupt>
      58:	0c 94 62 1e 	jmp	0x3cc4	; 0x3cc4 <__vector_22>
      5c:	0c 94 30 03 	jmp	0x660	; 0x660 <__bad_interrupt>
      60:	0c 94 30 03 	jmp	0x660	; 0x660 <__bad_interrupt>
      64:	0c 94 30 03 	jmp	0x660	; 0x660 <__bad_interrupt>
      68:	0c 94 30 03 	jmp	0x660	; 0x660 <__bad_interrupt>
      6c:	0c 94 30 03 	jmp	0x660	; 0x660 <__bad_interrupt>
      70:	0c 94 30 03 	jmp	0x660	; 0x660 <__bad_interrupt>
      74:	0c 94 30 03 	jmp	0x660	; 0x660 <__bad_interrupt>
      78:	0c 94 30 03 	jmp	0x660	; 0x660 <__bad_interrupt>
      7c:	0c 94 30 03 	jmp	0x660	; 0x660 <__bad_interrupt>
      80:	0c 94 30 03 	jmp	0x660	; 0x660 <__bad_interrupt>
      84:	0c 94 30 03 	jmp	0x660	; 0x660 <__bad_interrupt>
      88:	0c 94 30 03 	jmp	0x660	; 0x660 <__bad_interrupt>

0000008c <__c.3699>:
      8c:	42 72 61 6b 20 77 6f 6c 6e 79 63 68 20 70 6f 7a     Brak wolnych poz
      9c:	79 63 6a 69 20 53 75 70 65 72 20 55 73 65 72 20     ycji Super User 
      ac:	28 37 39 35 2d 38 30 30 29 00                       (795-800).

000000b6 <__c.3691>:
      b6:	4e 75 6d 65 72 20 6a 75 7a 20 69 73 74 6e 69 65     Numer juz istnie
      c6:	6a 65 20 77 20 73 79 73 74 65 6d 69 65 00           je w systemie.

000000d4 <tab_eeprom_fabryczny.3640>:
      d4:	ff 41 42 43 44 00                                   .ABCD.

000000da <nastepna_komenda.3469>:
      da:	00 00 a2 a3 a4 a6 a7 a8 a9 94                       ..........

000000e4 <instrukcje.3468>:
      e4:	2b 63 70 69 6e 3f 00 00 00 00 00 00 00 00 2b 63     +cpin?........+c
      f4:	6e 6d 69 3d 32 2c 31 2c 32 2c 31 00 2b 6d 6f 72     nmi=2,1,2,1.+mor
     104:	69 6e 67 3d 31 00 00 00 00 00 2b 63 6c 69 70 3d     ing=1.....+clip=
     114:	31 00 00 00 00 00 00 00 2b 64 64 65 74 3d 31 2c     1.......+ddet=1,
     124:	31 30 2c 31 00 00 2b 63 61 6c 6d 3d 31 00 00 00     10,1..+calm=1...
     134:	00 00 00 00 2b 63 72 73 6c 3d 31 00 00 00 00 00     ....+crsl=1.....
     144:	00 00 2b 63 75 73 64 3d 31 00 00 00 00 00 00 00     ..+cusd=1.......
     154:	2b 63 70 62 77 3d 32 36 2c 22 31 22 00 00 2b 63     +cpbw=26,"1"..+c
     164:	6c 74 73 3d 30 00 00 00 00 00 00 00                 lts=0.......

00000170 <instrukcja.3454>:
     170:	2b 63 6d 69 63 3d 30 2c 31 35 00                    +cmic=0,15.

0000017b <instrukcja_usun_wszystkie_smsy.3451>:
     17b:	2b 63 6d 67 64 61 3d 36 00                          +cmgda=6.

00000184 <instrukcja_podaj_pin.3448>:
     184:	2b 63 70 69 6e 3d 22 31 39 37 36 22 00              +cpin="1976".

00000191 <instrukcja_at.3445>:
     191:	2b 69 66 63 3d 32 2c 32 00                          +ifc=2,2.

0000019a <instrukcja_ustawienie_pamieci.3442>:
     19a:	2b 63 70 6d 73 3d 22 53 4d 22 2c 22 53 4d 22 2c     +cpms="SM","SM",
     1aa:	22 53 4d 22 00                                      "SM".

000001af <instrukcja_ustawienie_pamieci.3440>:
     1af:	2b 63 64 73 63 62 00                                +cdscb.

000001b6 <instrukcja_cclk.3438>:
     1b6:	2b 63 63 6c 6b 3f 00                                +cclk?.

000001bd <instrukcja_sprawdz_operatora.3436>:
     1bd:	2b 63 6f 70 73 3f 00                                +cops?.

000001c4 <instrukcja_odczyt_ksiazki.3434>:
     1c4:	2b 63 70 62 72 3d 32 36 00                          +cpbr=26.

000001cd <instrukcja_creg.3432>:
     1cd:	2b 63 72 65 67 3f 00                                +creg?.

000001d4 <instrukcja_poziom_sieci.3430>:
     1d4:	2b 63 73 71 00                                      +csq.

000001d9 <instrukcja_vts.3426>:
     1d9:	2b 76 74 73 3d 31 00                                +vts=1.

000001e0 <instrukcja_odbierz_rozmowe.3424>:
     1e0:	61 00                                               a.

000001e2 <instrukcja_odrzuc_rozmowe.3422>:
     1e2:	68 00                                               h.

000001e4 <__c.3419>:
     1e4:	2b 43 4d 54 49 3a 00                                +CMTI:.

000001eb <instrukcja_usun_smsa.3415>:
     1eb:	2b 63 6d 67 64 3d 00                                +cmgd=.

000001f2 <instrukcja_odczytaj_smsa.3382>:
     1f2:	2b 63 6d 67 72 3d 00                                +cmgr=.

000001f9 <instrukcja_wyslij_smsa.3350>:
     1f9:	2b 63 6d 67 73 3d 00                                +cmgs=.

00000200 <__c.3330>:
     200:	2b 43 4d 54 49 3a 00                                +CMTI:.

00000207 <__c.3323>:
     207:	2b 44 54 4d 46 3a 00                                +DTMF:.

0000020e <__c.3318>:
     20e:	2b 43 4c 49 50 3a 00                                +CLIP:.

00000215 <__c.3305>:
     215:	3e 00                                               >.

00000217 <__c.3276>:
     217:	2b 43 4d 47 52 3a 00                                +CMGR:.

0000021e <polecenie_operator.3247>:
     21e:	2b 43 4f 50 53 3a 00                                +COPS:.

00000225 <urc.3242>:
     225:	2b 43 52 45 47 3a 00                                +CREG:.

0000022c <urc.3239>:
     22c:	2b 43 53 51 3a 00                                   +CSQ:.

00000232 <polecenie_pin_ready.3232>:
     232:	2b 43 50 49 4e 3a 20 52 45 41 44 59 00              +CPIN: READY.

0000023f <polecenie_zegar.3221>:
     23f:	2b 43 43 4c 4b 3a 00                                +CCLK:.

00000246 <__c.3146>:
     246:	31 3d 52 43 56 20 32 3d 42 53 59 20 33 3d 43 4e     1=RCV 2=BSY 3=CN
     256:	54 20 34 3d 51 53 4d 20 35 3d 51 41 4c 20 36 3d     T 4=QSM 5=QAL 6=
     266:	46 4e 44 20 37 3d 41 44 44 00                       FND 7=ADD.

00000270 <__c.3144>:
     270:	20 55 37 3d 00                                       U7=.

00000275 <__c.3142>:
     275:	20 55 36 3d 00                                       U6=.

0000027a <__c.3140>:
     27a:	20 55 35 3d 00                                       U5=.

0000027f <__c.3138>:
     27f:	55 34 3d 00                                         U4=.

00000283 <__c.3136>:
     283:	20 55 33 3d 00                                       U3=.

00000288 <__c.3134>:
     288:	20 55 32 3d 00                                       U2=.

0000028d <__c.3132>:
     28d:	55 31 3d 00                                         U1=.

00000291 <__c.3130>:
     291:	53 4b 52 59 42 41 3a 00                             SKRYBA:.

00000299 <__c.3127>:
     299:	44 45 42 55 47 0a 00                                DEBUG..

000002a0 <tekst_demo.3053>:
     2a0:	77 77 77 2e 73 6f 6e 66 79 2e 70 6c 00              www.sonfy.pl.

000002ad <__c.3051>:
     2ad:	53 6b 72 79 62 61 3a 20 57 79 6c 61 63 7a 6f 6e     Skryba: Wylaczon
     2bd:	61 00                                               a.

000002bf <__c.3049>:
     2bf:	53 6b 72 79 62 61 3a 20 57 6c 61 63 7a 6f 6e 61     Skryba: Wlaczona
	...

000002d0 <__c.3047>:
     2d0:	48 61 72 6d 6f 6e 6f 67 72 61 6d 3a 20 57 79 6c     Harmonogram: Wyl
     2e0:	61 63 7a 6f 6e 79 00                                aczony.

000002e7 <__c.3045>:
     2e7:	20 44 54 4d 46 00                                    DTMF.

000002ed <__c.3043>:
     2ed:	20 43 4c 49 50 00                                    CLIP.

000002f3 <__c.3041>:
     2f3:	54 72 79 62 3a 20 50 75 62 6c 69 63 7a 6e 79 00     Tryb: Publiczny.

00000303 <__c.3039>:
     303:	54 72 79 62 3a 20 50 72 79 77 61 74 6e 79 00        Tryb: Prywatny.

00000312 <__c.3037>:
     312:	53 74 61 74 75 73 3a 20 41 6b 74 79 77 6e 79 00     Status: Aktywny.

00000322 <__c.3035>:
     322:	53 74 61 74 75 73 3a 20 5a 61 62 6c 6f 6b 6f 77     Status: Zablokow
     332:	61 6e 79 00                                         any.

00000336 <tekst_gsm.3021>:
     336:	55 7a 79 74 6b 6f 77 6e 69 63 79 20 00              Uzytkownicy .

00000343 <tekst_gsm.3010>:
     343:	55 7a 79 74 6b 6f 77 6e 69 63 79 20 00              Uzytkownicy .

00000350 <text_sygnal.3006>:
     350:	53 79 67 6e 61 6c 20 47 53 4d 20 00                 Sygnal GSM .

0000035c <__c.3004>:
     35c:	43 7a 61 73 3a 20 00                                Czas: .

00000363 <tekst_gsm.3002>:
     363:	41 43 38 30 30 2d 44 54 4d 2d 54 53 00              AC800-DTM-TS.

00000370 <polecenie_CUSD.2098>:
     370:	2b 43 55 53 44 3a 00                                +CUSD:.

00000377 <polecenie_CMSERROR.2097>:
     377:	2b 43 4d 53 20 45 52 52 4f 52 3a 00                 +CMS ERROR:.

00000383 <polecenie_CMEERROR.2096>:
     383:	2b 43 4d 45 20 45 52 52 4f 52 3a 00                 +CME ERROR:.

0000038f <polecenie_BUSY.2095>:
     38f:	42 55 53 59 00                                      BUSY.

00000394 <polecenie_NO_DIALTONE.2094>:
     394:	4e 4f 20 44 49 41 4c 54 4f 4e 45 00                 NO DIALTONE.

000003a0 <polecenie_NO_CARRIER.2093>:
     3a0:	4e 4f 20 43 41 52 52 49 45 52 00                    NO CARRIER.

000003ab <polecenie_CMTI.2092>:
     3ab:	2b 43 4d 54 49 3a 00                                +CMTI:.

000003b2 <polecenie_DTMF.2091>:
     3b2:	2b 44 54 4d 46 3a 00                                +DTMF:.

000003b9 <polecenie_CLIP.2090>:
     3b9:	2b 43 4c 49 50 3a 00                                +CLIP:.

000003c0 <polecenie_MO_CONNECTED.2089>:
     3c0:	4d 4f 20 43 4f 4e 4e 45 43 54 45 44 00              MO CONNECTED.

000003cd <polecenie_MO_RING.2088>:
     3cd:	4d 4f 20 52 49 4e 47 00                             MO RING.

000003d5 <polecenie_ERROR.2087>:
     3d5:	45 52 52 4f 52 00                                   ERROR.

000003db <polecenie_CMGS.2086>:
     3db:	2b 43 4d 47 53 3a 00                                +CMGS:.

000003e2 <__c.2814>:
     3e2:	4f 46 46 00                                         OFF.

000003e6 <__c.2802>:
     3e6:	4f 4e 00                                            ON.

000003e9 <__c.2792>:
     3e9:	4f 46 46 00                                         OFF.

000003ed <__c.2778>:
     3ed:	54 69 6d 65 3a 20 00                                Time: .

000003f4 <res_ust.2651>:
     3f4:	43 33 44 34 00                                      C3D4.

000003f9 <instrukcja_sms>:
     3f9:	04 43 4f 44 45 00 00 00 03 41 44 44 00 00 00 00     .CODE....ADD....
     409:	03 44 45 4c 00 00 00 00 04 58 58 58 58 00 00 00     .DEL.....XXXX...
     419:	06 52 45 50 4f 52 54 00 04 55 53 45 52 00 00 00     .REPORT..USER...
     429:	04 4f 50 45 4e 00 00 00 05 43 4c 4f 53 45 00 00     .OPEN....CLOSE..
     439:	04 43 4c 49 50 00 00 00 04 44 54 4d 46 00 00 00     .CLIP....DTMF...
     449:	03 53 45 54 00 00 00 00 04 54 49 4d 45 00 00 00     .SET.....TIME...
     459:	06 53 4b 52 59 42 41 00 05 44 45 42 55 47 00 00     .SKRYBA..DEBUG..
     469:	05 53 54 41 52 54 00 00 04 53 54 4f 50 00 00 00     .START...STOP...
     479:	03 53 55 42 00 00 00 00                             .SUB....

00000481 <znaki.2124>:
     481:	30 31 32 33 34 35 36 37 38 39 2b 2a 23 21 21 00     0123456789+*#!!.

00000491 <znak_wartosc_heksadecymalna.2043>:
     491:	30 31 32 33 34 35 36 37 38 39 41 42 43 44 45 46     0123456789ABCDEF
	...

000004a2 <GSM_Default_DeAlphabet>:
     4a2:	3f 3f 3f 3f 3f 3f 3f 3f 3f 3f 0a 3f 3f 0d 3f 3f     ??????????.??.??
     4b2:	3f 3f 3f 3f 3f 3f 3f 3f 3f 3f 3f 3f 3f 3f 3f 3f     ????????????????
     4c2:	20 21 22 23 02 25 26 27 28 29 2a 2b 2c 2d 2e 2f      !"#.%&'()*+,-./
     4d2:	30 31 32 33 34 35 36 37 38 39 3a 3b 3c 3d 3e 3f     0123456789:;<=>?
     4e2:	00 41 42 43 44 45 46 47 48 49 4a 4b 4c 4d 4e 4f     .ABCDEFGHIJKLMNO
     4f2:	50 51 52 53 54 55 56 57 58 59 5a 3f 3f 3f 3f 11     PQRSTUVWXYZ????.
     502:	3f 61 62 63 64 65 66 67 68 69 6a 6b 6c 6d 6e 6f     ?abcdefghijklmno
     512:	70 71 72 73 74 75 76 77 78 79 7a 3f 3f 3f 3f 3f     pqrstuvwxyz?????
     522:	3f 3f 3f 3f 3f 3f 3f 3f 3f 3f 3f 3f 3f 3f 3f 3f     ????????????????
     532:	3f 3f 3f 3f 3f 3f 3f 3f 3f 3f 3f 3f 3f 3f 3f 3f     ????????????????
     542:	3f 40 3f 01 24 03 3f 5f 3f 3f 3f 3f 3f 3f 3f 3f     ?@?.$.?_????????
     552:	3f 3f 3f 3f 3f 3f 3f 3f 3f 3f 3f 3f 3f 3f 3f 60     ???????????????`
     562:	3f 3f 3f 3f 5b 0e 1c 09 3f 1f 3f 3f 3f 3f 3f 3f     ????[...?.??????
     572:	3f 5d 3f 3f 3f 3f 5c 3f 0b 3f 3f 3f 5e 3f 3f 1e     ?]????\?.???^??.
     582:	7f 3f 3f 3f 7b 0f 1d 3f 04 05 3f 3f 07 3f 3f 3f     .???{..?..??.???
     592:	3f 7d 08 3f 3f 3f 7c 3f 0c 06 3f 3f 7e 3f 3f 3f     ?}.???|?..??~???

000005a2 <GSM_Default_Alphabet>:
     5a2:	40 a3 24 a5 e8 e9 f9 ec f2 c7 0a d8 f8 0d c5 e5     @.$.............
     5b2:	3f 5f 3f 3f 3f 3f 3f 3f 3f 3f 3f 3f c6 e6 df c9     ?_??????????....
     5c2:	20 21 22 23 a4 25 26 27 28 29 2a 2b 2c 2d 2e 2f      !"#.%&'()*+,-./
     5d2:	30 31 32 33 34 35 36 37 38 39 3a 3b 3c 3d 3e 3f     0123456789:;<=>?
     5e2:	a1 41 42 43 44 45 46 47 48 49 4a 4b 4c 4d 4e 4f     .ABCDEFGHIJKLMNO
     5f2:	50 51 52 53 54 55 56 57 58 59 5a c4 d6 d1 dc a7     PQRSTUVWXYZ.....
     602:	bf 61 62 63 64 65 66 67 68 69 6a 6b 6c 6d 6e 6f     .abcdefghijklmno
     612:	70 71 72 73 74 75 76 77 78 79 7a e4 f6 f1 fc e0     pqrstuvwxyz.....

00000622 <__ctors_end>:
     622:	11 24       	eor	r1, r1
     624:	1f be       	out	0x3f, r1	; 63
     626:	cf ef       	ldi	r28, 0xFF	; 255
     628:	d0 e4       	ldi	r29, 0x40	; 64
     62a:	de bf       	out	0x3e, r29	; 62
     62c:	cd bf       	out	0x3d, r28	; 61

0000062e <__do_copy_data>:
     62e:	11 e0       	ldi	r17, 0x01	; 1
     630:	a0 e0       	ldi	r26, 0x00	; 0
     632:	b1 e0       	ldi	r27, 0x01	; 1
     634:	ec ee       	ldi	r30, 0xEC	; 236
     636:	f5 e6       	ldi	r31, 0x65	; 101
     638:	00 e0       	ldi	r16, 0x00	; 0
     63a:	0b bf       	out	0x3b, r16	; 59
     63c:	02 c0       	rjmp	.+4      	; 0x642 <__do_copy_data+0x14>
     63e:	07 90       	elpm	r0, Z+
     640:	0d 92       	st	X+, r0
     642:	a0 3e       	cpi	r26, 0xE0	; 224
     644:	b1 07       	cpc	r27, r17
     646:	d9 f7       	brne	.-10     	; 0x63e <__do_copy_data+0x10>

00000648 <__do_clear_bss>:
     648:	28 e0       	ldi	r18, 0x08	; 8
     64a:	a0 ee       	ldi	r26, 0xE0	; 224
     64c:	b1 e0       	ldi	r27, 0x01	; 1
     64e:	01 c0       	rjmp	.+2      	; 0x652 <.do_clear_bss_start>

00000650 <.do_clear_bss_loop>:
     650:	1d 92       	st	X+, r1

00000652 <.do_clear_bss_start>:
     652:	a3 31       	cpi	r26, 0x13	; 19
     654:	b2 07       	cpc	r27, r18
     656:	e1 f7       	brne	.-8      	; 0x650 <.do_clear_bss_loop>
     658:	0e 94 1c 2c 	call	0x5838	; 0x5838 <main>
     65c:	0c 94 f4 32 	jmp	0x65e8	; 0x65e8 <_exit>

00000660 <__bad_interrupt>:
     660:	0c 94 00 00 	jmp	0	; 0x0 <__vectors>

00000664 <watchdog_sms_disarm>:
  watchdog_sms_aktywny = TRUE;
  watchdog_sms_licznik_100ms = 0;
}

static inline void watchdog_sms_disarm(void) {
  watchdog_sms_aktywny = FALSE;
     664:	10 92 fe 01 	sts	0x01FE, r1	; 0x8001fe <watchdog_sms_aktywny>
  watchdog_sms_licznik_100ms = 0;
     668:	10 92 fd 01 	sts	0x01FD, r1	; 0x8001fd <watchdog_sms_licznik_100ms+0x1>
     66c:	10 92 fc 01 	sts	0x01FC, r1	; 0x8001fc <watchdog_sms_licznik_100ms>
}
     670:	08 95       	ret

00000672 <czy_numer_istnieje>:
  }
}

// Helper function to check if a number exists in EEPROM
// Uses bufor_eeprom as temporary storage for comparison
static uchar czy_numer_istnieje(const uchar *numer_telefonu) {
     672:	cf 93       	push	r28
     674:	df 93       	push	r29
  // We use a local buffer to avoid corrupting global buffers if possible,
  // but porownaj_numer_telefonu_blok expects a block.
  // Let's use bufor_eeprom as it is standard for this operation in this
  // codebase.
  konwertuj_telefon_na_blok_eeprom(
      numer_telefonu, numer_telefonu + strlen((char *)numer_telefonu),
     676:	fc 01       	movw	r30, r24
     678:	01 90       	ld	r0, Z+
     67a:	00 20       	and	r0, r0
     67c:	e9 f7       	brne	.-6      	; 0x678 <czy_numer_istnieje+0x6>
     67e:	bf 01       	movw	r22, r30
  konwertuj_telefon_na_blok_eeprom(
     680:	61 50       	subi	r22, 0x01	; 1
     682:	71 09       	sbc	r23, r1
     684:	4d ed       	ldi	r20, 0xDD	; 221
     686:	57 e0       	ldi	r21, 0x07	; 7
     688:	0e 94 bf 27 	call	0x4f7e	; 0x4f7e <konwertuj_telefon_na_blok_eeprom>
     68c:	c8 e0       	ldi	r28, 0x08	; 8
     68e:	d0 e0       	ldi	r29, 0x00	; 0
      bufor_eeprom);

  for (uint nr_uzyt_clip = 0; nr_uzyt_clip < MAX_LICZBA_NUMEROW_TELEFONOW_BRAMA;
       ++nr_uzyt_clip) {
    if (porownaj_numer_telefonu_blok(
     690:	be 01       	movw	r22, r28
     692:	8d ed       	ldi	r24, 0xDD	; 221
     694:	97 e0       	ldi	r25, 0x07	; 7
     696:	0e 94 94 28 	call	0x5128	; 0x5128 <porownaj_numer_telefonu_blok>
     69a:	81 11       	cpse	r24, r1
     69c:	08 c0       	rjmp	.+16     	; 0x6ae <czy_numer_istnieje+0x3c>
     69e:	25 96       	adiw	r28, 0x05	; 5
  for (uint nr_uzyt_clip = 0; nr_uzyt_clip < MAX_LICZBA_NUMEROW_TELEFONOW_BRAMA;
     6a0:	c8 3a       	cpi	r28, 0xA8	; 168
     6a2:	ff e0       	ldi	r31, 0x0F	; 15
     6a4:	df 07       	cpc	r29, r31
     6a6:	a1 f7       	brne	.-24     	; 0x690 <czy_numer_istnieje+0x1e>
            bufor_eeprom, (void *)EEPROM_NUMER_TELEFONU_BRAMA(nr_uzyt_clip))) {
      return TRUE;
    }
  }
  return FALSE;
}
     6a8:	df 91       	pop	r29
     6aa:	cf 91       	pop	r28
     6ac:	08 95       	ret
      return TRUE;
     6ae:	8f ef       	ldi	r24, 0xFF	; 255
     6b0:	fb cf       	rjmp	.-10     	; 0x6a8 <czy_numer_istnieje+0x36>

000006b2 <usun_zablokowany_sms>:
  if (aktualnie_wysylane_polecenie_SIM900 >= KOMENDA_KOLEJKI_ODCZYTAJ_SMSA_1 &&
     6b2:	80 91 16 02 	lds	r24, 0x0216	; 0x800216 <aktualnie_wysylane_polecenie_SIM900>
     6b6:	96 e5       	ldi	r25, 0x56	; 86
     6b8:	98 0f       	add	r25, r24
    filtruj_i_dodaj_komende(KOMENDA_KOLEJKI_USUN_SMSA_1 + nr_smsa);
     6ba:	8c 5e       	subi	r24, 0xEC	; 236
  if (aktualnie_wysylane_polecenie_SIM900 >= KOMENDA_KOLEJKI_ODCZYTAJ_SMSA_1 &&
     6bc:	94 31       	cpi	r25, 0x14	; 20
     6be:	08 f0       	brcs	.+2      	; 0x6c2 <usun_zablokowany_sms+0x10>
    filtruj_i_dodaj_komende(KOMENDA_KOLEJKI_USUN_WSZYSTKIE_SMSY);
     6c0:	82 e9       	ldi	r24, 0x92	; 146
     6c2:	0c 94 66 27 	jmp	0x4ecc	; 0x4ecc <filtruj_i_dodaj_komende>

000006c6 <zareaguj_na_usuniety_sms_z_powodu_limitu>:
  if (licznik_usunietych_sms_przez_limit < 0xFFFF)
     6c6:	80 91 2e 02 	lds	r24, 0x022E	; 0x80022e <licznik_usunietych_sms_przez_limit>
     6ca:	90 91 2f 02 	lds	r25, 0x022F	; 0x80022f <licznik_usunietych_sms_przez_limit+0x1>
     6ce:	8f 3f       	cpi	r24, 0xFF	; 255
     6d0:	98 07       	cpc	r25, r24
     6d2:	29 f0       	breq	.+10     	; 0x6de <zareaguj_na_usuniety_sms_z_powodu_limitu+0x18>
    ++licznik_usunietych_sms_przez_limit;
     6d4:	01 96       	adiw	r24, 0x01	; 1
     6d6:	90 93 2f 02 	sts	0x022F, r25	; 0x80022f <licznik_usunietych_sms_przez_limit+0x1>
     6da:	80 93 2e 02 	sts	0x022E, r24	; 0x80022e <licznik_usunietych_sms_przez_limit>
  zapal_diode_led_blyski(10);
     6de:	8a e0       	ldi	r24, 0x0A	; 10
     6e0:	80 93 ed 01 	sts	0x01ED, r24	; 0x8001ed <liczba_blyskow_led>
     6e4:	10 92 ec 01 	sts	0x01EC, r1	; 0x8001ec <stan_cyklu_blysku>
  watchdog_sms_disarm();
     6e8:	0e 94 32 03 	call	0x664	; 0x664 <watchdog_sms_disarm>
  filtruj_i_dodaj_komende(KOMENDA_KOLEJKI_USUN_WSZYSTKIE_SMSY);
     6ec:	82 e9       	ldi	r24, 0x92	; 146
     6ee:	0c 94 66 27 	jmp	0x4ecc	; 0x4ecc <filtruj_i_dodaj_komende>

000006f2 <polozenie_polecenia_SIM900>:
static uchar czy_polecenie_SIM900(PGM_P polecenie, const uchar liczba_znakow) {
  return strncmp_P(odebrany_blok_SIM900 + 2, polecenie, liczba_znakow) == 0;
}

static uchar *polozenie_polecenia_SIM900(PGM_P polecenie) {
  return strstr_P(odebrany_blok_SIM900, polecenie);
     6f2:	bc 01       	movw	r22, r24
     6f4:	87 eb       	ldi	r24, 0xB7	; 183
     6f6:	93 e0       	ldi	r25, 0x03	; 3
     6f8:	0c 94 16 2f 	jmp	0x5e2c	; 0x5e2c <strstr_P>

000006fc <opoznienie_startowe>:
	#else
		//round up by default
		__ticks_dc = (uint32_t)(ceil(fabs(__tmp)));
	#endif

	__builtin_avr_delay_cycles(__ticks_dc);
     6fc:	8f ef       	ldi	r24, 0xFF	; 255
     6fe:	9f e8       	ldi	r25, 0x8F	; 143
     700:	01 97       	sbiw	r24, 0x01	; 1
     702:	f1 f7       	brne	.-4      	; 0x700 <opoznienie_startowe+0x4>
     704:	00 c0       	rjmp	.+0      	; 0x706 <opoznienie_startowe+0xa>
     706:	00 00       	nop
     708:	8f ef       	ldi	r24, 0xFF	; 255
     70a:	9f e8       	ldi	r25, 0x8F	; 143
     70c:	01 97       	sbiw	r24, 0x01	; 1
     70e:	f1 f7       	brne	.-4      	; 0x70c <opoznienie_startowe+0x10>
     710:	00 c0       	rjmp	.+0      	; 0x712 <opoznienie_startowe+0x16>
     712:	00 00       	nop
     714:	8f ef       	ldi	r24, 0xFF	; 255
     716:	9f e8       	ldi	r25, 0x8F	; 143
     718:	01 97       	sbiw	r24, 0x01	; 1
     71a:	f1 f7       	brne	.-4      	; 0x718 <opoznienie_startowe+0x1c>
     71c:	00 c0       	rjmp	.+0      	; 0x71e <opoznienie_startowe+0x22>
     71e:	00 00       	nop
     720:	8f ef       	ldi	r24, 0xFF	; 255
     722:	9f e8       	ldi	r25, 0x8F	; 143
     724:	01 97       	sbiw	r24, 0x01	; 1
     726:	f1 f7       	brne	.-4      	; 0x724 <opoznienie_startowe+0x28>
     728:	00 c0       	rjmp	.+0      	; 0x72a <opoznienie_startowe+0x2e>
     72a:	00 00       	nop
     72c:	8f ef       	ldi	r24, 0xFF	; 255
     72e:	9f e8       	ldi	r25, 0x8F	; 143
     730:	01 97       	sbiw	r24, 0x01	; 1
     732:	f1 f7       	brne	.-4      	; 0x730 <opoznienie_startowe+0x34>
     734:	00 c0       	rjmp	.+0      	; 0x736 <opoznienie_startowe+0x3a>
     736:	00 00       	nop
}

static void opoznienie_startowe(void) {
  for (uchar i = 0; i < 5; ++i)
    _delay_ms(20);
  wdt_reset();
     738:	a8 95       	wdr
}
     73a:	08 95       	ret

0000073c <zapisz_debug_do_eeprom>:
static void zapisz_debug_do_eeprom(uchar komenda, uchar akcja) {
     73c:	cf 93       	push	r28
     73e:	df 93       	push	r29
     740:	cd b7       	in	r28, 0x3d	; 61
     742:	de b7       	in	r29, 0x3e	; 62
     744:	28 97       	sbiw	r28, 0x08	; 8
     746:	0f b6       	in	r0, 0x3f	; 63
     748:	f8 94       	cli
     74a:	de bf       	out	0x3e, r29	; 62
     74c:	0f be       	out	0x3f, r0	; 63
     74e:	cd bf       	out	0x3d, r28	; 61
  if (!czy_wolny_eeprom())
     750:	90 91 db 07 	lds	r25, 0x07DB	; 0x8007db <bufor_pomoc_liczba_znakow_do_zapisu>
     754:	91 11       	cpse	r25, r1
     756:	2b c0       	rjmp	.+86     	; 0x7ae <zapisz_debug_do_eeprom+0x72>
     758:	90 91 41 02 	lds	r25, 0x0241	; 0x800241 <liczba_znakow_do_zapisu>
     75c:	91 11       	cpse	r25, r1
     75e:	27 c0       	rjmp	.+78     	; 0x7ae <zapisz_debug_do_eeprom+0x72>
     760:	90 91 dc 07 	lds	r25, 0x07DC	; 0x8007dc <czy_zajety_bufor_eeprom>
     764:	91 11       	cpse	r25, r1
     766:	23 c0       	rjmp	.+70     	; 0x7ae <zapisz_debug_do_eeprom+0x72>
     768:	f9 99       	sbic	0x1f, 1	; 31
     76a:	21 c0       	rjmp	.+66     	; 0x7ae <zapisz_debug_do_eeprom+0x72>
  buf[0] = licznik_report_user;
     76c:	20 91 35 02 	lds	r18, 0x0235	; 0x800235 <licznik_report_user>
     770:	29 83       	std	Y+1, r18	; 0x01
  buf[1] = (uchar)(timer_report_user_100ms & 0xFF);
     772:	30 91 33 02 	lds	r19, 0x0233	; 0x800233 <timer_report_user_100ms>
     776:	20 91 34 02 	lds	r18, 0x0234	; 0x800234 <timer_report_user_100ms+0x1>
     77a:	3a 83       	std	Y+2, r19	; 0x02
  buf[2] = (uchar)((timer_report_user_100ms >> 8) & 0xFF);
     77c:	2b 83       	std	Y+3, r18	; 0x03
  buf[3] = (uchar)flaga_wysylanie_smsa;
     77e:	20 91 0d 02 	lds	r18, 0x020D	; 0x80020d <flaga_wysylanie_smsa>
     782:	2c 83       	std	Y+4, r18	; 0x04
     784:	eb e9       	ldi	r30, 0x9B	; 155
     786:	f7 e0       	ldi	r31, 0x07	; 7
    if (komendy_kolejka[i] >= KOMENDA_KOLEJKI_WYSLIJ_SMSA_TEXT &&
     788:	21 91       	ld	r18, Z+
     78a:	23 5d       	subi	r18, 0xD3	; 211
     78c:	22 30       	cpi	r18, 0x02	; 2
     78e:	08 f4       	brcc	.+2      	; 0x792 <zapisz_debug_do_eeprom+0x56>
      ++liczba_sms_w_kolejce;
     790:	9f 5f       	subi	r25, 0xFF	; 255
  for (uchar i = 0; i < LICZBA_KOMEND; ++i) {
     792:	27 e0       	ldi	r18, 0x07	; 7
     794:	e9 3b       	cpi	r30, 0xB9	; 185
     796:	f2 07       	cpc	r31, r18
     798:	b9 f7       	brne	.-18     	; 0x788 <zapisz_debug_do_eeprom+0x4c>
  buf[4] = liczba_sms_w_kolejce;
     79a:	9d 83       	std	Y+5, r25	; 0x05
  buf[5] = komenda;
     79c:	8e 83       	std	Y+6, r24	; 0x06
  buf[6] = akcja;
     79e:	6f 83       	std	Y+7, r22	; 0x07
  zapisz_znaki_w_eeprom(buf, EEPROM_DEBUG_START, 7);
     7a0:	47 e0       	ldi	r20, 0x07	; 7
     7a2:	62 ed       	ldi	r22, 0xD2	; 210
     7a4:	7f e0       	ldi	r23, 0x0F	; 15
     7a6:	ce 01       	movw	r24, r28
     7a8:	01 96       	adiw	r24, 0x01	; 1
     7aa:	0e 94 66 29 	call	0x52cc	; 0x52cc <zapisz_znaki_w_eeprom>
}
     7ae:	28 96       	adiw	r28, 0x08	; 8
     7b0:	0f b6       	in	r0, 0x3f	; 63
     7b2:	f8 94       	cli
     7b4:	de bf       	out	0x3e, r29	; 62
     7b6:	0f be       	out	0x3f, r0	; 63
     7b8:	cd bf       	out	0x3d, r28	; 61
     7ba:	df 91       	pop	r29
     7bc:	cf 91       	pop	r28
     7be:	08 95       	ret

000007c0 <test_dioda_wyjscia>:
void test_dioda_wyjscia(void)
{
	static uchar opoznienie_1s;
	if ( ++opoznienie_1s < 100 )
     7c0:	80 91 28 02 	lds	r24, 0x0228	; 0x800228 <opoznienie_1s.2970>
     7c4:	8f 5f       	subi	r24, 0xFF	; 255
     7c6:	84 36       	cpi	r24, 0x64	; 100
     7c8:	18 f4       	brcc	.+6      	; 0x7d0 <test_dioda_wyjscia+0x10>
     7ca:	80 93 28 02 	sts	0x0228, r24	; 0x800228 <opoznienie_1s.2970>
     7ce:	08 95       	ret
		return;
	opoznienie_1s = 0;
     7d0:	10 92 28 02 	sts	0x0228, r1	; 0x800228 <opoznienie_1s.2970>
	static uchar stan;
	stan = not stan;
     7d4:	80 91 27 02 	lds	r24, 0x0227	; 0x800227 <stan.2971>
     7d8:	91 e0       	ldi	r25, 0x01	; 1
     7da:	81 11       	cpse	r24, r1
     7dc:	90 e0       	ldi	r25, 0x00	; 0
     7de:	90 93 27 02 	sts	0x0227, r25	; 0x800227 <stan.2971>
	if ( stan )
     7e2:	81 11       	cpse	r24, r1
     7e4:	02 c0       	rjmp	.+4      	; 0x7ea <test_dioda_wyjscia+0x2a>
	{
		ustaw_stan_led(TRUE);
     7e6:	40 98       	cbi	0x08, 0	; 8
     7e8:	08 95       	ret
	}
	else
	{
		ustaw_stan_led(FALSE);
     7ea:	40 9a       	sbi	0x08, 0	; 8
	}
}
     7ec:	08 95       	ret

000007ee <test_wejscie>:

static uchar stan_wejscia(const uchar nr_wejscia) __attribute__((unused));

static uchar stan_wejscia(const uchar nr_wejscia)
{
	return licznik_wejscie[nr_wejscia] & 0xf0;
     7ee:	80 91 9b 03 	lds	r24, 0x039B	; 0x80039b <licznik_wejscie>
     7f2:	80 7f       	andi	r24, 0xF0	; 240

void test_wejscie(void)
{
	ustaw_stan_led(stan_wejscia(0));
     7f4:	11 f4       	brne	.+4      	; 0x7fa <test_wejscie+0xc>
     7f6:	40 9a       	sbi	0x08, 0	; 8
     7f8:	08 95       	ret
     7fa:	40 98       	cbi	0x08, 0	; 8
}
     7fc:	08 95       	ret

000007fe <__vector_16>:
przerwanie_timer() {
     7fe:	78 94       	sei
     800:	1f 92       	push	r1
     802:	0f 92       	push	r0
     804:	0f b6       	in	r0, 0x3f	; 63
     806:	0f 92       	push	r0
     808:	11 24       	eor	r1, r1
     80a:	0b b6       	in	r0, 0x3b	; 59
     80c:	0f 92       	push	r0
     80e:	2f 93       	push	r18
     810:	8f 93       	push	r24
     812:	9f 93       	push	r25
     814:	ef 93       	push	r30
     816:	ff 93       	push	r31
  if (++licznik_wybudz_watki_10MS >= OPOZNIENIE_TIMERA_0) {
     818:	80 91 e8 01 	lds	r24, 0x01E8	; 0x8001e8 <licznik_wybudz_watki_10MS>
     81c:	8f 5f       	subi	r24, 0xFF	; 255
     81e:	80 93 e8 01 	sts	0x01E8, r24	; 0x8001e8 <licznik_wybudz_watki_10MS>
     822:	82 31       	cpi	r24, 0x12	; 18
     824:	28 f0       	brcs	.+10     	; 0x830 <__vector_16+0x32>
    licznik_wybudz_watki_10MS = 0;
     826:	10 92 e8 01 	sts	0x01E8, r1	; 0x8001e8 <licznik_wybudz_watki_10MS>
    wykonac_watki_10MS = TRUE;
     82a:	8f ef       	ldi	r24, 0xFF	; 255
     82c:	80 93 ea 01 	sts	0x01EA, r24	; 0x8001ea <wykonac_watki_10MS>
  if (STATUS_WLACZONY_SIM900()) {
     830:	4f 9b       	sbis	0x09, 7	; 9
     832:	59 c0       	rjmp	.+178    	; 0x8e6 <__vector_16+0xe8>
    if (!CZY_ODBIERANIE_DANYCH_SIM900() && czy_jest_bezczynny_SIM900()) {
     834:	00 b6       	in	r0, 0x30	; 48
     836:	01 fc       	sbrc	r0, 1
     838:	16 c0       	rjmp	.+44     	; 0x866 <__vector_16+0x68>
     83a:	80 91 38 02 	lds	r24, 0x0238	; 0x800238 <komenda_SIM900>
     83e:	81 11       	cpse	r24, r1
     840:	12 c0       	rjmp	.+36     	; 0x866 <__vector_16+0x68>
      ustaw_odbior_SIM900();
     842:	10 92 4e 05 	sts	0x054E, r1	; 0x80054e <liczba_odebranych_znakow_SIM900+0x1>
     846:	10 92 4d 05 	sts	0x054D, r1	; 0x80054d <liczba_odebranych_znakow_SIM900>
     84a:	10 92 5d 05 	sts	0x055D, r1	; 0x80055d <licznik_opoznienie_oczekiwania_na_bajt_SIM900>
     84e:	80 b7       	in	r24, 0x30	; 48
     850:	82 60       	ori	r24, 0x02	; 2
     852:	80 bf       	out	0x30, r24	; 48
     854:	f8 94       	cli
     856:	80 91 c1 00 	lds	r24, 0x00C1	; 0x8000c1 <__TEXT_REGION_LENGTH__+0x7e00c1>
     85a:	80 68       	ori	r24, 0x80	; 128
     85c:	80 93 c1 00 	sts	0x00C1, r24	; 0x8000c1 <__TEXT_REGION_LENGTH__+0x7e00c1>
     860:	78 94       	sei
     862:	00 00       	nop
     864:	45 98       	cbi	0x08, 5	; 8
    if (CZY_HANDSHAKING_CTS_ZEZWALA_NA_TRANSMISJE_SIM900()) {
     866:	34 99       	sbic	0x06, 4	; 6
     868:	2f c0       	rjmp	.+94     	; 0x8c8 <__vector_16+0xca>
      cli();
     86a:	f8 94       	cli
      if (CZY_WYSYLANIE_DANYCH_SIM900()) {
     86c:	80 91 c1 00 	lds	r24, 0x00C1	; 0x8000c1 <__TEXT_REGION_LENGTH__+0x7e00c1>
     870:	86 ff       	sbrs	r24, 6
     872:	29 c0       	rjmp	.+82     	; 0x8c6 <__vector_16+0xc8>
        WYLACZ_PRZERWANIE_WYSYLANIA_DANYCH_SIM900();
     874:	80 91 c1 00 	lds	r24, 0x00C1	; 0x8000c1 <__TEXT_REGION_LENGTH__+0x7e00c1>
     878:	8f 7b       	andi	r24, 0xBF	; 191
     87a:	80 93 c1 00 	sts	0x00C1, r24	; 0x8000c1 <__TEXT_REGION_LENGTH__+0x7e00c1>
        sei();
     87e:	78 94       	sei
        uchar p = sprawdzaj_wejscie_CTS_SIM900;
     880:	80 91 39 02 	lds	r24, 0x0239	; 0x800239 <sprawdzaj_wejscie_CTS_SIM900>
        if (p && (podlaczony_modul_gsm_SIM900 ||
     884:	88 23       	and	r24, r24
     886:	c9 f0       	breq	.+50     	; 0x8ba <__vector_16+0xbc>
     888:	80 91 37 02 	lds	r24, 0x0237	; 0x800237 <podlaczony_modul_gsm_SIM900>
     88c:	81 11       	cpse	r24, r1
     88e:	04 c0       	rjmp	.+8      	; 0x898 <__vector_16+0x9a>
     890:	80 91 16 02 	lds	r24, 0x0216	; 0x800216 <aktualnie_wysylane_polecenie_SIM900>
     894:	8c 38       	cpi	r24, 0x8C	; 140
     896:	89 f4       	brne	.+34     	; 0x8ba <__vector_16+0xbc>
          sprawdzaj_wejscie_CTS_SIM900 = p;
     898:	10 92 39 02 	sts	0x0239, r1	; 0x800239 <sprawdzaj_wejscie_CTS_SIM900>
          WSTAW_ZNAK_DO_BUFORA_SIM900();
     89c:	80 91 51 05 	lds	r24, 0x0551	; 0x800551 <nr_wyslanego_znaku_SIM900>
     8a0:	90 91 52 05 	lds	r25, 0x0552	; 0x800552 <nr_wyslanego_znaku_SIM900+0x1>
     8a4:	fc 01       	movw	r30, r24
     8a6:	e6 5f       	subi	r30, 0xF6	; 246
     8a8:	f9 4f       	sbci	r31, 0xF9	; 249
     8aa:	20 81       	ld	r18, Z
     8ac:	01 96       	adiw	r24, 0x01	; 1
     8ae:	90 93 52 05 	sts	0x0552, r25	; 0x800552 <nr_wyslanego_znaku_SIM900+0x1>
     8b2:	80 93 51 05 	sts	0x0551, r24	; 0x800551 <nr_wyslanego_znaku_SIM900>
     8b6:	20 93 c6 00 	sts	0x00C6, r18	; 0x8000c6 <__TEXT_REGION_LENGTH__+0x7e00c6>
        cli();
     8ba:	f8 94       	cli
        WLACZ_PRZERWANIE_WYSYLANIA_DANYCH_SIM900();
     8bc:	80 91 c1 00 	lds	r24, 0x00C1	; 0x8000c1 <__TEXT_REGION_LENGTH__+0x7e00c1>
     8c0:	80 64       	ori	r24, 0x40	; 64
     8c2:	80 93 c1 00 	sts	0x00C1, r24	; 0x8000c1 <__TEXT_REGION_LENGTH__+0x7e00c1>
      sei();
     8c6:	78 94       	sei
  wykonaj_zdarzenie_timer =
     8c8:	8f ef       	ldi	r24, 0xFF	; 255
     8ca:	80 93 eb 01 	sts	0x01EB, r24	; 0x8001eb <wykonaj_zdarzenie_timer>
}
     8ce:	ff 91       	pop	r31
     8d0:	ef 91       	pop	r30
     8d2:	9f 91       	pop	r25
     8d4:	8f 91       	pop	r24
     8d6:	2f 91       	pop	r18
     8d8:	0f 90       	pop	r0
     8da:	0b be       	out	0x3b, r0	; 59
     8dc:	0f 90       	pop	r0
     8de:	0f be       	out	0x3f, r0	; 63
     8e0:	0f 90       	pop	r0
     8e2:	1f 90       	pop	r1
     8e4:	18 95       	reti
    zakoncz_przesylanie_SIM900();
     8e6:	45 9a       	sbi	0x08, 5	; 8
     8e8:	f8 94       	cli
     8ea:	80 91 c1 00 	lds	r24, 0x00C1	; 0x8000c1 <__TEXT_REGION_LENGTH__+0x7e00c1>
     8ee:	8f 73       	andi	r24, 0x3F	; 63
     8f0:	80 93 c1 00 	sts	0x00C1, r24	; 0x8000c1 <__TEXT_REGION_LENGTH__+0x7e00c1>
     8f4:	80 b7       	in	r24, 0x30	; 48
     8f6:	8d 7f       	andi	r24, 0xFD	; 253
     8f8:	80 bf       	out	0x30, r24	; 48
     8fa:	78 94       	sei
     8fc:	00 00       	nop
     8fe:	e4 cf       	rjmp	.-56     	; 0x8c8 <__vector_16+0xca>

00000900 <generuj_raport_sieci>:
void generuj_raport_sieci(uchar **buf_sms) {
     900:	df 92       	push	r13
     902:	ef 92       	push	r14
     904:	ff 92       	push	r15
     906:	0f 93       	push	r16
     908:	1f 93       	push	r17
     90a:	cf 93       	push	r28
     90c:	df 93       	push	r29
     90e:	8c 01       	movw	r16, r24
  uchar *ptr = *buf_sms;
     910:	dc 01       	movw	r26, r24
     912:	ed 90       	ld	r14, X+
     914:	fc 90       	ld	r15, X
  memcpy_R(ptr, tekst_gsm);
     916:	4c e0       	ldi	r20, 0x0C	; 12
     918:	50 e0       	ldi	r21, 0x00	; 0
     91a:	63 e6       	ldi	r22, 0x63	; 99
     91c:	73 e0       	ldi	r23, 0x03	; 3
     91e:	c7 01       	movw	r24, r14
     920:	0e 94 e0 2e 	call	0x5dc0	; 0x5dc0 <memcpy_P>
  *ptr++ = '\n';
     924:	e7 01       	movw	r28, r14
     926:	2d 96       	adiw	r28, 0x0d	; 13
     928:	8a e0       	ldi	r24, 0x0A	; 10
     92a:	d8 2e       	mov	r13, r24
     92c:	f7 01       	movw	r30, r14
     92e:	d4 86       	std	Z+12, r13	; 0x0c
  strcpy_P((char *)ptr, PSTR("Czas: "));
     930:	6c e5       	ldi	r22, 0x5C	; 92
     932:	73 e0       	ldi	r23, 0x03	; 3
     934:	ce 01       	movw	r24, r28
     936:	0e 94 e9 2e 	call	0x5dd2	; 0x5dd2 <strcpy_P>
  ptr += strlen((char *)ptr);
     93a:	09 90       	ld	r0, Y+
     93c:	00 20       	and	r0, r0
     93e:	e9 f7       	brne	.-6      	; 0x93a <generuj_raport_sieci+0x3a>
     940:	21 97       	sbiw	r28, 0x01	; 1
  strcat((char *)ptr, rtc_czas);
     942:	6b e0       	ldi	r22, 0x0B	; 11
     944:	71 e0       	ldi	r23, 0x01	; 1
     946:	ce 01       	movw	r24, r28
     948:	0e 94 4d 2f 	call	0x5e9a	; 0x5e9a <strcat>
  ptr += strlen((char *)ptr);
     94c:	09 90       	ld	r0, Y+
     94e:	00 20       	and	r0, r0
     950:	e9 f7       	brne	.-6      	; 0x94c <generuj_raport_sieci+0x4c>
     952:	21 97       	sbiw	r28, 0x01	; 1
  *ptr++ = '\n';
     954:	de 01       	movw	r26, r28
     956:	dd 92       	st	X+, r13
     958:	cd 01       	movw	r24, r26
  memcpy_R(ptr, text_sygnal);
     95a:	4b e0       	ldi	r20, 0x0B	; 11
     95c:	50 e0       	ldi	r21, 0x00	; 0
     95e:	60 e5       	ldi	r22, 0x50	; 80
     960:	73 e0       	ldi	r23, 0x03	; 3
     962:	0e 94 e0 2e 	call	0x5dc0	; 0x5dc0 <memcpy_P>
  if (poziom_sieci_gsm <= 31 && modul_zalogowany_w_sieci) {
     966:	80 91 06 01 	lds	r24, 0x0106	; 0x800106 <poziom_sieci_gsm>
     96a:	80 32       	cpi	r24, 0x20	; 32
     96c:	30 f5       	brcc	.+76     	; 0x9ba <generuj_raport_sieci+0xba>
     96e:	90 91 e7 01 	lds	r25, 0x01E7	; 0x8001e7 <modul_zalogowany_w_sieci>
     972:	99 23       	and	r25, r25
     974:	11 f1       	breq	.+68     	; 0x9ba <generuj_raport_sieci+0xba>
  ptr += sizeof text_sygnal - 1;
     976:	2c 96       	adiw	r28, 0x0c	; 12
    utoa(poziom_sieci_gsm * 100 / 31, ptr, 10);
     978:	b4 e6       	ldi	r27, 0x64	; 100
     97a:	8b 9f       	mul	r24, r27
     97c:	c0 01       	movw	r24, r0
     97e:	11 24       	eor	r1, r1
     980:	6f e1       	ldi	r22, 0x1F	; 31
     982:	70 e0       	ldi	r23, 0x00	; 0
     984:	0e 94 60 2c 	call	0x58c0	; 0x58c0 <__divmodhi4>
     988:	cb 01       	movw	r24, r22
    } else if (__radix < 2 || __radix > 36) {
	*__s = 0;
	return __s;
    } else {
	extern char *__utoa_ncheck (unsigned int, char *, unsigned char);
	return __utoa_ncheck (__val, __s, __radix);
     98a:	4a e0       	ldi	r20, 0x0A	; 10
     98c:	be 01       	movw	r22, r28
     98e:	0e 94 6a 2f 	call	0x5ed4	; 0x5ed4 <__utoa_ncheck>
    ptr += strlen(ptr);
     992:	09 90       	ld	r0, Y+
     994:	00 20       	and	r0, r0
     996:	e9 f7       	brne	.-6      	; 0x992 <generuj_raport_sieci+0x92>
     998:	21 97       	sbiw	r28, 0x01	; 1
    *ptr++ = '%';
     99a:	fe 01       	movw	r30, r28
     99c:	31 96       	adiw	r30, 0x01	; 1
     99e:	85 e2       	ldi	r24, 0x25	; 37
     9a0:	88 83       	st	Y, r24
  *ptr = 0;
     9a2:	10 82       	st	Z, r1
  *buf_sms = ptr;
     9a4:	d8 01       	movw	r26, r16
     9a6:	ed 93       	st	X+, r30
     9a8:	fc 93       	st	X, r31
}
     9aa:	df 91       	pop	r29
     9ac:	cf 91       	pop	r28
     9ae:	1f 91       	pop	r17
     9b0:	0f 91       	pop	r16
     9b2:	ff 90       	pop	r15
     9b4:	ef 90       	pop	r14
     9b6:	df 90       	pop	r13
     9b8:	08 95       	ret
    *ptr++ = '-';
     9ba:	8d e2       	ldi	r24, 0x2D	; 45
     9bc:	8c 87       	std	Y+12, r24	; 0x0c
    *ptr++ = '-';
     9be:	8d 87       	std	Y+13, r24	; 0x0d
    *ptr++ = '-';
     9c0:	fe 01       	movw	r30, r28
     9c2:	3f 96       	adiw	r30, 0x0f	; 15
     9c4:	8e 87       	std	Y+14, r24	; 0x0e
     9c6:	ed cf       	rjmp	.-38     	; 0x9a2 <generuj_raport_sieci+0xa2>

000009c8 <generuj_raport_uzytkownikow_1>:
void generuj_raport_uzytkownikow_1(uchar **buf_sms) {
     9c8:	af 92       	push	r10
     9ca:	bf 92       	push	r11
     9cc:	cf 92       	push	r12
     9ce:	df 92       	push	r13
     9d0:	ef 92       	push	r14
     9d2:	ff 92       	push	r15
     9d4:	0f 93       	push	r16
     9d6:	1f 93       	push	r17
     9d8:	cf 93       	push	r28
     9da:	df 93       	push	r29
     9dc:	8c 01       	movw	r16, r24
  uchar *ptr = *buf_sms;
     9de:	fc 01       	movw	r30, r24
     9e0:	c0 81       	ld	r28, Z
     9e2:	d1 81       	ldd	r29, Z+1	; 0x01
  memcpy_R(ptr, tekst_gsm);
     9e4:	4c e0       	ldi	r20, 0x0C	; 12
     9e6:	50 e0       	ldi	r21, 0x00	; 0
     9e8:	63 e4       	ldi	r22, 0x43	; 67
     9ea:	73 e0       	ldi	r23, 0x03	; 3
     9ec:	ce 01       	movw	r24, r28
     9ee:	0e 94 e0 2e 	call	0x5dc0	; 0x5dc0 <memcpy_P>
  ptr += sizeof tekst_gsm - 1;
     9f2:	2c 96       	adiw	r28, 0x0c	; 12
     9f4:	88 e0       	ldi	r24, 0x08	; 8
     9f6:	c8 2e       	mov	r12, r24
     9f8:	d1 2c       	mov	r13, r1
  uint wolne_numery = 0;
     9fa:	f1 2c       	mov	r15, r1
     9fc:	e1 2c       	mov	r14, r1
  uint aktywne_numery = 0;
     9fe:	b1 2c       	mov	r11, r1
     a00:	a1 2c       	mov	r10, r1
    if (czy_aktywny_numer_telefonu_brama(nr_uzyt_clip))
     a02:	c6 01       	movw	r24, r12
     a04:	0e 94 7e 32 	call	0x64fc	; 0x64fc <eeprom_read_byte>
     a08:	8f 3f       	cpi	r24, 0xFF	; 255
     a0a:	99 f1       	breq	.+102    	; 0xa72 <generuj_raport_uzytkownikow_1+0xaa>
      ++aktywne_numery;
     a0c:	ff ef       	ldi	r31, 0xFF	; 255
     a0e:	af 1a       	sub	r10, r31
     a10:	bf 0a       	sbc	r11, r31
     a12:	e5 e0       	ldi	r30, 0x05	; 5
     a14:	ce 0e       	add	r12, r30
     a16:	d1 1c       	adc	r13, r1
  for (uint nr_uzyt_clip = 0; nr_uzyt_clip < MAX_LICZBA_NUMEROW_TELEFONOW_BRAMA;
     a18:	f8 ea       	ldi	r31, 0xA8	; 168
     a1a:	cf 16       	cp	r12, r31
     a1c:	ff e0       	ldi	r31, 0x0F	; 15
     a1e:	df 06       	cpc	r13, r31
     a20:	81 f7       	brne	.-32     	; 0xa02 <generuj_raport_uzytkownikow_1+0x3a>
     a22:	4a e0       	ldi	r20, 0x0A	; 10
     a24:	be 01       	movw	r22, r28
     a26:	c5 01       	movw	r24, r10
     a28:	0e 94 6a 2f 	call	0x5ed4	; 0x5ed4 <__utoa_ncheck>
  ptr += strlen(ptr);
     a2c:	09 90       	ld	r0, Y+
     a2e:	00 20       	and	r0, r0
     a30:	e9 f7       	brne	.-6      	; 0xa2c <generuj_raport_uzytkownikow_1+0x64>
     a32:	21 97       	sbiw	r28, 0x01	; 1
  *ptr++ = '/';
     a34:	6e 01       	movw	r12, r28
     a36:	8f ef       	ldi	r24, 0xFF	; 255
     a38:	c8 1a       	sub	r12, r24
     a3a:	d8 0a       	sbc	r13, r24
     a3c:	8f e2       	ldi	r24, 0x2F	; 47
     a3e:	88 83       	st	Y, r24
     a40:	4a e0       	ldi	r20, 0x0A	; 10
     a42:	b6 01       	movw	r22, r12
     a44:	c7 01       	movw	r24, r14
     a46:	0e 94 6a 2f 	call	0x5ed4	; 0x5ed4 <__utoa_ncheck>
  ptr += strlen(ptr);
     a4a:	f6 01       	movw	r30, r12
     a4c:	01 90       	ld	r0, Z+
     a4e:	00 20       	and	r0, r0
     a50:	e9 f7       	brne	.-6      	; 0xa4c <generuj_raport_uzytkownikow_1+0x84>
     a52:	cf 01       	movw	r24, r30
     a54:	01 97       	sbiw	r24, 0x01	; 1
  *buf_sms = ptr;
     a56:	f8 01       	movw	r30, r16
     a58:	91 83       	std	Z+1, r25	; 0x01
     a5a:	80 83       	st	Z, r24
}
     a5c:	df 91       	pop	r29
     a5e:	cf 91       	pop	r28
     a60:	1f 91       	pop	r17
     a62:	0f 91       	pop	r16
     a64:	ff 90       	pop	r15
     a66:	ef 90       	pop	r14
     a68:	df 90       	pop	r13
     a6a:	cf 90       	pop	r12
     a6c:	bf 90       	pop	r11
     a6e:	af 90       	pop	r10
     a70:	08 95       	ret
      ++wolne_numery;
     a72:	8f ef       	ldi	r24, 0xFF	; 255
     a74:	e8 1a       	sub	r14, r24
     a76:	f8 0a       	sbc	r15, r24
     a78:	cc cf       	rjmp	.-104    	; 0xa12 <generuj_raport_uzytkownikow_1+0x4a>

00000a7a <generuj_raport_uzytkownikow>:
void generuj_raport_uzytkownikow(uchar **buf_sms) {
     a7a:	cf 92       	push	r12
     a7c:	df 92       	push	r13
     a7e:	ef 92       	push	r14
     a80:	ff 92       	push	r15
     a82:	0f 93       	push	r16
     a84:	1f 93       	push	r17
     a86:	cf 93       	push	r28
     a88:	df 93       	push	r29
     a8a:	8c 01       	movw	r16, r24
  uchar *ptr = *buf_sms;
     a8c:	fc 01       	movw	r30, r24
     a8e:	c0 81       	ld	r28, Z
     a90:	d1 81       	ldd	r29, Z+1	; 0x01
  memcpy_R(ptr, tekst_gsm);
     a92:	4c e0       	ldi	r20, 0x0C	; 12
     a94:	50 e0       	ldi	r21, 0x00	; 0
     a96:	66 e3       	ldi	r22, 0x36	; 54
     a98:	73 e0       	ldi	r23, 0x03	; 3
     a9a:	ce 01       	movw	r24, r28
     a9c:	0e 94 e0 2e 	call	0x5dc0	; 0x5dc0 <memcpy_P>
  ptr += sizeof tekst_gsm - 1;
     aa0:	2c 96       	adiw	r28, 0x0c	; 12
     aa2:	88 e0       	ldi	r24, 0x08	; 8
     aa4:	e8 2e       	mov	r14, r24
     aa6:	f1 2c       	mov	r15, r1
  uchar wolne_numery = 0;
     aa8:	d1 2c       	mov	r13, r1
  uchar aktywne_numery = 0;
     aaa:	c1 2c       	mov	r12, r1
    if (czy_aktywny_numer_telefonu_brama(nr_uzyt_clip))
     aac:	c7 01       	movw	r24, r14
     aae:	0e 94 7e 32 	call	0x64fc	; 0x64fc <eeprom_read_byte>
     ab2:	8f 3f       	cpi	r24, 0xFF	; 255
     ab4:	89 f1       	breq	.+98     	; 0xb18 <generuj_raport_uzytkownikow+0x9e>
      ++aktywne_numery;
     ab6:	c3 94       	inc	r12
     ab8:	f5 e0       	ldi	r31, 0x05	; 5
     aba:	ef 0e       	add	r14, r31
     abc:	f1 1c       	adc	r15, r1
  for (uint nr_uzyt_clip = 0; nr_uzyt_clip < MAX_LICZBA_NUMEROW_TELEFONOW_BRAMA;
     abe:	88 ea       	ldi	r24, 0xA8	; 168
     ac0:	e8 16       	cp	r14, r24
     ac2:	8f e0       	ldi	r24, 0x0F	; 15
     ac4:	f8 06       	cpc	r15, r24
     ac6:	91 f7       	brne	.-28     	; 0xaac <generuj_raport_uzytkownikow+0x32>
     ac8:	4a e0       	ldi	r20, 0x0A	; 10
     aca:	be 01       	movw	r22, r28
     acc:	8c 2d       	mov	r24, r12
     ace:	90 e0       	ldi	r25, 0x00	; 0
     ad0:	0e 94 6a 2f 	call	0x5ed4	; 0x5ed4 <__utoa_ncheck>
  ptr += strlen(ptr);
     ad4:	09 90       	ld	r0, Y+
     ad6:	00 20       	and	r0, r0
     ad8:	e9 f7       	brne	.-6      	; 0xad4 <generuj_raport_uzytkownikow+0x5a>
     ada:	21 97       	sbiw	r28, 0x01	; 1
  *ptr++ = '/';
     adc:	7e 01       	movw	r14, r28
     ade:	ef ef       	ldi	r30, 0xFF	; 255
     ae0:	ee 1a       	sub	r14, r30
     ae2:	fe 0a       	sbc	r15, r30
     ae4:	8f e2       	ldi	r24, 0x2F	; 47
     ae6:	88 83       	st	Y, r24
     ae8:	4a e0       	ldi	r20, 0x0A	; 10
     aea:	b7 01       	movw	r22, r14
     aec:	8d 2d       	mov	r24, r13
     aee:	90 e0       	ldi	r25, 0x00	; 0
     af0:	0e 94 6a 2f 	call	0x5ed4	; 0x5ed4 <__utoa_ncheck>
  ptr += strlen(ptr);
     af4:	f7 01       	movw	r30, r14
     af6:	01 90       	ld	r0, Z+
     af8:	00 20       	and	r0, r0
     afa:	e9 f7       	brne	.-6      	; 0xaf6 <generuj_raport_uzytkownikow+0x7c>
     afc:	cf 01       	movw	r24, r30
     afe:	01 97       	sbiw	r24, 0x01	; 1
  *buf_sms = ptr;
     b00:	f8 01       	movw	r30, r16
     b02:	91 83       	std	Z+1, r25	; 0x01
     b04:	80 83       	st	Z, r24
}
     b06:	df 91       	pop	r29
     b08:	cf 91       	pop	r28
     b0a:	1f 91       	pop	r17
     b0c:	0f 91       	pop	r16
     b0e:	ff 90       	pop	r15
     b10:	ef 90       	pop	r14
     b12:	df 90       	pop	r13
     b14:	cf 90       	pop	r12
     b16:	08 95       	ret
      ++wolne_numery;
     b18:	d3 94       	inc	r13
     b1a:	ce cf       	rjmp	.-100    	; 0xab8 <generuj_raport_uzytkownikow+0x3e>

00000b1c <generuj_raport_stanu_urzadzenia>:
void generuj_raport_stanu_urzadzenia(void) {
     b1c:	1f 93       	push	r17
     b1e:	cf 93       	push	r28
     b20:	df 93       	push	r29
     b22:	00 d0       	rcall	.+0      	; 0xb24 <generuj_raport_stanu_urzadzenia+0x8>
     b24:	cd b7       	in	r28, 0x3d	; 61
     b26:	de b7       	in	r29, 0x3e	; 62
  *sms++ = '*';
     b28:	8a e2       	ldi	r24, 0x2A	; 42
     b2a:	80 93 69 05 	sts	0x0569, r24	; 0x800569 <tekst_wysylanego_smsa>
  *sms++ = '\n';
     b2e:	8b e6       	ldi	r24, 0x6B	; 107
     b30:	95 e0       	ldi	r25, 0x05	; 5
     b32:	9a 83       	std	Y+2, r25	; 0x02
     b34:	89 83       	std	Y+1, r24	; 0x01
     b36:	1a e0       	ldi	r17, 0x0A	; 10
     b38:	10 93 6a 05 	sts	0x056A, r17	; 0x80056a <tekst_wysylanego_smsa+0x1>
  generuj_raport_sieci(&sms);
     b3c:	ce 01       	movw	r24, r28
     b3e:	01 96       	adiw	r24, 0x01	; 1
     b40:	0e 94 80 04 	call	0x900	; 0x900 <generuj_raport_sieci>
  *sms++ = '\n';
     b44:	e9 81       	ldd	r30, Y+1	; 0x01
     b46:	fa 81       	ldd	r31, Y+2	; 0x02
     b48:	cf 01       	movw	r24, r30
     b4a:	01 96       	adiw	r24, 0x01	; 1
     b4c:	9a 83       	std	Y+2, r25	; 0x02
     b4e:	89 83       	std	Y+1, r24	; 0x01
     b50:	10 83       	st	Z, r17
  generuj_raport_uzytkownikow_1(&sms);
     b52:	ce 01       	movw	r24, r28
     b54:	01 96       	adiw	r24, 0x01	; 1
     b56:	0e 94 e4 04 	call	0x9c8	; 0x9c8 <generuj_raport_uzytkownikow_1>
  *sms++ = '\n';
     b5a:	e9 81       	ldd	r30, Y+1	; 0x01
     b5c:	fa 81       	ldd	r31, Y+2	; 0x02
     b5e:	cf 01       	movw	r24, r30
     b60:	01 96       	adiw	r24, 0x01	; 1
     b62:	9a 83       	std	Y+2, r25	; 0x02
     b64:	89 83       	std	Y+1, r24	; 0x01
     b66:	10 83       	st	Z, r17
  if (blokada_systemu) {
     b68:	20 91 e2 01 	lds	r18, 0x01E2	; 0x8001e2 <blokada_systemu>
     b6c:	89 81       	ldd	r24, Y+1	; 0x01
     b6e:	9a 81       	ldd	r25, Y+2	; 0x02
    strcpy_P((char *)sms, PSTR("Status: Zablokowany"));
     b70:	62 e2       	ldi	r22, 0x22	; 34
     b72:	73 e0       	ldi	r23, 0x03	; 3
  if (blokada_systemu) {
     b74:	21 11       	cpse	r18, r1
     b76:	02 c0       	rjmp	.+4      	; 0xb7c <generuj_raport_stanu_urzadzenia+0x60>
    strcpy_P((char *)sms, PSTR("Status: Aktywny"));
     b78:	62 e1       	ldi	r22, 0x12	; 18
     b7a:	73 e0       	ldi	r23, 0x03	; 3
     b7c:	0e 94 e9 2e 	call	0x5dd2	; 0x5dd2 <strcpy_P>
  sms += strlen((char *)sms);
     b80:	e9 81       	ldd	r30, Y+1	; 0x01
     b82:	fa 81       	ldd	r31, Y+2	; 0x02
     b84:	01 90       	ld	r0, Z+
     b86:	00 20       	and	r0, r0
     b88:	e9 f7       	brne	.-6      	; 0xb84 <generuj_raport_stanu_urzadzenia+0x68>
  *sms++ = '\n';
     b8a:	df 01       	movw	r26, r30
     b8c:	11 97       	sbiw	r26, 0x01	; 1
     b8e:	fa 83       	std	Y+2, r31	; 0x02
     b90:	e9 83       	std	Y+1, r30	; 0x01
     b92:	8a e0       	ldi	r24, 0x0A	; 10
     b94:	8c 93       	st	X, r24
  if (tryb_pracy == 0) {
     b96:	20 91 00 01 	lds	r18, 0x0100	; 0x800100 <tryb_pracy>
     b9a:	89 81       	ldd	r24, Y+1	; 0x01
     b9c:	9a 81       	ldd	r25, Y+2	; 0x02
    strcpy_P((char *)sms, PSTR("Tryb: Prywatny"));
     b9e:	63 e0       	ldi	r22, 0x03	; 3
     ba0:	73 e0       	ldi	r23, 0x03	; 3
  if (tryb_pracy == 0) {
     ba2:	22 23       	and	r18, r18
     ba4:	11 f0       	breq	.+4      	; 0xbaa <generuj_raport_stanu_urzadzenia+0x8e>
    strcpy_P((char *)sms, PSTR("Tryb: Publiczny"));
     ba6:	63 ef       	ldi	r22, 0xF3	; 243
     ba8:	72 e0       	ldi	r23, 0x02	; 2
     baa:	0e 94 e9 2e 	call	0x5dd2	; 0x5dd2 <strcpy_P>
  sms += strlen((char *)sms);
     bae:	89 81       	ldd	r24, Y+1	; 0x01
     bb0:	9a 81       	ldd	r25, Y+2	; 0x02
     bb2:	fc 01       	movw	r30, r24
     bb4:	01 90       	ld	r0, Z+
     bb6:	00 20       	and	r0, r0
     bb8:	e9 f7       	brne	.-6      	; 0xbb4 <generuj_raport_stanu_urzadzenia+0x98>
     bba:	cf 01       	movw	r24, r30
     bbc:	01 97       	sbiw	r24, 0x01	; 1
     bbe:	9a 83       	std	Y+2, r25	; 0x02
     bc0:	89 83       	std	Y+1, r24	; 0x01
  if (tryb_clip) {
     bc2:	20 91 01 01 	lds	r18, 0x0101	; 0x800101 <tryb_clip>
    strcpy_P((char *)sms, PSTR(" CLIP"));
     bc6:	6d ee       	ldi	r22, 0xED	; 237
     bc8:	72 e0       	ldi	r23, 0x02	; 2
  if (tryb_clip) {
     bca:	21 11       	cpse	r18, r1
     bcc:	02 c0       	rjmp	.+4      	; 0xbd2 <generuj_raport_stanu_urzadzenia+0xb6>
    strcpy_P((char *)sms, PSTR(" DTMF"));
     bce:	67 ee       	ldi	r22, 0xE7	; 231
     bd0:	72 e0       	ldi	r23, 0x02	; 2
     bd2:	0e 94 e9 2e 	call	0x5dd2	; 0x5dd2 <strcpy_P>
  sms += strlen((char *)sms);
     bd6:	e9 81       	ldd	r30, Y+1	; 0x01
     bd8:	fa 81       	ldd	r31, Y+2	; 0x02
     bda:	01 90       	ld	r0, Z+
     bdc:	00 20       	and	r0, r0
     bde:	e9 f7       	brne	.-6      	; 0xbda <generuj_raport_stanu_urzadzenia+0xbe>
  *sms++ = '\n';
     be0:	df 01       	movw	r26, r30
     be2:	11 97       	sbiw	r26, 0x01	; 1
     be4:	fa 83       	std	Y+2, r31	; 0x02
     be6:	e9 83       	std	Y+1, r30	; 0x01
     be8:	8a e0       	ldi	r24, 0x0A	; 10
     bea:	8c 93       	st	X, r24
  if (czas_start_h == 0xFF) {
     bec:	80 91 0a 01 	lds	r24, 0x010A	; 0x80010a <czas_start_h>
     bf0:	8f 3f       	cpi	r24, 0xFF	; 255
     bf2:	a1 f5       	brne	.+104    	; 0xc5c <generuj_raport_stanu_urzadzenia+0x140>
    strcpy_P((char *)sms, PSTR("Harmonogram: Wylaczony"));
     bf4:	60 ed       	ldi	r22, 0xD0	; 208
     bf6:	72 e0       	ldi	r23, 0x02	; 2
     bf8:	89 81       	ldd	r24, Y+1	; 0x01
     bfa:	9a 81       	ldd	r25, Y+2	; 0x02
     bfc:	0e 94 e9 2e 	call	0x5dd2	; 0x5dd2 <strcpy_P>
  sms += strlen((char *)sms);
     c00:	e9 81       	ldd	r30, Y+1	; 0x01
     c02:	fa 81       	ldd	r31, Y+2	; 0x02
     c04:	01 90       	ld	r0, Z+
     c06:	00 20       	and	r0, r0
     c08:	e9 f7       	brne	.-6      	; 0xc04 <generuj_raport_stanu_urzadzenia+0xe8>
  *sms++ = '\n';
     c0a:	df 01       	movw	r26, r30
     c0c:	11 97       	sbiw	r26, 0x01	; 1
     c0e:	fa 83       	std	Y+2, r31	; 0x02
     c10:	e9 83       	std	Y+1, r30	; 0x01
     c12:	8a e0       	ldi	r24, 0x0A	; 10
     c14:	8c 93       	st	X, r24
  if (skryba_wlaczona) {
     c16:	20 91 f4 01 	lds	r18, 0x01F4	; 0x8001f4 <skryba_wlaczona>
     c1a:	89 81       	ldd	r24, Y+1	; 0x01
     c1c:	9a 81       	ldd	r25, Y+2	; 0x02
    strcpy_P((char *)sms, PSTR("Skryba: Wlaczona"));
     c1e:	6f eb       	ldi	r22, 0xBF	; 191
     c20:	72 e0       	ldi	r23, 0x02	; 2
  if (skryba_wlaczona) {
     c22:	21 11       	cpse	r18, r1
     c24:	02 c0       	rjmp	.+4      	; 0xc2a <generuj_raport_stanu_urzadzenia+0x10e>
    strcpy_P((char *)sms, PSTR("Skryba: Wylaczona"));
     c26:	6d ea       	ldi	r22, 0xAD	; 173
     c28:	72 e0       	ldi	r23, 0x02	; 2
     c2a:	0e 94 e9 2e 	call	0x5dd2	; 0x5dd2 <strcpy_P>
  sms += strlen((char *)sms);
     c2e:	e9 81       	ldd	r30, Y+1	; 0x01
     c30:	fa 81       	ldd	r31, Y+2	; 0x02
     c32:	01 90       	ld	r0, Z+
     c34:	00 20       	and	r0, r0
     c36:	e9 f7       	brne	.-6      	; 0xc32 <generuj_raport_stanu_urzadzenia+0x116>
  *sms++ = '\n';
     c38:	df 01       	movw	r26, r30
     c3a:	11 97       	sbiw	r26, 0x01	; 1
     c3c:	fa 83       	std	Y+2, r31	; 0x02
     c3e:	e9 83       	std	Y+1, r30	; 0x01
     c40:	8a e0       	ldi	r24, 0x0A	; 10
     c42:	8c 93       	st	X, r24
  strcpy_P((char *)sms, tekst_demo);
     c44:	60 ea       	ldi	r22, 0xA0	; 160
     c46:	72 e0       	ldi	r23, 0x02	; 2
     c48:	89 81       	ldd	r24, Y+1	; 0x01
     c4a:	9a 81       	ldd	r25, Y+2	; 0x02
     c4c:	0e 94 e9 2e 	call	0x5dd2	; 0x5dd2 <strcpy_P>
}
     c50:	0f 90       	pop	r0
     c52:	0f 90       	pop	r0
     c54:	df 91       	pop	r29
     c56:	cf 91       	pop	r28
     c58:	1f 91       	pop	r17
     c5a:	08 95       	ret
    sprintf((char *)sms, "Harmonogram: %02d:%02d %02d:%02d", (int)czas_start_h,
     c5c:	90 91 07 01 	lds	r25, 0x0107	; 0x800107 <czas_stop_m>
     c60:	1f 92       	push	r1
     c62:	9f 93       	push	r25
     c64:	90 91 08 01 	lds	r25, 0x0108	; 0x800108 <czas_stop_h>
     c68:	1f 92       	push	r1
     c6a:	9f 93       	push	r25
     c6c:	90 91 09 01 	lds	r25, 0x0109	; 0x800109 <czas_start_m>
     c70:	1f 92       	push	r1
     c72:	9f 93       	push	r25
     c74:	1f 92       	push	r1
     c76:	8f 93       	push	r24
     c78:	87 e1       	ldi	r24, 0x17	; 23
     c7a:	91 e0       	ldi	r25, 0x01	; 1
     c7c:	9f 93       	push	r25
     c7e:	8f 93       	push	r24
     c80:	8a 81       	ldd	r24, Y+2	; 0x02
     c82:	8f 93       	push	r24
     c84:	89 81       	ldd	r24, Y+1	; 0x01
     c86:	8f 93       	push	r24
     c88:	0e 94 84 2f 	call	0x5f08	; 0x5f08 <sprintf>
     c8c:	0f b6       	in	r0, 0x3f	; 63
     c8e:	f8 94       	cli
     c90:	de bf       	out	0x3e, r29	; 62
     c92:	0f be       	out	0x3f, r0	; 63
     c94:	cd bf       	out	0x3d, r28	; 61
     c96:	b4 cf       	rjmp	.-152    	; 0xc00 <generuj_raport_stanu_urzadzenia+0xe4>

00000c98 <czy_numer_jest_super_userem>:
uchar czy_numer_jest_super_userem(const uchar *numer_telefonu) {
     c98:	0f 93       	push	r16
     c9a:	1f 93       	push	r17
     c9c:	cf 93       	push	r28
     c9e:	df 93       	push	r29
     ca0:	00 d0       	rcall	.+0      	; 0xca2 <czy_numer_jest_super_userem+0xa>
     ca2:	00 d0       	rcall	.+0      	; 0xca4 <czy_numer_jest_super_userem+0xc>
     ca4:	1f 92       	push	r1
     ca6:	cd b7       	in	r28, 0x3d	; 61
     ca8:	de b7       	in	r29, 0x3e	; 62
      (uchar *)numer_telefonu + strlen((char *)numer_telefonu), temp_buf);
     caa:	fc 01       	movw	r30, r24
     cac:	01 90       	ld	r0, Z+
     cae:	00 20       	and	r0, r0
     cb0:	e9 f7       	brne	.-6      	; 0xcac <czy_numer_jest_super_userem+0x14>
     cb2:	bf 01       	movw	r22, r30
  konwertuj_telefon_na_blok_eeprom(
     cb4:	61 50       	subi	r22, 0x01	; 1
     cb6:	71 09       	sbc	r23, r1
     cb8:	ae 01       	movw	r20, r28
     cba:	4f 5f       	subi	r20, 0xFF	; 255
     cbc:	5f 4f       	sbci	r21, 0xFF	; 255
     cbe:	0e 94 bf 27 	call	0x4f7e	; 0x4f7e <konwertuj_telefon_na_blok_eeprom>
     cc2:	0a e8       	ldi	r16, 0x8A	; 138
     cc4:	1f e0       	ldi	r17, 0x0F	; 15
    if (porownaj_numer_telefonu_blok(
     cc6:	b8 01       	movw	r22, r16
     cc8:	ce 01       	movw	r24, r28
     cca:	01 96       	adiw	r24, 0x01	; 1
     ccc:	0e 94 94 28 	call	0x5128	; 0x5128 <porownaj_numer_telefonu_blok>
     cd0:	81 11       	cpse	r24, r1
     cd2:	10 c0       	rjmp	.+32     	; 0xcf4 <czy_numer_jest_super_userem+0x5c>
     cd4:	0b 5f       	subi	r16, 0xFB	; 251
     cd6:	1f 4f       	sbci	r17, 0xFF	; 255
  for (uint nr_uzyt = 794; nr_uzyt < MAX_LICZBA_NUMEROW_TELEFONOW_BRAMA;
     cd8:	08 3a       	cpi	r16, 0xA8	; 168
     cda:	ff e0       	ldi	r31, 0x0F	; 15
     cdc:	1f 07       	cpc	r17, r31
     cde:	99 f7       	brne	.-26     	; 0xcc6 <czy_numer_jest_super_userem+0x2e>
}
     ce0:	0f 90       	pop	r0
     ce2:	0f 90       	pop	r0
     ce4:	0f 90       	pop	r0
     ce6:	0f 90       	pop	r0
     ce8:	0f 90       	pop	r0
     cea:	df 91       	pop	r29
     cec:	cf 91       	pop	r28
     cee:	1f 91       	pop	r17
     cf0:	0f 91       	pop	r16
     cf2:	08 95       	ret
      return TRUE; // Znaleziono w pozycjach super userow
     cf4:	8f ef       	ldi	r24, 0xFF	; 255
     cf6:	f4 cf       	rjmp	.-24     	; 0xce0 <czy_numer_jest_super_userem+0x48>

00000cf8 <ustaw_wyjscie_clip>:
  stan_wyjscie[0] = TRUE;
     cf8:	8f ef       	ldi	r24, 0xFF	; 255
     cfa:	80 93 42 02 	sts	0x0242, r24	; 0x800242 <stan_wyjscie>
  licznik_przelacznik_wyjscia[0] = 2 * 10ul; // 2 sekundy
     cfe:	84 e1       	ldi	r24, 0x14	; 20
     d00:	90 e0       	ldi	r25, 0x00	; 0
     d02:	a0 e0       	ldi	r26, 0x00	; 0
     d04:	b0 e0       	ldi	r27, 0x00	; 0
     d06:	80 93 a5 03 	sts	0x03A5, r24	; 0x8003a5 <licznik_przelacznik_wyjscia>
     d0a:	90 93 a6 03 	sts	0x03A6, r25	; 0x8003a6 <licznik_przelacznik_wyjscia+0x1>
     d0e:	a0 93 a7 03 	sts	0x03A7, r26	; 0x8003a7 <licznik_przelacznik_wyjscia+0x2>
     d12:	b0 93 a8 03 	sts	0x03A8, r27	; 0x8003a8 <licznik_przelacznik_wyjscia+0x3>
}
     d16:	08 95       	ret

00000d18 <wykonanie_polecenia_sms>:
void wykonanie_polecenia_sms(void) {
     d18:	cf 92       	push	r12
     d1a:	df 92       	push	r13
     d1c:	ff 92       	push	r15
     d1e:	0f 93       	push	r16
     d20:	1f 93       	push	r17
     d22:	cf 93       	push	r28
     d24:	df 93       	push	r29
     d26:	cd b7       	in	r28, 0x3d	; 61
     d28:	de b7       	in	r29, 0x3e	; 62
     d2a:	66 97       	sbiw	r28, 0x16	; 22
     d2c:	0f b6       	in	r0, 0x3f	; 63
     d2e:	f8 94       	cli
     d30:	de bf       	out	0x3e, r29	; 62
     d32:	0f be       	out	0x3f, r0	; 63
     d34:	cd bf       	out	0x3d, r28	; 61
  tekst_odebranego_smsa[MAX_LICZBA_ZNAKOW_SMS] = 0; // (1) dla pewnoci
     d36:	10 92 99 07 	sts	0x0799, r1	; 0x800799 <wysylany_blok_SIM900+0x18f>
  watchdog_sms_aktywny = TRUE;
     d3a:	8f ef       	ldi	r24, 0xFF	; 255
     d3c:	80 93 fe 01 	sts	0x01FE, r24	; 0x8001fe <watchdog_sms_aktywny>
  watchdog_sms_licznik_100ms = 0;
     d40:	10 92 fd 01 	sts	0x01FD, r1	; 0x8001fd <watchdog_sms_licznik_100ms+0x1>
     d44:	10 92 fc 01 	sts	0x01FC, r1	; 0x8001fc <watchdog_sms_licznik_100ms>
  const uchar komenda = interpretuj_wiadomosc_sms(tekst_odebranego_smsa);
     d48:	89 ef       	ldi	r24, 0xF9	; 249
     d4a:	96 e0       	ldi	r25, 0x06	; 6
     d4c:	0e 94 51 24 	call	0x48a2	; 0x48a2 <interpretuj_wiadomosc_sms>
     d50:	18 2f       	mov	r17, r24
  if (!sms_pomijaj_aktualizacje_czasu) {
     d52:	80 91 f5 01 	lds	r24, 0x01F5	; 0x8001f5 <sms_pomijaj_aktualizacje_czasu>
     d56:	81 11       	cpse	r24, r1
     d58:	60 c0       	rjmp	.+192    	; 0xe1a <wykonanie_polecenia_sms+0x102>
    sprintf(rtc_czas, "%02d:%02d:%02d", sms_timestamp_godzina,
     d5a:	80 91 f6 01 	lds	r24, 0x01F6	; 0x8001f6 <sms_timestamp_sekunda>
     d5e:	1f 92       	push	r1
     d60:	8f 93       	push	r24
     d62:	80 91 f7 01 	lds	r24, 0x01F7	; 0x8001f7 <sms_timestamp_minuta>
     d66:	1f 92       	push	r1
     d68:	8f 93       	push	r24
     d6a:	80 91 f8 01 	lds	r24, 0x01F8	; 0x8001f8 <sms_timestamp_godzina>
     d6e:	1f 92       	push	r1
     d70:	8f 93       	push	r24
     d72:	88 e3       	ldi	r24, 0x38	; 56
     d74:	91 e0       	ldi	r25, 0x01	; 1
     d76:	9f 93       	push	r25
     d78:	8f 93       	push	r24
     d7a:	8b e0       	ldi	r24, 0x0B	; 11
     d7c:	91 e0       	ldi	r25, 0x01	; 1
     d7e:	9f 93       	push	r25
     d80:	8f 93       	push	r24
     d82:	0e 94 84 2f 	call	0x5f08	; 0x5f08 <sprintf>
    sprintf(bufor_ustaw_czas, "+CCLK=\"24/01/01,%02d:%02d:%02d+04\"",
     d86:	80 91 f6 01 	lds	r24, 0x01F6	; 0x8001f6 <sms_timestamp_sekunda>
     d8a:	1f 92       	push	r1
     d8c:	8f 93       	push	r24
     d8e:	80 91 f7 01 	lds	r24, 0x01F7	; 0x8001f7 <sms_timestamp_minuta>
     d92:	1f 92       	push	r1
     d94:	8f 93       	push	r24
     d96:	80 91 f8 01 	lds	r24, 0x01F8	; 0x8001f8 <sms_timestamp_godzina>
     d9a:	1f 92       	push	r1
     d9c:	8f 93       	push	r24
     d9e:	87 e4       	ldi	r24, 0x47	; 71
     da0:	91 e0       	ldi	r25, 0x01	; 1
     da2:	9f 93       	push	r25
     da4:	8f 93       	push	r24
     da6:	89 eb       	ldi	r24, 0xB9	; 185
     da8:	97 e0       	ldi	r25, 0x07	; 7
     daa:	9f 93       	push	r25
     dac:	8f 93       	push	r24
     dae:	0e 94 84 2f 	call	0x5f08	; 0x5f08 <sprintf>
    dodaj_komende(KOMENDA_KOLEJKI_USTAW_ZEGAR_SIM900);
     db2:	8e ef       	ldi	r24, 0xFE	; 254
     db4:	0e 94 54 27 	call	0x4ea8	; 0x4ea8 <dodaj_komende>
    if (czas_start_h != 0xFF) {
     db8:	20 91 0a 01 	lds	r18, 0x010A	; 0x80010a <czas_start_h>
     dbc:	0f b6       	in	r0, 0x3f	; 63
     dbe:	f8 94       	cli
     dc0:	de bf       	out	0x3e, r29	; 62
     dc2:	0f be       	out	0x3f, r0	; 63
     dc4:	cd bf       	out	0x3d, r28	; 61
     dc6:	2f 3f       	cpi	r18, 0xFF	; 255
     dc8:	09 f4       	brne	.+2      	; 0xdcc <wykonanie_polecenia_sms+0xb4>
     dca:	5a c0       	rjmp	.+180    	; 0xe80 <wykonanie_polecenia_sms+0x168>
      int curr_time = sms_timestamp_godzina * 60 + sms_timestamp_minuta;
     dcc:	30 91 f8 01 	lds	r19, 0x01F8	; 0x8001f8 <sms_timestamp_godzina>
     dd0:	6c e3       	ldi	r22, 0x3C	; 60
     dd2:	80 91 f7 01 	lds	r24, 0x01F7	; 0x8001f7 <sms_timestamp_minuta>
     dd6:	90 e0       	ldi	r25, 0x00	; 0
     dd8:	36 9f       	mul	r19, r22
     dda:	80 0d       	add	r24, r0
     ddc:	91 1d       	adc	r25, r1
     dde:	11 24       	eor	r1, r1
      int start_time = czas_start_h * 60 + czas_start_m;
     de0:	40 91 09 01 	lds	r20, 0x0109	; 0x800109 <czas_start_m>
     de4:	50 e0       	ldi	r21, 0x00	; 0
     de6:	26 9f       	mul	r18, r22
     de8:	40 0d       	add	r20, r0
     dea:	51 1d       	adc	r21, r1
     dec:	11 24       	eor	r1, r1
      int stop_time = czas_stop_h * 60 + czas_stop_m;
     dee:	70 91 08 01 	lds	r23, 0x0108	; 0x800108 <czas_stop_h>
     df2:	20 91 07 01 	lds	r18, 0x0107	; 0x800107 <czas_stop_m>
     df6:	30 e0       	ldi	r19, 0x00	; 0
     df8:	76 9f       	mul	r23, r22
     dfa:	20 0d       	add	r18, r0
     dfc:	31 1d       	adc	r19, r1
     dfe:	11 24       	eor	r1, r1
      if (start_time <= stop_time) {
     e00:	24 17       	cp	r18, r20
     e02:	35 07       	cpc	r19, r21
     e04:	7c f1       	brlt	.+94     	; 0xe64 <wykonanie_polecenia_sms+0x14c>
            !(curr_time >= start_time && curr_time <= stop_time);
     e06:	84 17       	cp	r24, r20
     e08:	95 07       	cpc	r25, r21
     e0a:	54 f1       	brlt	.+84     	; 0xe60 <wykonanie_polecenia_sms+0x148>
     e0c:	41 e0       	ldi	r20, 0x01	; 1
     e0e:	28 17       	cp	r18, r24
     e10:	39 07       	cpc	r19, r25
     e12:	0c f0       	brlt	.+2      	; 0xe16 <wykonanie_polecenia_sms+0xfe>
     e14:	40 e0       	ldi	r20, 0x00	; 0
        blokada_sterowania_czasowa =
     e16:	40 93 3f 02 	sts	0x023F, r20	; 0x80023f <blokada_sterowania_czasowa>
  sms_pomijaj_aktualizacje_czasu = FALSE;
     e1a:	10 92 f5 01 	sts	0x01F5, r1	; 0x8001f5 <sms_pomijaj_aktualizacje_czasu>
  if (blokada_systemu) {
     e1e:	80 91 e2 01 	lds	r24, 0x01E2	; 0x8001e2 <blokada_systemu>
     e22:	88 23       	and	r24, r24
     e24:	81 f1       	breq	.+96     	; 0xe86 <wykonanie_polecenia_sms+0x16e>
    if (komenda != INTERPRETACJA_SMS_POPRAWNY && // START/STOP zwracaja POPRAWNY
     e26:	8d ef       	ldi	r24, 0xFD	; 253
     e28:	81 0f       	add	r24, r17
     e2a:	82 30       	cpi	r24, 0x02	; 2
     e2c:	60 f1       	brcs	.+88     	; 0xe86 <wykonanie_polecenia_sms+0x16e>
      if (eeprom_read_byte((const uint8_t *)ADRES_EEPROM_BLOKADA_SYSTEMU) ==
     e2e:	87 ef       	ldi	r24, 0xF7	; 247
     e30:	9f e0       	ldi	r25, 0x0F	; 15
     e32:	0e 94 7e 32 	call	0x64fc	; 0x64fc <eeprom_read_byte>
     e36:	81 30       	cpi	r24, 0x01	; 1
     e38:	31 f5       	brne	.+76     	; 0xe86 <wykonanie_polecenia_sms+0x16e>
        zapisz_debug_do_eeprom(1, 2); // Debug: Odrzucono przez blokade
     e3a:	62 e0       	ldi	r22, 0x02	; 2
     e3c:	0e 94 9e 03 	call	0x73c	; 0x73c <zapisz_debug_do_eeprom>
        usun_zablokowany_sms();
     e40:	0e 94 59 03 	call	0x6b2	; 0x6b2 <usun_zablokowany_sms>
}
     e44:	66 96       	adiw	r28, 0x16	; 22
     e46:	0f b6       	in	r0, 0x3f	; 63
     e48:	f8 94       	cli
     e4a:	de bf       	out	0x3e, r29	; 62
     e4c:	0f be       	out	0x3f, r0	; 63
     e4e:	cd bf       	out	0x3d, r28	; 61
     e50:	df 91       	pop	r29
     e52:	cf 91       	pop	r28
     e54:	1f 91       	pop	r17
     e56:	0f 91       	pop	r16
     e58:	ff 90       	pop	r15
     e5a:	df 90       	pop	r13
     e5c:	cf 90       	pop	r12
     e5e:	08 95       	ret
            !(curr_time >= start_time && curr_time <= stop_time);
     e60:	41 e0       	ldi	r20, 0x01	; 1
     e62:	d9 cf       	rjmp	.-78     	; 0xe16 <wykonanie_polecenia_sms+0xfe>
            !(curr_time >= start_time || curr_time <= stop_time);
     e64:	84 17       	cp	r24, r20
     e66:	95 07       	cpc	r25, r21
     e68:	4c f4       	brge	.+18     	; 0xe7c <wykonanie_polecenia_sms+0x164>
     e6a:	41 e0       	ldi	r20, 0x01	; 1
     e6c:	28 17       	cp	r18, r24
     e6e:	39 07       	cpc	r19, r25
     e70:	0c f0       	brlt	.+2      	; 0xe74 <wykonanie_polecenia_sms+0x15c>
     e72:	40 e0       	ldi	r20, 0x00	; 0
     e74:	84 2f       	mov	r24, r20
        blokada_sterowania_czasowa =
     e76:	80 93 3f 02 	sts	0x023F, r24	; 0x80023f <blokada_sterowania_czasowa>
     e7a:	cf cf       	rjmp	.-98     	; 0xe1a <wykonanie_polecenia_sms+0x102>
            !(curr_time >= start_time || curr_time <= stop_time);
     e7c:	80 e0       	ldi	r24, 0x00	; 0
     e7e:	fb cf       	rjmp	.-10     	; 0xe76 <wykonanie_polecenia_sms+0x15e>
      blokada_sterowania_czasowa = FALSE;
     e80:	10 92 3f 02 	sts	0x023F, r1	; 0x80023f <blokada_sterowania_czasowa>
     e84:	ca cf       	rjmp	.-108    	; 0xe1a <wykonanie_polecenia_sms+0x102>
  if (komenda == INTERPRETACJA_SMS_RAPORT ||
     e86:	8c ef       	ldi	r24, 0xFC	; 252
     e88:	81 0f       	add	r24, r17
     e8a:	82 30       	cpi	r24, 0x02	; 2
     e8c:	78 f4       	brcc	.+30     	; 0xeac <wykonanie_polecenia_sms+0x194>
    if (licznik_report_user >= MAX_LICZBA_KOMEND_REPORT_USER_W_OKNIE) {
     e8e:	80 91 35 02 	lds	r24, 0x0235	; 0x800235 <licznik_report_user>
     e92:	88 30       	cpi	r24, 0x08	; 8
     e94:	58 f0       	brcs	.+22     	; 0xeac <wykonanie_polecenia_sms+0x194>
      zapisz_debug_do_eeprom(1, 1);
     e96:	61 e0       	ldi	r22, 0x01	; 1
     e98:	81 e0       	ldi	r24, 0x01	; 1
     e9a:	0e 94 9e 03 	call	0x73c	; 0x73c <zapisz_debug_do_eeprom>
      usun_zablokowany_sms();
     e9e:	0e 94 59 03 	call	0x6b2	; 0x6b2 <usun_zablokowany_sms>
      zareaguj_na_usuniety_sms_z_powodu_limitu();
     ea2:	0e 94 63 03 	call	0x6c6	; 0x6c6 <zareaguj_na_usuniety_sms_z_powodu_limitu>
  watchdog_sms_disarm();
     ea6:	0e 94 32 03 	call	0x664	; 0x664 <watchdog_sms_disarm>
     eaa:	cc cf       	rjmp	.-104    	; 0xe44 <wykonanie_polecenia_sms+0x12c>
  if (flaga_wysylanie_smsa) {
     eac:	80 91 0d 02 	lds	r24, 0x020D	; 0x80020d <flaga_wysylanie_smsa>
     eb0:	81 11       	cpse	r24, r1
     eb2:	f1 cf       	rjmp	.-30     	; 0xe96 <wykonanie_polecenia_sms+0x17e>
     eb4:	eb e9       	ldi	r30, 0x9B	; 155
     eb6:	f7 e0       	ldi	r31, 0x07	; 7
  uchar liczba_wszystkich_komend = 0;
     eb8:	20 e0       	ldi	r18, 0x00	; 0
  uchar liczba_sms_w_kolejce = 0;
     eba:	90 e0       	ldi	r25, 0x00	; 0
    if (komendy_kolejka[i] != KOMENDA_KOLEJKI_BRAK_KOMENDY) {
     ebc:	81 91       	ld	r24, Z+
     ebe:	88 23       	and	r24, r24
     ec0:	29 f0       	breq	.+10     	; 0xecc <wykonanie_polecenia_sms+0x1b4>
      ++liczba_wszystkich_komend;
     ec2:	2f 5f       	subi	r18, 0xFF	; 255
      if (komendy_kolejka[i] >= KOMENDA_KOLEJKI_WYSLIJ_SMSA_TEXT &&
     ec4:	83 5d       	subi	r24, 0xD3	; 211
     ec6:	82 30       	cpi	r24, 0x02	; 2
     ec8:	08 f4       	brcc	.+2      	; 0xecc <wykonanie_polecenia_sms+0x1b4>
        ++liczba_sms_w_kolejce;
     eca:	9f 5f       	subi	r25, 0xFF	; 255
  for (uchar i = 0; i < LICZBA_KOMEND; ++i) {
     ecc:	87 e0       	ldi	r24, 0x07	; 7
     ece:	e9 3b       	cpi	r30, 0xB9	; 185
     ed0:	f8 07       	cpc	r31, r24
     ed2:	a1 f7       	brne	.-24     	; 0xebc <wykonanie_polecenia_sms+0x1a4>
  if (liczba_wszystkich_komend >= 35) {
     ed4:	23 32       	cpi	r18, 0x23	; 35
     ed6:	f8 f6       	brcc	.-66     	; 0xe96 <wykonanie_polecenia_sms+0x17e>
  if (liczba_sms_w_kolejce >= 6) {
     ed8:	96 30       	cpi	r25, 0x06	; 6
     eda:	e8 f6       	brcc	.-70     	; 0xe96 <wykonanie_polecenia_sms+0x17e>
  switch (komenda) {
     edc:	1c 30       	cpi	r17, 0x0C	; 12
     ede:	18 f7       	brcc	.-58     	; 0xea6 <wykonanie_polecenia_sms+0x18e>
     ee0:	e1 2f       	mov	r30, r17
     ee2:	f0 e0       	ldi	r31, 0x00	; 0
     ee4:	ea 58       	subi	r30, 0x8A	; 138
     ee6:	f8 4f       	sbci	r31, 0xF8	; 248
     ee8:	0c 94 74 2c 	jmp	0x58e8	; 0x58e8 <__tablejump2__>
     eec:	82 07       	cpc	r24, r18
     eee:	53 07       	cpc	r21, r19
     ef0:	53 07       	cpc	r21, r19
     ef2:	bc 08       	sbc	r11, r12
     ef4:	8c 07       	cpc	r24, r28
     ef6:	c2 08       	sbc	r12, r2
     ef8:	2f 09       	sbc	r18, r15
     efa:	3a 09       	sbc	r19, r10
     efc:	aa 07       	cpc	r26, r26
     efe:	53 07       	cpc	r21, r19
     f00:	53 07       	cpc	r21, r19
     f02:	44 09       	sbc	r20, r4
    zapal_diode_led_blyski(1); // Odbior zwyklego SMS (bez kodu) - 1 blysk
     f04:	81 e0       	ldi	r24, 0x01	; 1
     f06:	80 93 ed 01 	sts	0x01ED, r24	; 0x8001ed <liczba_blyskow_led>
     f0a:	10 92 ec 01 	sts	0x01EC, r1	; 0x8001ec <stan_cyklu_blysku>
    zapisz_debug_do_eeprom(0, 3);
     f0e:	63 e0       	ldi	r22, 0x03	; 3
     f10:	80 e0       	ldi	r24, 0x00	; 0
    zapisz_debug_do_eeprom(1, 0);
     f12:	0e 94 9e 03 	call	0x73c	; 0x73c <zapisz_debug_do_eeprom>
    break;
     f16:	c7 cf       	rjmp	.-114    	; 0xea6 <wykonanie_polecenia_sms+0x18e>
    ++licznik_report_user;
     f18:	80 91 35 02 	lds	r24, 0x0235	; 0x800235 <licznik_report_user>
     f1c:	8f 5f       	subi	r24, 0xFF	; 255
     f1e:	80 93 35 02 	sts	0x0235, r24	; 0x800235 <licznik_report_user>
    timer_report_user_100ms = OKNO_CZASOWE_REPORT_USER_100MS;
     f22:	8c e2       	ldi	r24, 0x2C	; 44
     f24:	91 e0       	ldi	r25, 0x01	; 1
     f26:	90 93 34 02 	sts	0x0234, r25	; 0x800234 <timer_report_user_100ms+0x1>
     f2a:	80 93 33 02 	sts	0x0233, r24	; 0x800233 <timer_report_user_100ms>
    strcpy((char *)numer_telefonu_wysylanego_smsa,
     f2e:	6a e3       	ldi	r22, 0x3A	; 58
     f30:	73 e0       	ldi	r23, 0x03	; 3
     f32:	80 e5       	ldi	r24, 0x50	; 80
     f34:	92 e0       	ldi	r25, 0x02	; 2
     f36:	0e 94 63 2f 	call	0x5ec6	; 0x5ec6 <strcpy>
    generuj_raport_stanu_urzadzenia();
     f3a:	0e 94 8e 05 	call	0xb1c	; 0xb1c <generuj_raport_stanu_urzadzenia>
    dodaj_komende(KOMENDA_KOLEJKI_WYSLIJ_SMSA_TEXT);
     f3e:	83 ed       	ldi	r24, 0xD3	; 211
     f40:	0e 94 54 27 	call	0x4ea8	; 0x4ea8 <dodaj_komende>
    zapal_diode_led_blyski(2); // Komenda REPORT - 2 blyski
     f44:	82 e0       	ldi	r24, 0x02	; 2
     f46:	80 93 ed 01 	sts	0x01ED, r24	; 0x8001ed <liczba_blyskow_led>
     f4a:	10 92 ec 01 	sts	0x01EC, r1	; 0x8001ec <stan_cyklu_blysku>
    zapisz_debug_do_eeprom(1, 0);
     f4e:	60 e0       	ldi	r22, 0x00	; 0
     f50:	81 e0       	ldi	r24, 0x01	; 1
     f52:	df cf       	rjmp	.-66     	; 0xf12 <wykonanie_polecenia_sms+0x1fa>
    strcpy_P((char *)tekst_wysylanego_smsa, PSTR("DEBUG\n"));
     f54:	69 e9       	ldi	r22, 0x99	; 153
     f56:	72 e0       	ldi	r23, 0x02	; 2
     f58:	89 e6       	ldi	r24, 0x69	; 105
     f5a:	95 e0       	ldi	r25, 0x05	; 5
     f5c:	0e 94 e9 2e 	call	0x5dd2	; 0x5dd2 <strcpy_P>
    uchar *sms = tekst_wysylanego_smsa + strlen((char *)tekst_wysylanego_smsa);
     f60:	09 e6       	ldi	r16, 0x69	; 105
     f62:	15 e0       	ldi	r17, 0x05	; 5
     f64:	f8 01       	movw	r30, r16
     f66:	01 90       	ld	r0, Z+
     f68:	00 20       	and	r0, r0
     f6a:	e9 f7       	brne	.-6      	; 0xf66 <wykonanie_polecenia_sms+0x24e>
     f6c:	8f 01       	movw	r16, r30
     f6e:	01 50       	subi	r16, 0x01	; 1
     f70:	11 09       	sbc	r17, r1
    strcpy_P((char *)sms, PSTR("SKRYBA:"));
     f72:	61 e9       	ldi	r22, 0x91	; 145
     f74:	72 e0       	ldi	r23, 0x02	; 2
     f76:	c8 01       	movw	r24, r16
     f78:	0e 94 e9 2e 	call	0x5dd2	; 0x5dd2 <strcpy_P>
    sms += strlen((char *)sms);
     f7c:	f8 01       	movw	r30, r16
     f7e:	01 90       	ld	r0, Z+
     f80:	00 20       	and	r0, r0
     f82:	e9 f7       	brne	.-6      	; 0xf7e <wykonanie_polecenia_sms+0x266>
     f84:	cf 01       	movw	r24, r30
     f86:	01 97       	sbiw	r24, 0x01	; 1
     f88:	6c 01       	movw	r12, r24
        '0' + eeprom_read_byte((const uint8_t *)ADRES_EEPROM_DEBUG_SKRYBA_2);
     f8a:	81 ef       	ldi	r24, 0xF1	; 241
     f8c:	9f e0       	ldi	r25, 0x0F	; 15
     f8e:	0e 94 7e 32 	call	0x64fc	; 0x64fc <eeprom_read_byte>
     f92:	80 5d       	subi	r24, 0xD0	; 208
    *sms++ =
     f94:	f6 01       	movw	r30, r12
     f96:	80 83       	st	Z, r24
        '0' + eeprom_read_byte((const uint8_t *)ADRES_EEPROM_DEBUG_SKRYBA_3);
     f98:	82 ef       	ldi	r24, 0xF2	; 242
     f9a:	9f e0       	ldi	r25, 0x0F	; 15
     f9c:	0e 94 7e 32 	call	0x64fc	; 0x64fc <eeprom_read_byte>
     fa0:	80 5d       	subi	r24, 0xD0	; 208
    *sms++ =
     fa2:	f6 01       	movw	r30, r12
     fa4:	81 83       	std	Z+1, r24	; 0x01
        '0' + eeprom_read_byte((const uint8_t *)ADRES_EEPROM_DEBUG_SKRYBA_4);
     fa6:	83 ef       	ldi	r24, 0xF3	; 243
     fa8:	9f e0       	ldi	r25, 0x0F	; 15
     faa:	0e 94 7e 32 	call	0x64fc	; 0x64fc <eeprom_read_byte>
     fae:	80 5d       	subi	r24, 0xD0	; 208
    *sms++ =
     fb0:	f6 01       	movw	r30, r12
     fb2:	82 83       	std	Z+2, r24	; 0x02
        '0' + eeprom_read_byte((const uint8_t *)ADRES_EEPROM_DEBUG_SKRYBA_5);
     fb4:	84 ef       	ldi	r24, 0xF4	; 244
     fb6:	9f e0       	ldi	r25, 0x0F	; 15
     fb8:	0e 94 7e 32 	call	0x64fc	; 0x64fc <eeprom_read_byte>
     fbc:	80 5d       	subi	r24, 0xD0	; 208
    *sms++ =
     fbe:	f6 01       	movw	r30, r12
     fc0:	83 83       	std	Z+3, r24	; 0x03
    *sms++ = '\n';
     fc2:	86 01       	movw	r16, r12
     fc4:	0b 5f       	subi	r16, 0xFB	; 251
     fc6:	1f 4f       	sbci	r17, 0xFF	; 255
     fc8:	9a e0       	ldi	r25, 0x0A	; 10
     fca:	f9 2e       	mov	r15, r25
     fcc:	f4 82       	std	Z+4, r15	; 0x04
    strcpy_P((char *)sms, PSTR("U1="));
     fce:	6d e8       	ldi	r22, 0x8D	; 141
     fd0:	72 e0       	ldi	r23, 0x02	; 2
     fd2:	c8 01       	movw	r24, r16
     fd4:	0e 94 e9 2e 	call	0x5dd2	; 0x5dd2 <strcpy_P>
    sms += strlen((char *)sms);
     fd8:	f8 01       	movw	r30, r16
     fda:	01 90       	ld	r0, Z+
     fdc:	00 20       	and	r0, r0
     fde:	e9 f7       	brne	.-6      	; 0xfda <wykonanie_polecenia_sms+0x2c2>
     fe0:	8f 01       	movw	r16, r30
     fe2:	01 50       	subi	r16, 0x01	; 1
     fe4:	11 09       	sbc	r17, r1
    utoa(eeprom_read_byte((const uint8_t *)ADRES_EEPROM_DEBUG_USER_1), sms, 10);
     fe6:	86 ee       	ldi	r24, 0xE6	; 230
     fe8:	9f e0       	ldi	r25, 0x0F	; 15
     fea:	0e 94 7e 32 	call	0x64fc	; 0x64fc <eeprom_read_byte>
     fee:	4a e0       	ldi	r20, 0x0A	; 10
     ff0:	b8 01       	movw	r22, r16
     ff2:	90 e0       	ldi	r25, 0x00	; 0
     ff4:	0e 94 6a 2f 	call	0x5ed4	; 0x5ed4 <__utoa_ncheck>
    sms += strlen((char *)sms);
     ff8:	f8 01       	movw	r30, r16
     ffa:	01 90       	ld	r0, Z+
     ffc:	00 20       	and	r0, r0
     ffe:	e9 f7       	brne	.-6      	; 0xffa <wykonanie_polecenia_sms+0x2e2>
    1000:	8f 01       	movw	r16, r30
    1002:	01 50       	subi	r16, 0x01	; 1
    1004:	11 09       	sbc	r17, r1
    strcpy_P((char *)sms, PSTR(" U2="));
    1006:	68 e8       	ldi	r22, 0x88	; 136
    1008:	72 e0       	ldi	r23, 0x02	; 2
    100a:	c8 01       	movw	r24, r16
    100c:	0e 94 e9 2e 	call	0x5dd2	; 0x5dd2 <strcpy_P>
    sms += strlen((char *)sms);
    1010:	f8 01       	movw	r30, r16
    1012:	01 90       	ld	r0, Z+
    1014:	00 20       	and	r0, r0
    1016:	e9 f7       	brne	.-6      	; 0x1012 <__EEPROM_REGION_LENGTH__+0x12>
    1018:	8f 01       	movw	r16, r30
    101a:	01 50       	subi	r16, 0x01	; 1
    101c:	11 09       	sbc	r17, r1
    utoa(eeprom_read_byte((const uint8_t *)ADRES_EEPROM_DEBUG_USER_2), sms, 10);
    101e:	87 ee       	ldi	r24, 0xE7	; 231
    1020:	9f e0       	ldi	r25, 0x0F	; 15
    1022:	0e 94 7e 32 	call	0x64fc	; 0x64fc <eeprom_read_byte>
    1026:	4a e0       	ldi	r20, 0x0A	; 10
    1028:	b8 01       	movw	r22, r16
    102a:	90 e0       	ldi	r25, 0x00	; 0
    102c:	0e 94 6a 2f 	call	0x5ed4	; 0x5ed4 <__utoa_ncheck>
    sms += strlen((char *)sms);
    1030:	f8 01       	movw	r30, r16
    1032:	01 90       	ld	r0, Z+
    1034:	00 20       	and	r0, r0
    1036:	e9 f7       	brne	.-6      	; 0x1032 <__EEPROM_REGION_LENGTH__+0x32>
    1038:	8f 01       	movw	r16, r30
    103a:	01 50       	subi	r16, 0x01	; 1
    103c:	11 09       	sbc	r17, r1
    strcpy_P((char *)sms, PSTR(" U3="));
    103e:	63 e8       	ldi	r22, 0x83	; 131
    1040:	72 e0       	ldi	r23, 0x02	; 2
    1042:	c8 01       	movw	r24, r16
    1044:	0e 94 e9 2e 	call	0x5dd2	; 0x5dd2 <strcpy_P>
    sms += strlen((char *)sms);
    1048:	f8 01       	movw	r30, r16
    104a:	01 90       	ld	r0, Z+
    104c:	00 20       	and	r0, r0
    104e:	e9 f7       	brne	.-6      	; 0x104a <__EEPROM_REGION_LENGTH__+0x4a>
    1050:	8f 01       	movw	r16, r30
    1052:	01 50       	subi	r16, 0x01	; 1
    1054:	11 09       	sbc	r17, r1
    utoa(eeprom_read_byte((const uint8_t *)ADRES_EEPROM_DEBUG_USER_3), sms, 10);
    1056:	88 ee       	ldi	r24, 0xE8	; 232
    1058:	9f e0       	ldi	r25, 0x0F	; 15
    105a:	0e 94 7e 32 	call	0x64fc	; 0x64fc <eeprom_read_byte>
    105e:	4a e0       	ldi	r20, 0x0A	; 10
    1060:	b8 01       	movw	r22, r16
    1062:	90 e0       	ldi	r25, 0x00	; 0
    1064:	0e 94 6a 2f 	call	0x5ed4	; 0x5ed4 <__utoa_ncheck>
    sms += strlen((char *)sms);
    1068:	f8 01       	movw	r30, r16
    106a:	01 90       	ld	r0, Z+
    106c:	00 20       	and	r0, r0
    106e:	e9 f7       	brne	.-6      	; 0x106a <__EEPROM_REGION_LENGTH__+0x6a>
    1070:	31 97       	sbiw	r30, 0x01	; 1
    *sms++ = '\n';
    1072:	8f 01       	movw	r16, r30
    1074:	0f 5f       	subi	r16, 0xFF	; 255
    1076:	1f 4f       	sbci	r17, 0xFF	; 255
    1078:	f0 82       	st	Z, r15
    strcpy_P((char *)sms, PSTR("U4="));
    107a:	6f e7       	ldi	r22, 0x7F	; 127
    107c:	72 e0       	ldi	r23, 0x02	; 2
    107e:	c8 01       	movw	r24, r16
    1080:	0e 94 e9 2e 	call	0x5dd2	; 0x5dd2 <strcpy_P>
    sms += strlen((char *)sms);
    1084:	f8 01       	movw	r30, r16
    1086:	01 90       	ld	r0, Z+
    1088:	00 20       	and	r0, r0
    108a:	e9 f7       	brne	.-6      	; 0x1086 <__EEPROM_REGION_LENGTH__+0x86>
    108c:	8f 01       	movw	r16, r30
    108e:	01 50       	subi	r16, 0x01	; 1
    1090:	11 09       	sbc	r17, r1
    utoa(eeprom_read_byte((const uint8_t *)ADRES_EEPROM_DEBUG_USER_4), sms, 10);
    1092:	89 ee       	ldi	r24, 0xE9	; 233
    1094:	9f e0       	ldi	r25, 0x0F	; 15
    1096:	0e 94 7e 32 	call	0x64fc	; 0x64fc <eeprom_read_byte>
    109a:	4a e0       	ldi	r20, 0x0A	; 10
    109c:	b8 01       	movw	r22, r16
    109e:	90 e0       	ldi	r25, 0x00	; 0
    10a0:	0e 94 6a 2f 	call	0x5ed4	; 0x5ed4 <__utoa_ncheck>
    sms += strlen((char *)sms);
    10a4:	f8 01       	movw	r30, r16
    10a6:	01 90       	ld	r0, Z+
    10a8:	00 20       	and	r0, r0
    10aa:	e9 f7       	brne	.-6      	; 0x10a6 <__EEPROM_REGION_LENGTH__+0xa6>
    10ac:	8f 01       	movw	r16, r30
    10ae:	01 50       	subi	r16, 0x01	; 1
    10b0:	11 09       	sbc	r17, r1
    strcpy_P((char *)sms, PSTR(" U5="));
    10b2:	6a e7       	ldi	r22, 0x7A	; 122
    10b4:	72 e0       	ldi	r23, 0x02	; 2
    10b6:	c8 01       	movw	r24, r16
    10b8:	0e 94 e9 2e 	call	0x5dd2	; 0x5dd2 <strcpy_P>
    sms += strlen((char *)sms);
    10bc:	f8 01       	movw	r30, r16
    10be:	01 90       	ld	r0, Z+
    10c0:	00 20       	and	r0, r0
    10c2:	e9 f7       	brne	.-6      	; 0x10be <__EEPROM_REGION_LENGTH__+0xbe>
    10c4:	8f 01       	movw	r16, r30
    10c6:	01 50       	subi	r16, 0x01	; 1
    10c8:	11 09       	sbc	r17, r1
    utoa(eeprom_read_byte((const uint8_t *)ADRES_EEPROM_DEBUG_USER_5), sms, 10);
    10ca:	8a ee       	ldi	r24, 0xEA	; 234
    10cc:	9f e0       	ldi	r25, 0x0F	; 15
    10ce:	0e 94 7e 32 	call	0x64fc	; 0x64fc <eeprom_read_byte>
    10d2:	4a e0       	ldi	r20, 0x0A	; 10
    10d4:	b8 01       	movw	r22, r16
    10d6:	90 e0       	ldi	r25, 0x00	; 0
    10d8:	0e 94 6a 2f 	call	0x5ed4	; 0x5ed4 <__utoa_ncheck>
    sms += strlen((char *)sms);
    10dc:	f8 01       	movw	r30, r16
    10de:	01 90       	ld	r0, Z+
    10e0:	00 20       	and	r0, r0
    10e2:	e9 f7       	brne	.-6      	; 0x10de <__EEPROM_REGION_LENGTH__+0xde>
    10e4:	8f 01       	movw	r16, r30
    10e6:	01 50       	subi	r16, 0x01	; 1
    10e8:	11 09       	sbc	r17, r1
    strcpy_P((char *)sms, PSTR(" U6="));
    10ea:	65 e7       	ldi	r22, 0x75	; 117
    10ec:	72 e0       	ldi	r23, 0x02	; 2
    10ee:	c8 01       	movw	r24, r16
    10f0:	0e 94 e9 2e 	call	0x5dd2	; 0x5dd2 <strcpy_P>
    sms += strlen((char *)sms);
    10f4:	f8 01       	movw	r30, r16
    10f6:	01 90       	ld	r0, Z+
    10f8:	00 20       	and	r0, r0
    10fa:	e9 f7       	brne	.-6      	; 0x10f6 <__EEPROM_REGION_LENGTH__+0xf6>
    10fc:	8f 01       	movw	r16, r30
    10fe:	01 50       	subi	r16, 0x01	; 1
    1100:	11 09       	sbc	r17, r1
    utoa(eeprom_read_byte((const uint8_t *)ADRES_EEPROM_DEBUG_USER_6), sms, 10);
    1102:	8b ee       	ldi	r24, 0xEB	; 235
    1104:	9f e0       	ldi	r25, 0x0F	; 15
    1106:	0e 94 7e 32 	call	0x64fc	; 0x64fc <eeprom_read_byte>
    110a:	4a e0       	ldi	r20, 0x0A	; 10
    110c:	b8 01       	movw	r22, r16
    110e:	90 e0       	ldi	r25, 0x00	; 0
    1110:	0e 94 6a 2f 	call	0x5ed4	; 0x5ed4 <__utoa_ncheck>
    sms += strlen((char *)sms);
    1114:	f8 01       	movw	r30, r16
    1116:	01 90       	ld	r0, Z+
    1118:	00 20       	and	r0, r0
    111a:	e9 f7       	brne	.-6      	; 0x1116 <__EEPROM_REGION_LENGTH__+0x116>
    111c:	8f 01       	movw	r16, r30
    111e:	01 50       	subi	r16, 0x01	; 1
    1120:	11 09       	sbc	r17, r1
    strcpy_P((char *)sms, PSTR(" U7="));
    1122:	60 e7       	ldi	r22, 0x70	; 112
    1124:	72 e0       	ldi	r23, 0x02	; 2
    1126:	c8 01       	movw	r24, r16
    1128:	0e 94 e9 2e 	call	0x5dd2	; 0x5dd2 <strcpy_P>
    sms += strlen((char *)sms);
    112c:	f8 01       	movw	r30, r16
    112e:	01 90       	ld	r0, Z+
    1130:	00 20       	and	r0, r0
    1132:	e9 f7       	brne	.-6      	; 0x112e <__EEPROM_REGION_LENGTH__+0x12e>
    1134:	8f 01       	movw	r16, r30
    1136:	01 50       	subi	r16, 0x01	; 1
    1138:	11 09       	sbc	r17, r1
    utoa(eeprom_read_byte((const uint8_t *)ADRES_EEPROM_DEBUG_USER_7), sms, 10);
    113a:	8c ee       	ldi	r24, 0xEC	; 236
    113c:	9f e0       	ldi	r25, 0x0F	; 15
    113e:	0e 94 7e 32 	call	0x64fc	; 0x64fc <eeprom_read_byte>
    1142:	4a e0       	ldi	r20, 0x0A	; 10
    1144:	b8 01       	movw	r22, r16
    1146:	90 e0       	ldi	r25, 0x00	; 0
    1148:	0e 94 6a 2f 	call	0x5ed4	; 0x5ed4 <__utoa_ncheck>
    sms += strlen((char *)sms);
    114c:	f8 01       	movw	r30, r16
    114e:	01 90       	ld	r0, Z+
    1150:	00 20       	and	r0, r0
    1152:	e9 f7       	brne	.-6      	; 0x114e <__EEPROM_REGION_LENGTH__+0x14e>
    1154:	cf 01       	movw	r24, r30
    *sms++ = '\n';
    1156:	01 97       	sbiw	r24, 0x01	; 1
    1158:	fc 01       	movw	r30, r24
    115a:	f1 92       	st	Z+, r15
    115c:	cf 01       	movw	r24, r30
    strcpy_P((char *)sms, PSTR("1=RCV 2=BSY 3=CNT 4=QSM 5=QAL 6=FND 7=ADD"));
    115e:	66 e4       	ldi	r22, 0x46	; 70
    1160:	72 e0       	ldi	r23, 0x02	; 2
    1162:	0e 94 e9 2e 	call	0x5dd2	; 0x5dd2 <strcpy_P>
    strcpy((char *)numer_telefonu_wysylanego_smsa,
    1166:	6a e3       	ldi	r22, 0x3A	; 58
    1168:	73 e0       	ldi	r23, 0x03	; 3
    116a:	80 e5       	ldi	r24, 0x50	; 80
    116c:	92 e0       	ldi	r25, 0x02	; 2
    116e:	0e 94 63 2f 	call	0x5ec6	; 0x5ec6 <strcpy>
    dodaj_komende(KOMENDA_KOLEJKI_WYSLIJ_SMSA_TEXT);
    1172:	83 ed       	ldi	r24, 0xD3	; 211
    1174:	0e 94 54 27 	call	0x4ea8	; 0x4ea8 <dodaj_komende>
    zapal_diode_led_blyski(2);
    1178:	82 e0       	ldi	r24, 0x02	; 2
    117a:	80 93 ed 01 	sts	0x01ED, r24	; 0x8001ed <liczba_blyskow_led>
    117e:	10 92 ec 01 	sts	0x01EC, r1	; 0x8001ec <stan_cyklu_blysku>
    break;
    1182:	91 ce       	rjmp	.-734    	; 0xea6 <wykonanie_polecenia_sms+0x18e>
    ++licznik_report_user;
    1184:	80 91 35 02 	lds	r24, 0x0235	; 0x800235 <licznik_report_user>
    1188:	8f 5f       	subi	r24, 0xFF	; 255
    118a:	80 93 35 02 	sts	0x0235, r24	; 0x800235 <licznik_report_user>
    timer_report_user_100ms = OKNO_CZASOWE_REPORT_USER_100MS;
    118e:	8c e2       	ldi	r24, 0x2C	; 44
    1190:	91 e0       	ldi	r25, 0x01	; 1
    1192:	90 93 34 02 	sts	0x0234, r25	; 0x800234 <timer_report_user_100ms+0x1>
    1196:	80 93 33 02 	sts	0x0233, r24	; 0x800233 <timer_report_user_100ms>
    strcpy((char *)numer_telefonu_wysylanego_smsa,
    119a:	6a e3       	ldi	r22, 0x3A	; 58
    119c:	73 e0       	ldi	r23, 0x03	; 3
    119e:	80 e5       	ldi	r24, 0x50	; 80
    11a0:	92 e0       	ldi	r25, 0x02	; 2
    11a2:	0e 94 63 2f 	call	0x5ec6	; 0x5ec6 <strcpy>
        &numer_telefonu_do_ktorego_dzwonic[strlen(
    11a6:	6b e4       	ldi	r22, 0x4B	; 75
    11a8:	73 e0       	ldi	r23, 0x03	; 3
    11aa:	fb 01       	movw	r30, r22
    11ac:	01 90       	ld	r0, Z+
    11ae:	00 20       	and	r0, r0
    11b0:	e9 f7       	brne	.-6      	; 0x11ac <__EEPROM_REGION_LENGTH__+0x1ac>
    11b2:	bf 01       	movw	r22, r30
    11b4:	61 50       	subi	r22, 0x01	; 1
    11b6:	71 09       	sbc	r23, r1
    konwertuj_telefon_na_blok_eeprom(
    11b8:	ae 01       	movw	r20, r28
    11ba:	4e 5e       	subi	r20, 0xEE	; 238
    11bc:	5f 4f       	sbci	r21, 0xFF	; 255
    11be:	8b e4       	ldi	r24, 0x4B	; 75
    11c0:	93 e0       	ldi	r25, 0x03	; 3
    11c2:	0e 94 bf 27 	call	0x4f7e	; 0x4f7e <konwertuj_telefon_na_blok_eeprom>
    11c6:	88 e0       	ldi	r24, 0x08	; 8
    11c8:	c8 2e       	mov	r12, r24
    11ca:	d1 2c       	mov	r13, r1
      if (porownaj_numer_telefonu_blok(
    11cc:	b6 01       	movw	r22, r12
    11ce:	ce 01       	movw	r24, r28
    11d0:	42 96       	adiw	r24, 0x12	; 18
    11d2:	0e 94 94 28 	call	0x5128	; 0x5128 <porownaj_numer_telefonu_blok>
    11d6:	18 2f       	mov	r17, r24
    11d8:	81 11       	cpse	r24, r1
    11da:	3f c0       	rjmp	.+126    	; 0x125a <__EEPROM_REGION_LENGTH__+0x25a>
    11dc:	f5 e0       	ldi	r31, 0x05	; 5
    11de:	cf 0e       	add	r12, r31
    11e0:	d1 1c       	adc	r13, r1
    for (uint nr_uzyt_clip = 0;
    11e2:	88 ea       	ldi	r24, 0xA8	; 168
    11e4:	c8 16       	cp	r12, r24
    11e6:	8f e0       	ldi	r24, 0x0F	; 15
    11e8:	d8 06       	cpc	r13, r24
    11ea:	81 f7       	brne	.-32     	; 0x11cc <__EEPROM_REGION_LENGTH__+0x1cc>
    konwertuj_blok_eeprom_na_telefon(temp_buf, numer_z_eeprom,
    11ec:	41 e1       	ldi	r20, 0x11	; 17
    11ee:	be 01       	movw	r22, r28
    11f0:	6f 5f       	subi	r22, 0xFF	; 255
    11f2:	7f 4f       	sbci	r23, 0xFF	; 255
    11f4:	ce 01       	movw	r24, r28
    11f6:	42 96       	adiw	r24, 0x12	; 18
    11f8:	0e 94 08 28 	call	0x5010	; 0x5010 <konwertuj_blok_eeprom_na_telefon>
    strcpy((char *)tekst_wysylanego_smsa, (char *)numer_z_eeprom);
    11fc:	be 01       	movw	r22, r28
    11fe:	6f 5f       	subi	r22, 0xFF	; 255
    1200:	7f 4f       	sbci	r23, 0xFF	; 255
    1202:	89 e6       	ldi	r24, 0x69	; 105
    1204:	95 e0       	ldi	r25, 0x05	; 5
    1206:	0e 94 63 2f 	call	0x5ec6	; 0x5ec6 <strcpy>
    strcat((char *)tekst_wysylanego_smsa, ": ");
    120a:	6a e6       	ldi	r22, 0x6A	; 106
    120c:	71 e0       	ldi	r23, 0x01	; 1
    120e:	89 e6       	ldi	r24, 0x69	; 105
    1210:	95 e0       	ldi	r25, 0x05	; 5
    1212:	0e 94 4d 2f 	call	0x5e9a	; 0x5e9a <strcat>
      strcat((char *)tekst_wysylanego_smsa, "OK");
    1216:	6d e6       	ldi	r22, 0x6D	; 109
    1218:	71 e0       	ldi	r23, 0x01	; 1
    if (znaleziono) {
    121a:	11 11       	cpse	r17, r1
    121c:	02 c0       	rjmp	.+4      	; 0x1222 <__EEPROM_REGION_LENGTH__+0x222>
      strcat((char *)tekst_wysylanego_smsa, "Brak takiego numeru w systemie");
    121e:	60 e7       	ldi	r22, 0x70	; 112
    1220:	71 e0       	ldi	r23, 0x01	; 1
    1222:	89 e6       	ldi	r24, 0x69	; 105
    1224:	95 e0       	ldi	r25, 0x05	; 5
    1226:	0e 94 4d 2f 	call	0x5e9a	; 0x5e9a <strcat>
    dodaj_komende(KOMENDA_KOLEJKI_WYSLIJ_SMSA_TEXT);
    122a:	83 ed       	ldi	r24, 0xD3	; 211
    122c:	0e 94 54 27 	call	0x4ea8	; 0x4ea8 <dodaj_komende>
    zapal_diode_led_blyski(2); // Komenda USER - 2 blyski
    1230:	82 e0       	ldi	r24, 0x02	; 2
    1232:	80 93 ed 01 	sts	0x01ED, r24	; 0x8001ed <liczba_blyskow_led>
    1236:	10 92 ec 01 	sts	0x01EC, r1	; 0x8001ec <stan_cyklu_blysku>
    if (czy_wolny_eeprom()) {
    123a:	80 91 db 07 	lds	r24, 0x07DB	; 0x8007db <bufor_pomoc_liczba_znakow_do_zapisu>
    123e:	81 11       	cpse	r24, r1
    1240:	09 c0       	rjmp	.+18     	; 0x1254 <__EEPROM_REGION_LENGTH__+0x254>
    1242:	80 91 41 02 	lds	r24, 0x0241	; 0x800241 <liczba_znakow_do_zapisu>
    1246:	81 11       	cpse	r24, r1
    1248:	05 c0       	rjmp	.+10     	; 0x1254 <__EEPROM_REGION_LENGTH__+0x254>
    124a:	80 91 dc 07 	lds	r24, 0x07DC	; 0x8007dc <czy_zajety_bufor_eeprom>
    124e:	81 11       	cpse	r24, r1
    1250:	01 c0       	rjmp	.+2      	; 0x1254 <__EEPROM_REGION_LENGTH__+0x254>
    1252:	8f b3       	in	r24, 0x1f	; 31
    zapisz_debug_do_eeprom(2, znaleziono); // 2 = USER
    1254:	61 2f       	mov	r22, r17
    1256:	82 e0       	ldi	r24, 0x02	; 2
    1258:	5c ce       	rjmp	.-840    	; 0xf12 <wykonanie_polecenia_sms+0x1fa>
        znaleziono = TRUE;
    125a:	1f ef       	ldi	r17, 0xFF	; 255
    125c:	c7 cf       	rjmp	.-114    	; 0x11ec <__EEPROM_REGION_LENGTH__+0x1ec>
    strcpy((char *)numer_telefonu_wysylanego_smsa,
    125e:	6a e3       	ldi	r22, 0x3A	; 58
    1260:	73 e0       	ldi	r23, 0x03	; 3
    1262:	80 e5       	ldi	r24, 0x50	; 80
    1264:	92 e0       	ldi	r25, 0x02	; 2
    1266:	0e 94 63 2f 	call	0x5ec6	; 0x5ec6 <strcpy>
    strcpy((char *)tekst_wysylanego_smsa,
    126a:	6f e8       	ldi	r22, 0x8F	; 143
    126c:	71 e0       	ldi	r23, 0x01	; 1
    126e:	89 e6       	ldi	r24, 0x69	; 105
    1270:	95 e0       	ldi	r25, 0x05	; 5
    1272:	7d cf       	rjmp	.-262    	; 0x116e <__EEPROM_REGION_LENGTH__+0x16e>
    strcpy((char *)numer_telefonu_wysylanego_smsa,
    1274:	6a e3       	ldi	r22, 0x3A	; 58
    1276:	73 e0       	ldi	r23, 0x03	; 3
    1278:	80 e5       	ldi	r24, 0x50	; 80
    127a:	92 e0       	ldi	r25, 0x02	; 2
    127c:	0e 94 63 2f 	call	0x5ec6	; 0x5ec6 <strcpy>
    numer_skopiowanego_telefonu_do_raportu_uzytkownikow_brama = 0;
    1280:	10 92 39 03 	sts	0x0339, r1	; 0x800339 <numer_skopiowanego_telefonu_do_raportu_uzytkownikow_brama>
    dodaj_komende(KOMENDA_KOLEJKI_WYSLIJ_RAPORT_UZYTKOWNIKOW);
    1284:	89 e8       	ldi	r24, 0x89	; 137
    1286:	76 cf       	rjmp	.-276    	; 0x1174 <__EEPROM_REGION_LENGTH__+0x174>
    if (not czy_sa_komendy_z_przedzialu(
    1288:	63 e8       	ldi	r22, 0x83	; 131
    128a:	82 e0       	ldi	r24, 0x02	; 2
    128c:	0e 94 9d 27 	call	0x4f3a	; 0x4f3a <czy_sa_komendy_z_przedzialu>
    1290:	81 11       	cpse	r24, r1
    1292:	09 ce       	rjmp	.-1006   	; 0xea6 <wykonanie_polecenia_sms+0x18e>
      zapal_diode_led_blyski(25);
    1294:	89 e1       	ldi	r24, 0x19	; 25
    1296:	80 93 ed 01 	sts	0x01ED, r24	; 0x8001ed <liczba_blyskow_led>
    129a:	10 92 ec 01 	sts	0x01EC, r1	; 0x8001ec <stan_cyklu_blysku>
      dodaj_komende(KOMENDA_KOLEJKI_RESET_USTAWIEN_0);
    129e:	83 e0       	ldi	r24, 0x03	; 3
    12a0:	0e 94 54 27 	call	0x4ea8	; 0x4ea8 <dodaj_komende>
    12a4:	00 ce       	rjmp	.-1024   	; 0xea6 <wykonanie_polecenia_sms+0x18e>

000012a6 <steruj_wejsciem_reset_100ms>:
void steruj_wejsciem_reset_100ms(void) {
    12a6:	80 91 26 02 	lds	r24, 0x0226	; 0x800226 <licznik_reset.3167>
  if (CZY_AKTUALNY_STAN_LOGICZNY_ON(0)) {
    12aa:	90 91 a4 03 	lds	r25, 0x03A4	; 0x8003a4 <stan_logiczny_na_wejsciu>
    12ae:	90 ff       	sbrs	r25, 0
    12b0:	06 c0       	rjmp	.+12     	; 0x12be <steruj_wejsciem_reset_100ms+0x18>
    if (licznik_reset < 20 * 10)
    12b2:	88 3c       	cpi	r24, 0xC8	; 200
    12b4:	88 f4       	brcc	.+34     	; 0x12d8 <steruj_wejsciem_reset_100ms+0x32>
      ++licznik_reset;
    12b6:	8f 5f       	subi	r24, 0xFF	; 255
    12b8:	80 93 26 02 	sts	0x0226, r24	; 0x800226 <licznik_reset.3167>
    12bc:	08 95       	ret
    if (licznik_reset >= 20 * 10) {
    12be:	88 3c       	cpi	r24, 0xC8	; 200
    12c0:	60 f0       	brcs	.+24     	; 0x12da <steruj_wejsciem_reset_100ms+0x34>
      if (not czy_sa_komendy_z_przedzialu(
    12c2:	63 e8       	ldi	r22, 0x83	; 131
    12c4:	82 e0       	ldi	r24, 0x02	; 2
    12c6:	0e 94 9d 27 	call	0x4f3a	; 0x4f3a <czy_sa_komendy_z_przedzialu>
    12ca:	81 11       	cpse	r24, r1
    12cc:	03 c0       	rjmp	.+6      	; 0x12d4 <steruj_wejsciem_reset_100ms+0x2e>
        dodaj_komende(KOMENDA_KOLEJKI_RESET_USTAWIEN_0);
    12ce:	83 e0       	ldi	r24, 0x03	; 3
        dodaj_komende(KOMENDA_KOLEJKI_RESET_KOD_DOSTEPU);
    12d0:	0e 94 54 27 	call	0x4ea8	; 0x4ea8 <dodaj_komende>
    licznik_reset = 0;
    12d4:	10 92 26 02 	sts	0x0226, r1	; 0x800226 <licznik_reset.3167>
}
    12d8:	08 95       	ret
    } else if (licznik_reset >= 5 * 10) {
    12da:	82 33       	cpi	r24, 0x32	; 50
    12dc:	d8 f3       	brcs	.-10     	; 0x12d4 <steruj_wejsciem_reset_100ms+0x2e>
      if (not czy_sa_komendy_z_przedzialu(
    12de:	63 e8       	ldi	r22, 0x83	; 131
    12e0:	82 e0       	ldi	r24, 0x02	; 2
    12e2:	0e 94 9d 27 	call	0x4f3a	; 0x4f3a <czy_sa_komendy_z_przedzialu>
    12e6:	81 11       	cpse	r24, r1
    12e8:	f5 cf       	rjmp	.-22     	; 0x12d4 <steruj_wejsciem_reset_100ms+0x2e>
        dodaj_komende(KOMENDA_KOLEJKI_RESET_KOD_DOSTEPU);
    12ea:	82 e0       	ldi	r24, 0x02	; 2
    12ec:	f1 cf       	rjmp	.-30     	; 0x12d0 <steruj_wejsciem_reset_100ms+0x2a>

000012ee <sprawdz_przychodzaca_rozmowe>:
{
    12ee:	cf 93       	push	r28
    12f0:	df 93       	push	r29
  uchar jest_super_user =
    12f2:	87 e8       	ldi	r24, 0x87	; 135
    12f4:	93 e0       	ldi	r25, 0x03	; 3
    12f6:	0e 94 4c 06 	call	0xc98	; 0xc98 <czy_numer_jest_super_userem>
  if (blokada_systemu && !jest_super_user) {
    12fa:	90 91 e2 01 	lds	r25, 0x01E2	; 0x8001e2 <blokada_systemu>
    12fe:	99 23       	and	r25, r25
    1300:	31 f0       	breq	.+12     	; 0x130e <sprawdz_przychodzaca_rozmowe+0x20>
    1302:	81 11       	cpse	r24, r1
    1304:	04 c0       	rjmp	.+8      	; 0x130e <sprawdz_przychodzaca_rozmowe+0x20>
    return FALSE; // Ignoruj rozmowy gdy system zablokowany (chyba ze super
    1306:	80 e0       	ldi	r24, 0x00	; 0
}
    1308:	df 91       	pop	r29
    130a:	cf 91       	pop	r28
    130c:	08 95       	ret
  if (blokada_sterowania_czasowa && !jest_super_user) {
    130e:	90 91 3f 02 	lds	r25, 0x023F	; 0x80023f <blokada_sterowania_czasowa>
    1312:	99 23       	and	r25, r25
    1314:	11 f0       	breq	.+4      	; 0x131a <sprawdz_przychodzaca_rozmowe+0x2c>
    1316:	88 23       	and	r24, r24
    1318:	b1 f3       	breq	.-20     	; 0x1306 <sprawdz_przychodzaca_rozmowe+0x18>
    131a:	80 91 87 03 	lds	r24, 0x0387	; 0x800387 <numer_telefonu_ktory_dzwoni>
  if (!tryb_clip) {
    131e:	90 91 01 01 	lds	r25, 0x0101	; 0x800101 <tryb_clip>
    1322:	91 11       	cpse	r25, r1
    1324:	29 c0       	rjmp	.+82     	; 0x1378 <sprawdz_przychodzaca_rozmowe+0x8a>
    if (numer_telefonu_ktory_dzwoni[0] != 0)
    1326:	88 23       	and	r24, r24
    1328:	19 f0       	breq	.+6      	; 0x1330 <sprawdz_przychodzaca_rozmowe+0x42>
      dodaj_komende(KOMENDA_KOLEJKI_SPRAWDZ_UZYTKOWNIKOW_BRAMA);
    132a:	84 e8       	ldi	r24, 0x84	; 132
    132c:	0e 94 54 27 	call	0x4ea8	; 0x4ea8 <dodaj_komende>
    if (tryb_pracy == 1)
    1330:	80 91 00 01 	lds	r24, 0x0100	; 0x800100 <tryb_pracy>
    1334:	81 30       	cpi	r24, 0x01	; 1
    1336:	11 f4       	brne	.+4      	; 0x133c <sprawdz_przychodzaca_rozmowe+0x4e>
      return TRUE;
    1338:	8f ef       	ldi	r24, 0xFF	; 255
    133a:	e6 cf       	rjmp	.-52     	; 0x1308 <sprawdz_przychodzaca_rozmowe+0x1a>
                                     &numer_telefonu_ktory_dzwoni[strlen(
    133c:	67 e8       	ldi	r22, 0x87	; 135
    133e:	73 e0       	ldi	r23, 0x03	; 3
    1340:	fb 01       	movw	r30, r22
    1342:	01 90       	ld	r0, Z+
    1344:	00 20       	and	r0, r0
    1346:	e9 f7       	brne	.-6      	; 0x1342 <sprawdz_przychodzaca_rozmowe+0x54>
    1348:	bf 01       	movw	r22, r30
    134a:	61 50       	subi	r22, 0x01	; 1
    134c:	71 09       	sbc	r23, r1
    konwertuj_telefon_na_blok_eeprom(&numer_telefonu_ktory_dzwoni[0],
    134e:	4d ed       	ldi	r20, 0xDD	; 221
    1350:	57 e0       	ldi	r21, 0x07	; 7
    1352:	87 e8       	ldi	r24, 0x87	; 135
    1354:	93 e0       	ldi	r25, 0x03	; 3
    1356:	0e 94 bf 27 	call	0x4f7e	; 0x4f7e <konwertuj_telefon_na_blok_eeprom>
    135a:	c8 e0       	ldi	r28, 0x08	; 8
    135c:	d0 e0       	ldi	r29, 0x00	; 0
      if (porownaj_numer_telefonu_blok(
    135e:	be 01       	movw	r22, r28
    1360:	8d ed       	ldi	r24, 0xDD	; 221
    1362:	97 e0       	ldi	r25, 0x07	; 7
    1364:	0e 94 94 28 	call	0x5128	; 0x5128 <porownaj_numer_telefonu_blok>
    1368:	81 11       	cpse	r24, r1
    136a:	e6 cf       	rjmp	.-52     	; 0x1338 <sprawdz_przychodzaca_rozmowe+0x4a>
    136c:	25 96       	adiw	r28, 0x05	; 5
    for (uint nr_uzyt = 0; nr_uzyt < MAX_LICZBA_NUMEROW_TELEFONOW_BRAMA;
    136e:	c8 3a       	cpi	r28, 0xA8	; 168
    1370:	ff e0       	ldi	r31, 0x0F	; 15
    1372:	df 07       	cpc	r29, r31
    1374:	a1 f7       	brne	.-24     	; 0x135e <sprawdz_przychodzaca_rozmowe+0x70>
    1376:	c7 cf       	rjmp	.-114    	; 0x1306 <sprawdz_przychodzaca_rozmowe+0x18>
  if (numer_telefonu_ktory_dzwoni[0] != 0)
    1378:	88 23       	and	r24, r24
    137a:	19 f0       	breq	.+6      	; 0x1382 <sprawdz_przychodzaca_rozmowe+0x94>
    dodaj_komende(KOMENDA_KOLEJKI_SPRAWDZ_UZYTKOWNIKOW_BRAMA);
    137c:	84 e8       	ldi	r24, 0x84	; 132
    137e:	0e 94 54 27 	call	0x4ea8	; 0x4ea8 <dodaj_komende>
  if (tryb_pracy == 1)
    1382:	81 e0       	ldi	r24, 0x01	; 1
    1384:	90 91 00 01 	lds	r25, 0x0100	; 0x800100 <tryb_pracy>
    1388:	91 30       	cpi	r25, 0x01	; 1
    138a:	09 f0       	breq	.+2      	; 0x138e <sprawdz_przychodzaca_rozmowe+0xa0>
    138c:	80 e0       	ldi	r24, 0x00	; 0
    138e:	81 95       	neg	r24
    1390:	bb cf       	rjmp	.-138    	; 0x1308 <sprawdz_przychodzaca_rozmowe+0x1a>

00001392 <zakonczono_rozmowe_telefoniczna>:
  opoznienie_SIM900_100MS = 60; // byo 60
    1392:	8c e3       	ldi	r24, 0x3C	; 60
    1394:	80 93 18 02 	sts	0x0218, r24	; 0x800218 <opoznienie_SIM900_100MS>
  licznik_bezpieczenstwa_wykonywana_rozmowa = 0;
    1398:	10 92 11 02 	sts	0x0211, r1	; 0x800211 <licznik_bezpieczenstwa_wykonywana_rozmowa+0x1>
    139c:	10 92 10 02 	sts	0x0210, r1	; 0x800210 <licznik_bezpieczenstwa_wykonywana_rozmowa>
  ustaw_maksymalny_czas_dzwonienia = 0;
    13a0:	10 92 0a 02 	sts	0x020A, r1	; 0x80020a <ustaw_maksymalny_czas_dzwonienia>
  maksymalny_czas_dzwonienia = 0;
    13a4:	10 92 0b 02 	sts	0x020B, r1	; 0x80020b <maksymalny_czas_dzwonienia>
  blokada_clip = FALSE;
    13a8:	10 92 ff 01 	sts	0x01FF, r1	; 0x8001ff <blokada_clip>
}
    13ac:	08 95       	ret

000013ae <zakonczono_wysylanie_smsa>:
  opoznienie_SIM900_100MS = 60;
    13ae:	8c e3       	ldi	r24, 0x3C	; 60
    13b0:	80 93 18 02 	sts	0x0218, r24	; 0x800218 <opoznienie_SIM900_100MS>
  wysylanie_smsa_clipa = WYSYLANIE_SMSA_CLIPA_BRAK;
    13b4:	10 92 e0 01 	sts	0x01E0, r1	; 0x8001e0 <wysylanie_smsa_clipa>
}
    13b8:	08 95       	ret

000013ba <problem_z_wyslaniem_powiadomienia>:
  wykonywanie_rozmowy_telefonicznej = FALSE;
    13ba:	10 92 b4 03 	sts	0x03B4, r1	; 0x8003b4 <wykonywanie_rozmowy_telefonicznej>
  licznik_bezpieczenstwa_wykonywana_rozmowa = 0;
    13be:	10 92 11 02 	sts	0x0211, r1	; 0x800211 <licznik_bezpieczenstwa_wykonywana_rozmowa+0x1>
    13c2:	10 92 10 02 	sts	0x0210, r1	; 0x800210 <licznik_bezpieczenstwa_wykonywana_rozmowa>
  wysylane_polecenie_SIM900 = KOMENDA_KOLEJKI_BRAK_KOMENDY;
    13c6:	10 92 15 02 	sts	0x0215, r1	; 0x800215 <licznik_wysylane_polecenie_SIM900+0x1>
    13ca:	10 92 14 02 	sts	0x0214, r1	; 0x800214 <licznik_wysylane_polecenie_SIM900>
    13ce:	10 92 16 02 	sts	0x0216, r1	; 0x800216 <aktualnie_wysylane_polecenie_SIM900>
  czekanie_na_odebranie_zachety = FALSE;
    13d2:	10 92 4c 05 	sts	0x054C, r1	; 0x80054c <czekanie_na_odebranie_zachety>
  opoznienie_SIM900_100MS = 60;
    13d6:	8c e3       	ldi	r24, 0x3C	; 60
    13d8:	80 93 18 02 	sts	0x0218, r24	; 0x800218 <opoznienie_SIM900_100MS>
  flaga_wysylanie_smsa = 0;
    13dc:	10 92 0d 02 	sts	0x020D, r1	; 0x80020d <flaga_wysylanie_smsa>
}
    13e0:	08 95       	ret

000013e2 <wyzerowanie_danych_SIM900>:
  problem_z_wyslaniem_powiadomienia();
    13e2:	0e 94 dd 09 	call	0x13ba	; 0x13ba <problem_z_wyslaniem_powiadomienia>
  licznik_wysylane_polecenie_SIM900 = 0;
    13e6:	10 92 15 02 	sts	0x0215, r1	; 0x800215 <licznik_wysylane_polecenie_SIM900+0x1>
    13ea:	10 92 14 02 	sts	0x0214, r1	; 0x800214 <licznik_wysylane_polecenie_SIM900>
  aktualnie_wysylane_polecenie_SIM900 = KOMENDA_KOLEJKI_BRAK_KOMENDY;
    13ee:	10 92 16 02 	sts	0x0216, r1	; 0x800216 <aktualnie_wysylane_polecenie_SIM900>
  liczba_komend_w_kolejce_SIM900 = 0;
    13f2:	10 92 68 05 	sts	0x0568, r1	; 0x800568 <liczba_komend_w_kolejce_SIM900>
  licznik_oczekiwanie_na_potwierdzenie_wyslania_znakow = 0;
    13f6:	10 92 6c 03 	sts	0x036C, r1	; 0x80036c <licznik_oczekiwanie_na_potwierdzenie_wyslania_znakow>
  czekanie_na_odebranie_zachety = FALSE;
    13fa:	10 92 4c 05 	sts	0x054C, r1	; 0x80054c <czekanie_na_odebranie_zachety>
  flaga_odebrany_znak_zachety = FALSE;
    13fe:	10 92 b3 03 	sts	0x03B3, r1	; 0x8003b3 <flaga_odebrany_znak_zachety>
  trwa_rozmowa_przychodzaca_od_uzytkownika = FALSE;
    1402:	10 92 12 02 	sts	0x0212, r1	; 0x800212 <trwa_rozmowa_przychodzaca_od_uzytkownika>
  wysylanie_smsa_clipa = WYSYLANIE_SMSA_CLIPA_BRAK;
    1406:	10 92 e0 01 	sts	0x01E0, r1	; 0x8001e0 <wysylanie_smsa_clipa>
  flaga_odczytywanie_smsa = FALSE;
    140a:	10 92 0e 02 	sts	0x020E, r1	; 0x80020e <flaga_odczytywanie_smsa>
}
    140e:	08 95       	ret

00001410 <reset_modulu_SIM900>:
  wyzerowanie_danych_SIM900();
    1410:	0e 94 f1 09 	call	0x13e2	; 0x13e2 <wyzerowanie_danych_SIM900>
  HARDRESET_SIM900();
    1414:	86 e9       	ldi	r24, 0x96	; 150
    1416:	80 93 05 01 	sts	0x0105, r24	; 0x800105 <licznik_100ms_procedura_inicjalizacyjna_SIM900>
  podlaczony_modul_gsm_SIM900 = FALSE;
    141a:	10 92 37 02 	sts	0x0237, r1	; 0x800237 <podlaczony_modul_gsm_SIM900>
  podlaczona_karta_SIM_SIM900 = FALSE;
    141e:	10 92 36 02 	sts	0x0236, r1	; 0x800236 <podlaczona_karta_SIM_SIM900>
  licznik_blad_stanu_karty_SIM = 0;
    1422:	10 92 06 02 	sts	0x0206, r1	; 0x800206 <licznik_blad_stanu_karty_SIM>
  licznik_blad_zalogowania_u_operatora = 0;
    1426:	10 92 05 02 	sts	0x0205, r1	; 0x800205 <licznik_blad_zalogowania_u_operatora>
  nazwa_operatora[0] = '\0';
    142a:	10 92 45 02 	sts	0x0245, r1	; 0x800245 <nazwa_operatora>
  licznik_ogolny_blad_zalogowania = 0;
    142e:	10 92 04 02 	sts	0x0204, r1	; 0x800204 <licznik_ogolny_blad_zalogowania+0x1>
    1432:	10 92 03 02 	sts	0x0203, r1	; 0x800203 <licznik_ogolny_blad_zalogowania>
  blokada_clip = FALSE;
    1436:	10 92 ff 01 	sts	0x01FF, r1	; 0x8001ff <blokada_clip>
  nastepne_wysylane_polecenie_SIM900 = KOMENDA_KOLEJKI_BRAK_KOMENDY;
    143a:	10 92 13 02 	sts	0x0213, r1	; 0x800213 <nastepne_wysylane_polecenie_SIM900>
  poziom_sieci_gsm = POZIOM_SIECI_BLAD;
    143e:	83 e6       	ldi	r24, 0x63	; 99
    1440:	80 93 06 01 	sts	0x0106, r24	; 0x800106 <poziom_sieci_gsm>
  filtruj_komendy_z_przedzialu(KOMENDA_KOLEJKI_USUN_SMSA_1,
    1444:	61 ed       	ldi	r22, 0xD1	; 209
    1446:	8e eb       	ldi	r24, 0xBE	; 190
    1448:	0e 94 7a 27 	call	0x4ef4	; 0x4ef4 <filtruj_komendy_z_przedzialu>
  filtruj_komendy_z_przedzialu(
    144c:	6e e9       	ldi	r22, 0x9E	; 158
    144e:	8a e8       	ldi	r24, 0x8A	; 138
    1450:	0e 94 7a 27 	call	0x4ef4	; 0x4ef4 <filtruj_komendy_z_przedzialu>
  filtruj_komendy_z_przedzialu(
    1454:	68 ea       	ldi	r22, 0xA8	; 168
    1456:	8f e9       	ldi	r24, 0x9F	; 159
    1458:	0e 94 7a 27 	call	0x4ef4	; 0x4ef4 <filtruj_komendy_z_przedzialu>
  filtruj_komendy_z_przedzialu(KOMENDA_KOLEJKI_WYSLIJ_SMSA_TEXT,
    145c:	65 ed       	ldi	r22, 0xD5	; 213
    145e:	83 ed       	ldi	r24, 0xD3	; 211
    1460:	0e 94 7a 27 	call	0x4ef4	; 0x4ef4 <filtruj_komendy_z_przedzialu>
  modul_zalogowany_w_sieci = FALSE;
    1464:	10 92 e7 01 	sts	0x01E7, r1	; 0x8001e7 <modul_zalogowany_w_sieci>
}
    1468:	08 95       	ret

0000146a <obsluga_wysylania_sms>:
}

void obsluga_wysylania_sms(void) {
  POMOC_DODAJ2('#', 'M');
  if (czy_jest_komenda_wyslano_sms()) {
    146a:	80 91 38 02 	lds	r24, 0x0238	; 0x800238 <komenda_SIM900>
    146e:	8d 30       	cpi	r24, 0x0D	; 13
    1470:	51 f4       	brne	.+20     	; 0x1486 <obsluga_wysylania_sms+0x1c>
    POMOC_DODAJ2('#', 'T');
    liczba_prob_wyslania_smsa = 0;
    1472:	10 92 0c 02 	sts	0x020C, r1	; 0x80020c <liczba_prob_wyslania_smsa>
  wysylanie_smsa_clipa = WYSYLANIE_SMSA_CLIPA_BRAK;
    1476:	10 92 e0 01 	sts	0x01E0, r1	; 0x8001e0 <wysylanie_smsa_clipa>
    zakonczono_wysylanie_smsa(zakonczenie_wysylania_sms_ok);
    flaga_wysylanie_smsa = 0;
    147a:	10 92 0d 02 	sts	0x020D, r1	; 0x80020d <flaga_wysylanie_smsa>
    opoznienie_SIM900_100MS = 70;
    147e:	86 e4       	ldi	r24, 0x46	; 70
    1480:	80 93 18 02 	sts	0x0218, r24	; 0x800218 <opoznienie_SIM900_100MS>
    return;
    1484:	08 95       	ret
  } else if (
      czy_jest_komenda_blad_CMS()) // spawdzi
    1486:	80 91 38 02 	lds	r24, 0x0238	; 0x800238 <komenda_SIM900>
  } else if (
    148a:	86 30       	cpi	r24, 0x06	; 6
    148c:	59 f5       	brne	.+86     	; 0x14e4 <obsluga_wysylania_sms+0x7a>
                                   // czy_modul_byl_polaczony_z_internetem
  {
    ++liczba_prob_wyslania_smsa;
    148e:	20 91 0c 02 	lds	r18, 0x020C	; 0x80020c <liczba_prob_wyslania_smsa>
    1492:	2f 5f       	subi	r18, 0xFF	; 255
    1494:	20 93 0c 02 	sts	0x020C, r18	; 0x80020c <liczba_prob_wyslania_smsa>
    if (numer_bledu_cms == CMS_SM_BL_NOT_READY ||
    1498:	80 91 3a 02 	lds	r24, 0x023A	; 0x80023a <numer_bledu_cms>
    149c:	90 91 3b 02 	lds	r25, 0x023B	; 0x80023b <numer_bledu_cms+0x1>
    14a0:	85 30       	cpi	r24, 0x05	; 5
    14a2:	32 e0       	ldi	r19, 0x02	; 2
    14a4:	93 07       	cpc	r25, r19
    14a6:	61 f0       	breq	.+24     	; 0x14c0 <obsluga_wysylania_sms+0x56>
    14a8:	8a 33       	cpi	r24, 0x3A	; 58
    14aa:	31 e0       	ldi	r19, 0x01	; 1
    14ac:	93 07       	cpc	r25, r19
    14ae:	41 f0       	breq	.+16     	; 0x14c0 <obsluga_wysylania_sms+0x56>
        numer_bledu_cms == CMS_SIM_BUSY ||
    14b0:	83 30       	cpi	r24, 0x03	; 3
    14b2:	32 e0       	ldi	r19, 0x02	; 2
    14b4:	93 07       	cpc	r25, r19
    14b6:	21 f0       	breq	.+8      	; 0x14c0 <obsluga_wysylania_sms+0x56>
        numer_bledu_cms == CMS_PC_BUSY // powinien by reset
        || numer_bledu_cms == CMS_INVALID_CHARS_IN_PDU ||
    14b8:	80 51       	subi	r24, 0x10	; 16
    14ba:	92 40       	sbci	r25, 0x02	; 2
    14bc:	02 97       	sbiw	r24, 0x02	; 2
    14be:	70 f4       	brcc	.+28     	; 0x14dc <obsluga_wysylania_sms+0x72>
        numer_bledu_cms == CMS_INCORECT_PDU_LENGTH) {
      opoznienie_SIM900_100MS = 60;
    14c0:	8c e3       	ldi	r24, 0x3C	; 60
    14c2:	80 93 18 02 	sts	0x0218, r24	; 0x800218 <opoznienie_SIM900_100MS>
      if (liczba_prob_wyslania_smsa < max_liczba_prob_wyslania_smsa) {
        POMOC_DODAJ2('#', 'C');
        POMOC_DODAJ_HEX(numer_bledu_cms >> 8);
        POMOC_DODAJ_HEX(numer_bledu_cms & 0xff);
        dodaj_komende(flaga_wysylanie_smsa);
    14c6:	80 91 0d 02 	lds	r24, 0x020D	; 0x80020d <flaga_wysylanie_smsa>
      if (liczba_prob_wyslania_smsa < max_liczba_prob_wyslania_smsa) {
    14ca:	22 30       	cpi	r18, 0x02	; 2
    14cc:	80 f1       	brcs	.+96     	; 0x152e <obsluga_wysylania_sms+0xc4>
    } else {
      POMOC_DODAJ2('#', 'F');
      POMOC_DODAJ_HEX(numer_bledu_cms >> 8);
      POMOC_DODAJ_HEX(numer_bledu_cms & 0xff);
      opoznienie_SIM900_100MS = 60;
      liczba_prob_wyslania_smsa = 0;
    14ce:	10 92 0c 02 	sts	0x020C, r1	; 0x80020c <liczba_prob_wyslania_smsa>
    14d2:	10 92 e0 01 	sts	0x01E0, r1	; 0x8001e0 <wysylanie_smsa_clipa>
      zakonczono_wysylanie_smsa(zakonczenie_wysylania_sms_blad_zakonczenie);
    }
    flaga_wysylanie_smsa = 0;
    14d6:	10 92 0d 02 	sts	0x020D, r1	; 0x80020d <flaga_wysylanie_smsa>
    14da:	08 95       	ret
      opoznienie_SIM900_100MS = 60;
    14dc:	8c e3       	ldi	r24, 0x3C	; 60
    14de:	80 93 18 02 	sts	0x0218, r24	; 0x800218 <opoznienie_SIM900_100MS>
    14e2:	f5 cf       	rjmp	.-22     	; 0x14ce <obsluga_wysylania_sms+0x64>
  } else if (czy_jest_komenda_ERROR()) {
    14e4:	80 91 38 02 	lds	r24, 0x0238	; 0x800238 <komenda_SIM900>
    14e8:	84 30       	cpi	r24, 0x04	; 4
    14ea:	21 f5       	brne	.+72     	; 0x1534 <obsluga_wysylania_sms+0xca>
    POMOC_DODAJ2('#', 'G');
    opoznienie_SIM900_100MS = 60;
    14ec:	8c e3       	ldi	r24, 0x3C	; 60
    14ee:	80 93 18 02 	sts	0x0218, r24	; 0x800218 <opoznienie_SIM900_100MS>
    czekanie_na_odebranie_zachety = FALSE;
    14f2:	10 92 4c 05 	sts	0x054C, r1	; 0x80054c <czekanie_na_odebranie_zachety>
    if ((odebrany_blok_SIM900[2] == '>' &&
    14f6:	80 91 b9 03 	lds	r24, 0x03B9	; 0x8003b9 <odebrany_blok_SIM900+0x2>
    14fa:	8e 33       	cpi	r24, 0x3E	; 62
    14fc:	31 f4       	brne	.+12     	; 0x150a <obsluga_wysylania_sms+0xa0>
         liczba_odebranych_znakow_SIM900 < 10) ||
    14fe:	80 91 4d 05 	lds	r24, 0x054D	; 0x80054d <liczba_odebranych_znakow_SIM900>
    1502:	90 91 4e 05 	lds	r25, 0x054E	; 0x80054e <liczba_odebranych_znakow_SIM900+0x1>
    if ((odebrany_blok_SIM900[2] == '>' &&
    1506:	0a 97       	sbiw	r24, 0x0a	; 10
    1508:	20 f0       	brcs	.+8      	; 0x1512 <obsluga_wysylania_sms+0xa8>
        flaga_wysylanie_smsa == 0) // SIM900 nie odpowiada
    150a:	80 91 0d 02 	lds	r24, 0x020D	; 0x80020d <flaga_wysylanie_smsa>
         liczba_odebranych_znakow_SIM900 < 10) ||
    150e:	81 11       	cpse	r24, r1
    1510:	07 c0       	rjmp	.+14     	; 0x1520 <obsluga_wysylania_sms+0xb6>
    {
      POMOC_DODAJ2('#', 'H');
      liczba_prob_wyslania_smsa = 0;
    1512:	10 92 0c 02 	sts	0x020C, r1	; 0x80020c <liczba_prob_wyslania_smsa>
    1516:	10 92 e0 01 	sts	0x01E0, r1	; 0x8001e0 <wysylanie_smsa_clipa>
      zakonczono_wysylanie_smsa(zakonczenie_wysylania_sms_blad_zakonczenie);
      reset_modulu_SIM900();
    151a:	0e 94 08 0a 	call	0x1410	; 0x1410 <reset_modulu_SIM900>
    151e:	db cf       	rjmp	.-74     	; 0x14d6 <obsluga_wysylania_sms+0x6c>
    } else {
      POMOC_DODAJ2('#', 'I');
      if (++liczba_prob_wyslania_smsa <
    1520:	90 91 0c 02 	lds	r25, 0x020C	; 0x80020c <liczba_prob_wyslania_smsa>
    1524:	9f 5f       	subi	r25, 0xFF	; 255
    1526:	90 93 0c 02 	sts	0x020C, r25	; 0x80020c <liczba_prob_wyslania_smsa>
    152a:	92 30       	cpi	r25, 0x02	; 2
    152c:	80 f6       	brcc	.-96     	; 0x14ce <obsluga_wysylania_sms+0x64>
          max_liczba_prob_wyslania_smsa) // musi by sta wartoci
        dodaj_komende(flaga_wysylanie_smsa);
    152e:	0e 94 54 27 	call	0x4ea8	; 0x4ea8 <dodaj_komende>
    1532:	d1 cf       	rjmp	.-94     	; 0x14d6 <obsluga_wysylania_sms+0x6c>
        liczba_prob_wyslania_smsa = 0;
        zakonczono_wysylanie_smsa(zakonczenie_wysylania_sms_blad_zakonczenie);
      }
    }
    flaga_wysylanie_smsa = 0;
  } else if (czy_jest_komenda_blad_CME()) {
    1534:	80 91 38 02 	lds	r24, 0x0238	; 0x800238 <komenda_SIM900>
    1538:	85 30       	cpi	r24, 0x05	; 5
    153a:	b9 f4       	brne	.+46     	; 0x156a <obsluga_wysylania_sms+0x100>
    POMOC_DODAJ2('#', 'J');
    POMOC_DODAJ_HEX(numer_bledu_cme >> 8);
    153c:	80 91 3c 02 	lds	r24, 0x023C	; 0x80023c <numer_bledu_cme>
    1540:	90 91 3d 02 	lds	r25, 0x023D	; 0x80023d <numer_bledu_cme+0x1>
    POMOC_DODAJ_HEX(numer_bledu_cme & 0xff);
    if (numer_bledu_cme == CME_SIM_NOT_INSERTED ||
    1544:	8a 30       	cpi	r24, 0x0A	; 10
    1546:	91 05       	cpc	r25, r1
    1548:	39 f0       	breq	.+14     	; 0x1558 <obsluga_wysylania_sms+0xee>
    154a:	9c 01       	movw	r18, r24
    154c:	2d 7f       	andi	r18, 0xFD	; 253
    154e:	2d 30       	cpi	r18, 0x0D	; 13
    1550:	31 05       	cpc	r19, r1
    1552:	11 f0       	breq	.+4      	; 0x1558 <obsluga_wysylania_sms+0xee>
        numer_bledu_cme == CME_SIM_FAILURE ||
        numer_bledu_cme == CME_SIM_WRONG ||
    1554:	4e 97       	sbiw	r24, 0x1e	; 30
    1556:	69 f4       	brne	.+26     	; 0x1572 <obsluga_wysylania_sms+0x108>
        numer_bledu_cme == CME_NO_NETWORK_SERVICE) {
      POMOC_DODAJ2('#', 'K');
      liczba_prob_wyslania_smsa = 0;
    1558:	10 92 0c 02 	sts	0x020C, r1	; 0x80020c <liczba_prob_wyslania_smsa>
  opoznienie_SIM900_100MS = 60;
    155c:	8c e3       	ldi	r24, 0x3C	; 60
    155e:	80 93 18 02 	sts	0x0218, r24	; 0x800218 <opoznienie_SIM900_100MS>
  wysylanie_smsa_clipa = WYSYLANIE_SMSA_CLIPA_BRAK;
    1562:	10 92 e0 01 	sts	0x01E0, r1	; 0x8001e0 <wysylanie_smsa_clipa>
      zakonczono_wysylanie_smsa(zakonczenie_wysylania_sms_blad_zakonczenie);
      reset_modulu_SIM900();
    1566:	0c 94 08 0a 	jmp	0x1410	; 0x1410 <reset_modulu_SIM900>
    }
  } else {
    POMOC_DODAJ2('#', 'L');
    POMOC_DODAJ_HEX(komenda_SIM900 >> 8);
    156a:	80 91 38 02 	lds	r24, 0x0238	; 0x800238 <komenda_SIM900>
    POMOC_DODAJ_HEX(komenda_SIM900 & 0xff);
    156e:	80 91 38 02 	lds	r24, 0x0238	; 0x800238 <komenda_SIM900>
  }
}
    1572:	08 95       	ret

00001574 <odpowiedz_na_polecenie>:

void odpowiedz_na_polecenie(void) {
    1574:	0f 93       	push	r16
    1576:	1f 93       	push	r17
    1578:	cf 93       	push	r28
    157a:	df 93       	push	r29
#define czy_polecenie_sim(POL) czy_polecenie_SIM900(POL, sizeof POL - 1)
  const uchar kom = komenda_SIM900;
    157c:	d0 91 38 02 	lds	r29, 0x0238	; 0x800238 <komenda_SIM900>

  switch (aktualnie_wysylane_polecenie_SIM900) {
    1580:	c0 91 16 02 	lds	r28, 0x0216	; 0x800216 <aktualnie_wysylane_polecenie_SIM900>
    1584:	ce 39       	cpi	r28, 0x9E	; 158
    1586:	09 f4       	brne	.+2      	; 0x158a <odpowiedz_na_polecenie+0x16>
    1588:	b5 c0       	rjmp	.+362    	; 0x16f4 <odpowiedz_na_polecenie+0x180>
    158a:	08 f0       	brcs	.+2      	; 0x158e <odpowiedz_na_polecenie+0x1a>
    158c:	70 c0       	rjmp	.+224    	; 0x166e <odpowiedz_na_polecenie+0xfa>
    158e:	c5 39       	cpi	r28, 0x95	; 149
    1590:	09 f4       	brne	.+2      	; 0x1594 <odpowiedz_na_polecenie+0x20>
    1592:	77 c2       	rjmp	.+1262   	; 0x1a82 <odpowiedz_na_polecenie+0x50e>
    1594:	38 f5       	brcc	.+78     	; 0x15e4 <odpowiedz_na_polecenie+0x70>
    1596:	cf 38       	cpi	r28, 0x8F	; 143
    1598:	09 f4       	brne	.+2      	; 0x159c <odpowiedz_na_polecenie+0x28>
    159a:	16 c3       	rjmp	.+1580   	; 0x1bc8 <odpowiedz_na_polecenie+0x654>
    159c:	88 f4       	brcc	.+34     	; 0x15c0 <odpowiedz_na_polecenie+0x4c>
    159e:	cc 38       	cpi	r28, 0x8C	; 140
    15a0:	09 f4       	brne	.+2      	; 0x15a4 <odpowiedz_na_polecenie+0x30>
    15a2:	a2 c0       	rjmp	.+324    	; 0x16e8 <odpowiedz_na_polecenie+0x174>
    15a4:	ce 38       	cpi	r28, 0x8E	; 142
    15a6:	09 f4       	brne	.+2      	; 0x15aa <odpowiedz_na_polecenie+0x36>
    15a8:	75 c1       	rjmp	.+746    	; 0x1894 <odpowiedz_na_polecenie+0x320>
    opoznienie_SIM900_100MS = 2;
    break;
  }
  }
#undef czy_polecenie_sim
  wysylane_polecenie_SIM900 = KOMENDA_KOLEJKI_BRAK_KOMENDY;
    15aa:	10 92 15 02 	sts	0x0215, r1	; 0x800215 <licznik_wysylane_polecenie_SIM900+0x1>
    15ae:	10 92 14 02 	sts	0x0214, r1	; 0x800214 <licznik_wysylane_polecenie_SIM900>
    15b2:	10 92 16 02 	sts	0x0216, r1	; 0x800216 <aktualnie_wysylane_polecenie_SIM900>
}
    15b6:	df 91       	pop	r29
    15b8:	cf 91       	pop	r28
    15ba:	1f 91       	pop	r17
    15bc:	0f 91       	pop	r16
    15be:	08 95       	ret
  switch (aktualnie_wysylane_polecenie_SIM900) {
    15c0:	c2 39       	cpi	r28, 0x92	; 146
    15c2:	09 f4       	brne	.+2      	; 0x15c6 <odpowiedz_na_polecenie+0x52>
    15c4:	8b c1       	rjmp	.+790    	; 0x18dc <odpowiedz_na_polecenie+0x368>
    15c6:	c4 39       	cpi	r28, 0x94	; 148
    15c8:	81 f7       	brne	.-32     	; 0x15aa <odpowiedz_na_polecenie+0x36>
    if (kom != OK_KOMENDA_SIM900 &&
    15ca:	d1 30       	cpi	r29, 0x01	; 1
    15cc:	09 f4       	brne	.+2      	; 0x15d0 <odpowiedz_na_polecenie+0x5c>
    15ce:	03 c3       	rjmp	.+1542   	; 0x1bd6 <odpowiedz_na_polecenie+0x662>
        ++liczba_wykonanych_komend_identycznego_polecenia <
    15d0:	80 91 6d 03 	lds	r24, 0x036D	; 0x80036d <liczba_wykonanych_komend_identycznego_polecenia>
    15d4:	8f 5f       	subi	r24, 0xFF	; 255
    if (kom != OK_KOMENDA_SIM900 &&
    15d6:	80 93 6d 03 	sts	0x036D, r24	; 0x80036d <liczba_wykonanych_komend_identycznego_polecenia>
    15da:	83 30       	cpi	r24, 0x03	; 3
    15dc:	08 f0       	brcs	.+2      	; 0x15e0 <odpowiedz_na_polecenie+0x6c>
    15de:	fb c2       	rjmp	.+1526   	; 0x1bd6 <odpowiedz_na_polecenie+0x662>
      dodaj_komende(aktualnie_wysylane_polecenie_SIM900);
    15e0:	8c 2f       	mov	r24, r28
    15e2:	cb c1       	rjmp	.+918    	; 0x197a <odpowiedz_na_polecenie+0x406>
  switch (aktualnie_wysylane_polecenie_SIM900) {
    15e4:	c9 39       	cpi	r28, 0x99	; 153
    15e6:	09 f4       	brne	.+2      	; 0x15ea <odpowiedz_na_polecenie+0x76>
    15e8:	ed c1       	rjmp	.+986    	; 0x19c4 <odpowiedz_na_polecenie+0x450>
    15ea:	88 f4       	brcc	.+34     	; 0x160e <odpowiedz_na_polecenie+0x9a>
    15ec:	c6 39       	cpi	r28, 0x96	; 150
    15ee:	09 f4       	brne	.+2      	; 0x15f2 <odpowiedz_na_polecenie+0x7e>
    15f0:	50 c2       	rjmp	.+1184   	; 0x1a92 <odpowiedz_na_polecenie+0x51e>
    15f2:	c7 39       	cpi	r28, 0x97	; 151
    15f4:	d1 f6       	brne	.-76     	; 0x15aa <odpowiedz_na_polecenie+0x36>
      dodaj_komende(aktualnie_wysylane_polecenie_SIM900);
    15f6:	87 e9       	ldi	r24, 0x97	; 151
    if (kom != OK_KOMENDA_SIM900)
    15f8:	d1 30       	cpi	r29, 0x01	; 1
    15fa:	09 f0       	breq	.+2      	; 0x15fe <odpowiedz_na_polecenie+0x8a>
    15fc:	34 c1       	rjmp	.+616    	; 0x1866 <odpowiedz_na_polecenie+0x2f2>
      zakonczono_rozmowe_telefoniczna(powod_zakonczenia_rozmowy_zakonczenie);
    15fe:	81 e0       	ldi	r24, 0x01	; 1
    1600:	0e 94 c9 09 	call	0x1392	; 0x1392 <zakonczono_rozmowe_telefoniczna>
      trwa_rozmowa_przychodzaca_od_uzytkownika = FALSE;
    1604:	10 92 12 02 	sts	0x0212, r1	; 0x800212 <trwa_rozmowa_przychodzaca_od_uzytkownika>
      wykonywanie_rozmowy_telefonicznej = FALSE;
    1608:	10 92 b4 03 	sts	0x03B4, r1	; 0x8003b4 <wykonywanie_rozmowy_telefonicznej>
    160c:	ce cf       	rjmp	.-100    	; 0x15aa <odpowiedz_na_polecenie+0x36>
  switch (aktualnie_wysylane_polecenie_SIM900) {
    160e:	cb 39       	cpi	r28, 0x9B	; 155
    1610:	09 f4       	brne	.+2      	; 0x1614 <odpowiedz_na_polecenie+0xa0>
    1612:	b7 c1       	rjmp	.+878    	; 0x1982 <odpowiedz_na_polecenie+0x40e>
    1614:	08 f4       	brcc	.+2      	; 0x1618 <odpowiedz_na_polecenie+0xa4>
    1616:	ea c1       	rjmp	.+980    	; 0x19ec <odpowiedz_na_polecenie+0x478>
    1618:	cd 39       	cpi	r28, 0x9D	; 157
    161a:	39 f6       	brne	.-114    	; 0x15aa <odpowiedz_na_polecenie+0x36>
    if (kom == OK_KOMENDA_SIM900) {
    161c:	d1 30       	cpi	r29, 0x01	; 1
    161e:	29 f6       	brne	.-118    	; 0x15aa <odpowiedz_na_polecenie+0x36>
      const uchar *p1 = polozenie_polecenia_SIM900(urc);
    1620:	85 e2       	ldi	r24, 0x25	; 37
    1622:	92 e0       	ldi	r25, 0x02	; 2
    1624:	0e 94 79 03 	call	0x6f2	; 0x6f2 <polozenie_polecenia_SIM900>
    1628:	fc 01       	movw	r30, r24
      if (p1 != NULL) {
    162a:	89 2b       	or	r24, r25
    162c:	09 f4       	brne	.+2      	; 0x1630 <odpowiedz_na_polecenie+0xbc>
    162e:	bd cf       	rjmp	.-134    	; 0x15aa <odpowiedz_na_polecenie+0x36>
        if (*p1 != ',')
    1630:	27 81       	ldd	r18, Z+7	; 0x07
    1632:	2c 32       	cpi	r18, 0x2C	; 44
    1634:	09 f0       	breq	.+2      	; 0x1638 <odpowiedz_na_polecenie+0xc4>
    1636:	bc c1       	rjmp	.+888    	; 0x19b0 <odpowiedz_na_polecenie+0x43c>
        p1 += strlen_R(urc) + 1;
    1638:	37 96       	adiw	r30, 0x07	; 7
        if (*p1 != ',')
    163a:	80 81       	ld	r24, Z
    163c:	8c 32       	cpi	r24, 0x2C	; 44
    163e:	09 f0       	breq	.+2      	; 0x1642 <odpowiedz_na_polecenie+0xce>
    1640:	31 96       	adiw	r30, 0x01	; 1
        if (*p1 != ',')
    1642:	80 81       	ld	r24, Z
    1644:	8c 32       	cpi	r24, 0x2C	; 44
    1646:	09 f0       	breq	.+2      	; 0x164a <odpowiedz_na_polecenie+0xd6>
    1648:	31 96       	adiw	r30, 0x01	; 1
        uchar stan_zarejestrowania = (uchar)strtol(p1, NULL, 10);
    164a:	4a e0       	ldi	r20, 0x0A	; 10
    164c:	50 e0       	ldi	r21, 0x00	; 0
    164e:	70 e0       	ldi	r23, 0x00	; 0
    1650:	60 e0       	ldi	r22, 0x00	; 0
    1652:	cf 01       	movw	r24, r30
    1654:	01 96       	adiw	r24, 0x01	; 1
    1656:	0e 94 91 2c 	call	0x5922	; 0x5922 <strtol>
        if (stan_zarejestrowania == 0 || stan_zarejestrowania == 3 ||
    165a:	66 23       	and	r22, r22
    165c:	29 f0       	breq	.+10     	; 0x1668 <odpowiedz_na_polecenie+0xf4>
    165e:	8d ef       	ldi	r24, 0xFD	; 253
    1660:	86 0f       	add	r24, r22
    1662:	82 30       	cpi	r24, 0x02	; 2
    1664:	08 f0       	brcs	.+2      	; 0x1668 <odpowiedz_na_polecenie+0xf4>
    1666:	a6 c1       	rjmp	.+844    	; 0x19b4 <odpowiedz_na_polecenie+0x440>
          reset_modulu_SIM900();
    1668:	0e 94 08 0a 	call	0x1410	; 0x1410 <reset_modulu_SIM900>
    166c:	9e cf       	rjmp	.-196    	; 0x15aa <odpowiedz_na_polecenie+0x36>
  switch (aktualnie_wysylane_polecenie_SIM900) {
    166e:	ca 3a       	cpi	r28, 0xAA	; 170
    1670:	c8 f4       	brcc	.+50     	; 0x16a4 <odpowiedz_na_polecenie+0x130>
    1672:	c6 3a       	cpi	r28, 0xA6	; 166
    1674:	08 f0       	brcs	.+2      	; 0x1678 <odpowiedz_na_polecenie+0x104>
    1676:	a9 cf       	rjmp	.-174    	; 0x15ca <odpowiedz_na_polecenie+0x56>
    1678:	c1 3a       	cpi	r28, 0xA1	; 161
    167a:	09 f4       	brne	.+2      	; 0x167e <odpowiedz_na_polecenie+0x10a>
    167c:	a6 cf       	rjmp	.-180    	; 0x15ca <odpowiedz_na_polecenie+0x56>
    167e:	58 f4       	brcc	.+22     	; 0x1696 <odpowiedz_na_polecenie+0x122>
    1680:	cf 39       	cpi	r28, 0x9F	; 159
    1682:	09 f4       	brne	.+2      	; 0x1686 <odpowiedz_na_polecenie+0x112>
    1684:	d2 c0       	rjmp	.+420    	; 0x182a <odpowiedz_na_polecenie+0x2b6>
    1686:	c0 3a       	cpi	r28, 0xA0	; 160
    1688:	09 f0       	breq	.+2      	; 0x168c <odpowiedz_na_polecenie+0x118>
    168a:	8f cf       	rjmp	.-226    	; 0x15aa <odpowiedz_na_polecenie+0x36>
    if (kom == OK_KOMENDA_SIM900)
    168c:	d1 30       	cpi	r29, 0x01	; 1
    168e:	09 f0       	breq	.+2      	; 0x1692 <odpowiedz_na_polecenie+0x11e>
    1690:	44 c1       	rjmp	.+648    	; 0x191a <odpowiedz_na_polecenie+0x3a6>
      dodaj_komende(KOMENDA_KOLEJKI_USTAW_PAMIEC_SM_DLA_SMSOW);
    1692:	8f e8       	ldi	r24, 0x8F	; 143
    1694:	e8 c0       	rjmp	.+464    	; 0x1866 <odpowiedz_na_polecenie+0x2f2>
  switch (aktualnie_wysylane_polecenie_SIM900) {
    1696:	c2 3a       	cpi	r28, 0xA2	; 162
    1698:	09 f4       	brne	.+2      	; 0x169c <odpowiedz_na_polecenie+0x128>
    169a:	53 c1       	rjmp	.+678    	; 0x1942 <odpowiedz_na_polecenie+0x3ce>
    169c:	c4 3a       	cpi	r28, 0xA4	; 164
    169e:	09 f4       	brne	.+2      	; 0x16a2 <odpowiedz_na_polecenie+0x12e>
    16a0:	94 cf       	rjmp	.-216    	; 0x15ca <odpowiedz_na_polecenie+0x56>
    16a2:	83 cf       	rjmp	.-250    	; 0x15aa <odpowiedz_na_polecenie+0x36>
    16a4:	c2 3d       	cpi	r28, 0xD2	; 210
    16a6:	90 f4       	brcc	.+36     	; 0x16cc <odpowiedz_na_polecenie+0x158>
    16a8:	ce 3b       	cpi	r28, 0xBE	; 190
    16aa:	08 f4       	brcc	.+2      	; 0x16ae <odpowiedz_na_polecenie+0x13a>
    16ac:	22 c2       	rjmp	.+1092   	; 0x1af2 <odpowiedz_na_polecenie+0x57e>
    if (kom == CMS_ERROR_KOMENDA_SIM900 &&
    16ae:	d6 30       	cpi	r29, 0x06	; 6
    16b0:	09 f0       	breq	.+2      	; 0x16b4 <odpowiedz_na_polecenie+0x140>
    16b2:	60 c2       	rjmp	.+1216   	; 0x1b74 <odpowiedz_na_polecenie+0x600>
    16b4:	80 91 3a 02 	lds	r24, 0x023A	; 0x80023a <numer_bledu_cms>
    16b8:	90 91 3b 02 	lds	r25, 0x023B	; 0x80023b <numer_bledu_cms+0x1>
    16bc:	81 34       	cpi	r24, 0x41	; 65
    16be:	91 40       	sbci	r25, 0x01	; 1
    16c0:	09 f4       	brne	.+2      	; 0x16c4 <odpowiedz_na_polecenie+0x150>
    16c2:	5b c2       	rjmp	.+1206   	; 0x1b7a <odpowiedz_na_polecenie+0x606>
      dodaj_komende(aktualnie_wysylane_polecenie_SIM900);
    16c4:	8c 2f       	mov	r24, r28
    16c6:	0e 94 54 27 	call	0x4ea8	; 0x4ea8 <dodaj_komende>
    16ca:	5c c2       	rjmp	.+1208   	; 0x1b84 <odpowiedz_na_polecenie+0x610>
  switch (aktualnie_wysylane_polecenie_SIM900) {
    16cc:	c6 3d       	cpi	r28, 0xD6	; 214
    16ce:	09 f4       	brne	.+2      	; 0x16d2 <odpowiedz_na_polecenie+0x15e>
    16d0:	5b c2       	rjmp	.+1206   	; 0x1b88 <odpowiedz_na_polecenie+0x614>
    16d2:	cd 3f       	cpi	r28, 0xFD	; 253
    16d4:	09 f0       	breq	.+2      	; 0x16d8 <odpowiedz_na_polecenie+0x164>
    16d6:	69 cf       	rjmp	.-302    	; 0x15aa <odpowiedz_na_polecenie+0x36>
    if (polozenie_polecenia_SIM900(PSTR(">")) != 0) {
    16d8:	85 e1       	ldi	r24, 0x15	; 21
    16da:	92 e0       	ldi	r25, 0x02	; 2
    16dc:	0e 94 79 03 	call	0x6f2	; 0x6f2 <polozenie_polecenia_SIM900>
    16e0:	89 2b       	or	r24, r25
    16e2:	09 f4       	brne	.+2      	; 0x16e6 <odpowiedz_na_polecenie+0x172>
    16e4:	72 cf       	rjmp	.-284    	; 0x15ca <odpowiedz_na_polecenie+0x56>
    16e6:	c0 cf       	rjmp	.-128    	; 0x1668 <odpowiedz_na_polecenie+0xf4>
    dodaj_komende(KOMENDA_KOLEJKI_ODEBRANO_POLECENIE_ROZPOCZYNAJACE);
    16e8:	8d e8       	ldi	r24, 0x8D	; 141
    16ea:	0e 94 54 27 	call	0x4ea8	; 0x4ea8 <dodaj_komende>
    max_oczekiwanie_na_odpowiedz_at = 0;
    16ee:	10 92 00 02 	sts	0x0200, r1	; 0x800200 <max_oczekiwanie_na_odpowiedz_at>
    break;
    16f2:	5b cf       	rjmp	.-330    	; 0x15aa <odpowiedz_na_polecenie+0x36>
    if (kom == OK_KOMENDA_SIM900 &&
    16f4:	d1 30       	cpi	r29, 0x01	; 1
    16f6:	09 f0       	breq	.+2      	; 0x16fa <odpowiedz_na_polecenie+0x186>
    16f8:	58 cf       	rjmp	.-336    	; 0x15aa <odpowiedz_na_polecenie+0x36>
        polozenie_polecenia_SIM900(polecenie_zegar) != NULL) {
    16fa:	8f e3       	ldi	r24, 0x3F	; 63
    16fc:	92 e0       	ldi	r25, 0x02	; 2
    16fe:	0e 94 79 03 	call	0x6f2	; 0x6f2 <polozenie_polecenia_SIM900>
    if (kom == OK_KOMENDA_SIM900 &&
    1702:	00 97       	sbiw	r24, 0x00	; 0
    1704:	09 f4       	brne	.+2      	; 0x1708 <odpowiedz_na_polecenie+0x194>
    1706:	51 cf       	rjmp	.-350    	; 0x15aa <odpowiedz_na_polecenie+0x36>
      const uchar *p1 =
    1708:	62 e2       	ldi	r22, 0x22	; 34
    170a:	70 e0       	ldi	r23, 0x00	; 0
    170c:	0e 94 58 2f 	call	0x5eb0	; 0x5eb0 <strchr>
      if (p1++ != NULL) {
    1710:	00 97       	sbiw	r24, 0x00	; 0
    1712:	09 f4       	brne	.+2      	; 0x1716 <odpowiedz_na_polecenie+0x1a2>
    1714:	4a cf       	rjmp	.-364    	; 0x15aa <odpowiedz_na_polecenie+0x36>
    1716:	ec 01       	movw	r28, r24
    1718:	21 96       	adiw	r28, 0x01	; 1
        const uchar *p2 = strchr(p1, '\"');
    171a:	62 e2       	ldi	r22, 0x22	; 34
    171c:	70 e0       	ldi	r23, 0x00	; 0
    171e:	ce 01       	movw	r24, r28
    1720:	0e 94 58 2f 	call	0x5eb0	; 0x5eb0 <strchr>
    1724:	8c 01       	movw	r16, r24
        const uchar *p3 = strchr(p1, ',');
    1726:	6c e2       	ldi	r22, 0x2C	; 44
    1728:	70 e0       	ldi	r23, 0x00	; 0
    172a:	ce 01       	movw	r24, r28
    172c:	0e 94 58 2f 	call	0x5eb0	; 0x5eb0 <strchr>
        if (p2 != NULL && p3++ != NULL && p2 > p3) {
    1730:	01 15       	cp	r16, r1
    1732:	11 05       	cpc	r17, r1
    1734:	09 f4       	brne	.+2      	; 0x1738 <odpowiedz_na_polecenie+0x1c4>
    1736:	39 cf       	rjmp	.-398    	; 0x15aa <odpowiedz_na_polecenie+0x36>
    1738:	00 97       	sbiw	r24, 0x00	; 0
    173a:	09 f4       	brne	.+2      	; 0x173e <odpowiedz_na_polecenie+0x1ca>
    173c:	36 cf       	rjmp	.-404    	; 0x15aa <odpowiedz_na_polecenie+0x36>
    173e:	ec 01       	movw	r28, r24
    1740:	21 96       	adiw	r28, 0x01	; 1
    1742:	c0 17       	cp	r28, r16
    1744:	d1 07       	cpc	r29, r17
    1746:	08 f0       	brcs	.+2      	; 0x174a <odpowiedz_na_polecenie+0x1d6>
    1748:	30 cf       	rjmp	.-416    	; 0x15aa <odpowiedz_na_polecenie+0x36>
          if ((p3 = strchr(p3, ':')) != NULL && p2 > p3++) {
    174a:	6a e3       	ldi	r22, 0x3A	; 58
    174c:	70 e0       	ldi	r23, 0x00	; 0
    174e:	ce 01       	movw	r24, r28
    1750:	0e 94 58 2f 	call	0x5eb0	; 0x5eb0 <strchr>
    1754:	00 97       	sbiw	r24, 0x00	; 0
    1756:	09 f4       	brne	.+2      	; 0x175a <odpowiedz_na_polecenie+0x1e6>
    1758:	28 cf       	rjmp	.-432    	; 0x15aa <odpowiedz_na_polecenie+0x36>
    175a:	80 17       	cp	r24, r16
    175c:	91 07       	cpc	r25, r17
    175e:	08 f0       	brcs	.+2      	; 0x1762 <odpowiedz_na_polecenie+0x1ee>
    1760:	24 cf       	rjmp	.-440    	; 0x15aa <odpowiedz_na_polecenie+0x36>
              if (strlen(ptr_time) >= 8) {
    1762:	fe 01       	movw	r30, r28
    1764:	01 90       	ld	r0, Z+
    1766:	00 20       	and	r0, r0
    1768:	e9 f7       	brne	.-6      	; 0x1764 <odpowiedz_na_polecenie+0x1f0>
    176a:	31 97       	sbiw	r30, 0x01	; 1
    176c:	ec 1b       	sub	r30, r28
    176e:	fd 0b       	sbc	r31, r29
    1770:	38 97       	sbiw	r30, 0x08	; 8
    1772:	08 f4       	brcc	.+2      	; 0x1776 <odpowiedz_na_polecenie+0x202>
    1774:	1a cf       	rjmp	.-460    	; 0x15aa <odpowiedz_na_polecenie+0x36>
                memcpy(rtc_czas, ptr_time, 8);
    1776:	88 e0       	ldi	r24, 0x08	; 8
    1778:	fe 01       	movw	r30, r28
    177a:	ab e0       	ldi	r26, 0x0B	; 11
    177c:	b1 e0       	ldi	r27, 0x01	; 1
    177e:	01 90       	ld	r0, Z+
    1780:	0d 92       	st	X+, r0
    1782:	8a 95       	dec	r24
    1784:	e1 f7       	brne	.-8      	; 0x177e <odpowiedz_na_polecenie+0x20a>
                rtc_czas[8] = '\0';
    1786:	10 92 13 01 	sts	0x0113, r1	; 0x800113 <rtc_czas+0x8>
                if (czas_start_h == 0xFF) {
    178a:	70 91 0a 01 	lds	r23, 0x010A	; 0x80010a <czas_start_h>
    178e:	7f 3f       	cpi	r23, 0xFF	; 255
    1790:	19 f4       	brne	.+6      	; 0x1798 <odpowiedz_na_polecenie+0x224>
                  blokada_sterowania_czasowa = FALSE;
    1792:	10 92 3f 02 	sts	0x023F, r1	; 0x80023f <blokada_sterowania_czasowa>
    1796:	09 cf       	rjmp	.-494    	; 0x15aa <odpowiedz_na_polecenie+0x36>
                  int curr_h = (rtc_czas[0] - '0') * 10 + (rtc_czas[1] - '0');
    1798:	20 91 0b 01 	lds	r18, 0x010B	; 0x80010b <rtc_czas>
    179c:	20 53       	subi	r18, 0x30	; 48
    179e:	33 0b       	sbc	r19, r19
    17a0:	ea e0       	ldi	r30, 0x0A	; 10
    17a2:	e2 9f       	mul	r30, r18
    17a4:	c0 01       	movw	r24, r0
    17a6:	e3 9f       	mul	r30, r19
    17a8:	90 0d       	add	r25, r0
    17aa:	11 24       	eor	r1, r1
    17ac:	20 91 0c 01 	lds	r18, 0x010C	; 0x80010c <rtc_czas+0x1>
    17b0:	20 53       	subi	r18, 0x30	; 48
    17b2:	33 0b       	sbc	r19, r19
    17b4:	82 0f       	add	r24, r18
    17b6:	93 1f       	adc	r25, r19
                  int curr_time = curr_h * 60 + curr_m;
    17b8:	6c e3       	ldi	r22, 0x3C	; 60
    17ba:	68 9f       	mul	r22, r24
    17bc:	a0 01       	movw	r20, r0
    17be:	69 9f       	mul	r22, r25
    17c0:	50 0d       	add	r21, r0
    17c2:	11 24       	eor	r1, r1
                  int curr_m = (rtc_czas[3] - '0') * 10 + (rtc_czas[4] - '0');
    17c4:	20 91 0e 01 	lds	r18, 0x010E	; 0x80010e <rtc_czas+0x3>
    17c8:	20 53       	subi	r18, 0x30	; 48
    17ca:	33 0b       	sbc	r19, r19
    17cc:	e2 9f       	mul	r30, r18
    17ce:	c0 01       	movw	r24, r0
    17d0:	e3 9f       	mul	r30, r19
    17d2:	90 0d       	add	r25, r0
    17d4:	11 24       	eor	r1, r1
    17d6:	20 91 0f 01 	lds	r18, 0x010F	; 0x80010f <rtc_czas+0x4>
    17da:	20 53       	subi	r18, 0x30	; 48
    17dc:	33 0b       	sbc	r19, r19
    17de:	82 0f       	add	r24, r18
    17e0:	93 1f       	adc	r25, r19
                  int curr_time = curr_h * 60 + curr_m;
    17e2:	48 0f       	add	r20, r24
    17e4:	59 1f       	adc	r21, r25
                  int start_time = czas_start_h * 60 + czas_start_m;
    17e6:	20 91 09 01 	lds	r18, 0x0109	; 0x800109 <czas_start_m>
    17ea:	30 e0       	ldi	r19, 0x00	; 0
    17ec:	76 9f       	mul	r23, r22
    17ee:	20 0d       	add	r18, r0
    17f0:	31 1d       	adc	r19, r1
    17f2:	11 24       	eor	r1, r1
                  int stop_time = czas_stop_h * 60 + czas_stop_m;
    17f4:	70 91 08 01 	lds	r23, 0x0108	; 0x800108 <czas_stop_h>
    17f8:	80 91 07 01 	lds	r24, 0x0107	; 0x800107 <czas_stop_m>
    17fc:	90 e0       	ldi	r25, 0x00	; 0
    17fe:	76 9f       	mul	r23, r22
    1800:	80 0d       	add	r24, r0
    1802:	91 1d       	adc	r25, r1
    1804:	11 24       	eor	r1, r1
                  if (start_time <= stop_time) {
    1806:	82 17       	cp	r24, r18
    1808:	93 07       	cpc	r25, r19
    180a:	5c f0       	brlt	.+22     	; 0x1822 <odpowiedz_na_polecenie+0x2ae>
                    if (curr_time >= start_time && curr_time <= stop_time)
    180c:	42 17       	cp	r20, r18
    180e:	53 07       	cpc	r21, r19
    1810:	24 f0       	brlt	.+8      	; 0x181a <odpowiedz_na_polecenie+0x2a6>
                    if (curr_time >= start_time || curr_time <= stop_time)
    1812:	84 17       	cp	r24, r20
    1814:	95 07       	cpc	r25, r21
    1816:	0c f0       	brlt	.+2      	; 0x181a <odpowiedz_na_polecenie+0x2a6>
    1818:	bc cf       	rjmp	.-136    	; 0x1792 <odpowiedz_na_polecenie+0x21e>
                      blokada_sterowania_czasowa = TRUE;
    181a:	8f ef       	ldi	r24, 0xFF	; 255
    181c:	80 93 3f 02 	sts	0x023F, r24	; 0x80023f <blokada_sterowania_czasowa>
    1820:	c4 ce       	rjmp	.-632    	; 0x15aa <odpowiedz_na_polecenie+0x36>
                    if (curr_time >= start_time || curr_time <= stop_time)
    1822:	42 17       	cp	r20, r18
    1824:	53 07       	cpc	r21, r19
    1826:	ac f3       	brlt	.-22     	; 0x1812 <odpowiedz_na_polecenie+0x29e>
    1828:	b4 cf       	rjmp	.-152    	; 0x1792 <odpowiedz_na_polecenie+0x21e>
    if (kom == OK_KOMENDA_SIM900) {
    182a:	d1 30       	cpi	r29, 0x01	; 1
    182c:	99 f4       	brne	.+38     	; 0x1854 <odpowiedz_na_polecenie+0x2e0>
      if (polozenie_polecenia_SIM900(polecenie_pin_ready) != NULL) {
    182e:	82 e3       	ldi	r24, 0x32	; 50
    1830:	92 e0       	ldi	r25, 0x02	; 2
    1832:	0e 94 79 03 	call	0x6f2	; 0x6f2 <polozenie_polecenia_SIM900>
    1836:	89 2b       	or	r24, r25
    1838:	59 f0       	breq	.+22     	; 0x1850 <odpowiedz_na_polecenie+0x2dc>
        podlaczona_karta_SIM_SIM900 = TRUE;
    183a:	8f ef       	ldi	r24, 0xFF	; 255
    183c:	80 93 36 02 	sts	0x0236, r24	; 0x800236 <podlaczona_karta_SIM_SIM900>
        bledny_PIN = FALSE;
    1840:	10 92 3e 02 	sts	0x023E, r1	; 0x80023e <bledny_PIN>
        dodaj_komende(KOMENDA_KOLEJKI_USUN_WSZYSTKIE_SMSY);
    1844:	82 e9       	ldi	r24, 0x92	; 146
        dodaj_komende(KOMENDA_KOLEJKI_PODAJ_PIN);
    1846:	0e 94 54 27 	call	0x4ea8	; 0x4ea8 <dodaj_komende>
        nr_zapytania_o_pin = 0;
    184a:	10 92 25 02 	sts	0x0225, r1	; 0x800225 <nr_zapytania_o_pin.3233>
    184e:	ad ce       	rjmp	.-678    	; 0x15aa <odpowiedz_na_polecenie+0x36>
        dodaj_komende(KOMENDA_KOLEJKI_PODAJ_PIN);
    1850:	8e e8       	ldi	r24, 0x8E	; 142
    1852:	f9 cf       	rjmp	.-14     	; 0x1846 <odpowiedz_na_polecenie+0x2d2>
    } else if (kom == CME_ERROR_KOMENDA_SIM900 &&
    1854:	d5 30       	cpi	r29, 0x05	; 5
    1856:	51 f4       	brne	.+20     	; 0x186c <odpowiedz_na_polecenie+0x2f8>
    1858:	80 91 3c 02 	lds	r24, 0x023C	; 0x80023c <numer_bledu_cme>
    185c:	90 91 3d 02 	lds	r25, 0x023D	; 0x80023d <numer_bledu_cme+0x1>
    1860:	0e 97       	sbiw	r24, 0x0e	; 14
    1862:	31 f4       	brne	.+12     	; 0x1870 <odpowiedz_na_polecenie+0x2fc>
        dodaj_komende(aktualnie_wysylane_polecenie_SIM900);
    1864:	8f e9       	ldi	r24, 0x9F	; 159
      dodaj_komende(KOMENDA_KOLEJKI_USTAW_PAMIEC_SM_DLA_SMSOW);
    1866:	0e 94 54 27 	call	0x4ea8	; 0x4ea8 <dodaj_komende>
    186a:	9f ce       	rjmp	.-706    	; 0x15aa <odpowiedz_na_polecenie+0x36>
    else if (kom == ERROR_KOMENDA_SIM900 || czy_jest_blad_SIM900()) {
    186c:	d4 30       	cpi	r29, 0x04	; 4
    186e:	21 f0       	breq	.+8      	; 0x1878 <odpowiedz_na_polecenie+0x304>
    1870:	80 91 38 02 	lds	r24, 0x0238	; 0x800238 <komenda_SIM900>
    1874:	80 38       	cpi	r24, 0x80	; 128
    1876:	b1 f7       	brne	.-20     	; 0x1864 <odpowiedz_na_polecenie+0x2f0>
      if (++nr_zapytania_o_pin >= 20) {
    1878:	80 91 25 02 	lds	r24, 0x0225	; 0x800225 <nr_zapytania_o_pin.3233>
    187c:	8f 5f       	subi	r24, 0xFF	; 255
    187e:	80 93 25 02 	sts	0x0225, r24	; 0x800225 <nr_zapytania_o_pin.3233>
    1882:	84 31       	cpi	r24, 0x14	; 20
    1884:	18 f0       	brcs	.+6      	; 0x188c <odpowiedz_na_polecenie+0x318>
        reset_modulu_SIM900();
    1886:	0e 94 08 0a 	call	0x1410	; 0x1410 <reset_modulu_SIM900>
    188a:	df cf       	rjmp	.-66     	; 0x184a <odpowiedz_na_polecenie+0x2d6>
        opoznienie_SIM900_100MS = 20;
    188c:	84 e1       	ldi	r24, 0x14	; 20
    188e:	80 93 18 02 	sts	0x0218, r24	; 0x800218 <opoznienie_SIM900_100MS>
    1892:	e8 cf       	rjmp	.-48     	; 0x1864 <odpowiedz_na_polecenie+0x2f0>
    if (kom == OK_KOMENDA_SIM900) {
    1894:	d1 30       	cpi	r29, 0x01	; 1
    1896:	61 f4       	brne	.+24     	; 0x18b0 <odpowiedz_na_polecenie+0x33c>
      podlaczona_karta_SIM_SIM900 = TRUE;
    1898:	8f ef       	ldi	r24, 0xFF	; 255
    189a:	80 93 36 02 	sts	0x0236, r24	; 0x800236 <podlaczona_karta_SIM_SIM900>
      bledny_PIN = FALSE;
    189e:	10 92 3e 02 	sts	0x023E, r1	; 0x80023e <bledny_PIN>
      dodaj_komende(KOMENDA_KOLEJKI_USUN_WSZYSTKIE_SMSY);
    18a2:	82 e9       	ldi	r24, 0x92	; 146
    18a4:	0e 94 54 27 	call	0x4ea8	; 0x4ea8 <dodaj_komende>
      opoznienie_SIM900_100MS = 50;
    18a8:	82 e3       	ldi	r24, 0x32	; 50
      opoznienie_SIM900_100MS = 20;
    18aa:	80 93 18 02 	sts	0x0218, r24	; 0x800218 <opoznienie_SIM900_100MS>
      break;
    18ae:	7d ce       	rjmp	.-774    	; 0x15aa <odpowiedz_na_polecenie+0x36>
    } else if (kom == CME_ERROR_KOMENDA_SIM900 &&
    18b0:	d5 30       	cpi	r29, 0x05	; 5
    18b2:	79 f4       	brne	.+30     	; 0x18d2 <odpowiedz_na_polecenie+0x35e>
               numer_bledu_cme == CME_SIM_INCORECT_PASWORD)
    18b4:	80 91 3c 02 	lds	r24, 0x023C	; 0x80023c <numer_bledu_cme>
    18b8:	90 91 3d 02 	lds	r25, 0x023D	; 0x80023d <numer_bledu_cme+0x1>
    } else if (kom == CME_ERROR_KOMENDA_SIM900 &&
    18bc:	80 31       	cpi	r24, 0x10	; 16
    18be:	91 05       	cpc	r25, r1
    18c0:	21 f4       	brne	.+8      	; 0x18ca <odpowiedz_na_polecenie+0x356>
      bledny_PIN = TRUE;
    18c2:	8f ef       	ldi	r24, 0xFF	; 255
    18c4:	80 93 3e 02 	sts	0x023E, r24	; 0x80023e <bledny_PIN>
    18c8:	70 ce       	rjmp	.-800    	; 0x15aa <odpowiedz_na_polecenie+0x36>
    else if (kom == CME_ERROR_KOMENDA_SIM900 && numer_bledu_cme == CME_SIM_BUSY)
    18ca:	0e 97       	sbiw	r24, 0x0e	; 14
    18cc:	21 f4       	brne	.+8      	; 0x18d6 <odpowiedz_na_polecenie+0x362>
      dodaj_komende(aktualnie_wysylane_polecenie_SIM900);
    18ce:	8e e8       	ldi	r24, 0x8E	; 142
    18d0:	ca cf       	rjmp	.-108    	; 0x1866 <odpowiedz_na_polecenie+0x2f2>
    else if (kom == ERROR_KOMENDA_SIM900 || czy_jest_blad_SIM900())
    18d2:	d4 30       	cpi	r29, 0x04	; 4
    18d4:	e1 f3       	breq	.-8      	; 0x18ce <odpowiedz_na_polecenie+0x35a>
    18d6:	80 91 38 02 	lds	r24, 0x0238	; 0x800238 <komenda_SIM900>
    18da:	f9 cf       	rjmp	.-14     	; 0x18ce <odpowiedz_na_polecenie+0x35a>
    if (kom == OK_KOMENDA_SIM900)
    18dc:	d1 30       	cpi	r29, 0x01	; 1
    18de:	11 f4       	brne	.+4      	; 0x18e4 <odpowiedz_na_polecenie+0x370>
      dodaj_komende(aktualnie_wysylane_polecenie_SIM900);
    18e0:	80 ea       	ldi	r24, 0xA0	; 160
    18e2:	c1 cf       	rjmp	.-126    	; 0x1866 <odpowiedz_na_polecenie+0x2f2>
    else if (kom == CMS_ERROR_KOMENDA_SIM900) {
    18e4:	d6 30       	cpi	r29, 0x06	; 6
    18e6:	89 f4       	brne	.+34     	; 0x190a <odpowiedz_na_polecenie+0x396>
      if (numer_bledu_cms == CMS_SIM_BUSY ||
    18e8:	80 91 3a 02 	lds	r24, 0x023A	; 0x80023a <numer_bledu_cms>
    18ec:	90 91 3b 02 	lds	r25, 0x023B	; 0x80023b <numer_bledu_cms+0x1>
    18f0:	8a 33       	cpi	r24, 0x3A	; 58
    18f2:	21 e0       	ldi	r18, 0x01	; 1
    18f4:	92 07       	cpc	r25, r18
    18f6:	21 f0       	breq	.+8      	; 0x1900 <odpowiedz_na_polecenie+0x38c>
    18f8:	85 30       	cpi	r24, 0x05	; 5
    18fa:	92 40       	sbci	r25, 0x02	; 2
    18fc:	09 f0       	breq	.+2      	; 0x1900 <odpowiedz_na_polecenie+0x38c>
    18fe:	55 ce       	rjmp	.-854    	; 0x15aa <odpowiedz_na_polecenie+0x36>
        opoznienie_SIM900_100MS = 60;
    1900:	8c e3       	ldi	r24, 0x3C	; 60
    1902:	80 93 18 02 	sts	0x0218, r24	; 0x800218 <opoznienie_SIM900_100MS>
      dodaj_komende(aktualnie_wysylane_polecenie_SIM900);
    1906:	82 e9       	ldi	r24, 0x92	; 146
    1908:	ae cf       	rjmp	.-164    	; 0x1866 <odpowiedz_na_polecenie+0x2f2>
    } else if (kom == ERROR_KOMENDA_SIM900 || czy_jest_blad_SIM900())
    190a:	d4 30       	cpi	r29, 0x04	; 4
    190c:	e1 f3       	breq	.-8      	; 0x1906 <odpowiedz_na_polecenie+0x392>
    190e:	80 91 38 02 	lds	r24, 0x0238	; 0x800238 <komenda_SIM900>
    1912:	80 38       	cpi	r24, 0x80	; 128
    1914:	09 f0       	breq	.+2      	; 0x1918 <odpowiedz_na_polecenie+0x3a4>
    1916:	49 ce       	rjmp	.-878    	; 0x15aa <odpowiedz_na_polecenie+0x36>
    1918:	f6 cf       	rjmp	.-20     	; 0x1906 <odpowiedz_na_polecenie+0x392>
    else if (kom == CMS_ERROR_KOMENDA_SIM900) {
    191a:	d6 30       	cpi	r29, 0x06	; 6
    191c:	81 f4       	brne	.+32     	; 0x193e <odpowiedz_na_polecenie+0x3ca>
      if (numer_bledu_cms == CMS_SIM_BUSY ||
    191e:	80 91 3a 02 	lds	r24, 0x023A	; 0x80023a <numer_bledu_cms>
    1922:	90 91 3b 02 	lds	r25, 0x023B	; 0x80023b <numer_bledu_cms+0x1>
    1926:	8a 33       	cpi	r24, 0x3A	; 58
    1928:	21 e0       	ldi	r18, 0x01	; 1
    192a:	92 07       	cpc	r25, r18
    192c:	21 f0       	breq	.+8      	; 0x1936 <odpowiedz_na_polecenie+0x3c2>
    192e:	85 30       	cpi	r24, 0x05	; 5
    1930:	92 40       	sbci	r25, 0x02	; 2
    1932:	09 f0       	breq	.+2      	; 0x1936 <odpowiedz_na_polecenie+0x3c2>
    1934:	3a ce       	rjmp	.-908    	; 0x15aa <odpowiedz_na_polecenie+0x36>
        opoznienie_SIM900_100MS = 20;
    1936:	84 e1       	ldi	r24, 0x14	; 20
      opoznienie_SIM900_100MS = 10;
    1938:	80 93 18 02 	sts	0x0218, r24	; 0x800218 <opoznienie_SIM900_100MS>
    193c:	d1 cf       	rjmp	.-94     	; 0x18e0 <odpowiedz_na_polecenie+0x36c>
    193e:	8a e0       	ldi	r24, 0x0A	; 10
    1940:	fb cf       	rjmp	.-10     	; 0x1938 <odpowiedz_na_polecenie+0x3c4>
    if (kom == OK_KOMENDA_SIM900 ||
    1942:	d1 30       	cpi	r29, 0x01	; 1
    1944:	49 f0       	breq	.+18     	; 0x1958 <odpowiedz_na_polecenie+0x3e4>
    1946:	d5 30       	cpi	r29, 0x05	; 5
    1948:	81 f4       	brne	.+32     	; 0x196a <odpowiedz_na_polecenie+0x3f6>
         (numer_bledu_cme == CME_OPERATION_NOT_ALLOWED ||
    194a:	80 91 3c 02 	lds	r24, 0x023C	; 0x80023c <numer_bledu_cme>
    194e:	90 91 3d 02 	lds	r25, 0x023D	; 0x80023d <numer_bledu_cme+0x1>
    1952:	03 97       	sbiw	r24, 0x03	; 3
        (kom == CME_ERROR_KOMENDA_SIM900 &&
    1954:	02 97       	sbiw	r24, 0x02	; 2
    1956:	48 f4       	brcc	.+18     	; 0x196a <odpowiedz_na_polecenie+0x3f6>
      dodaj_komende(nastepne_wysylane_polecenie_SIM900);
    1958:	80 91 13 02 	lds	r24, 0x0213	; 0x800213 <nastepne_wysylane_polecenie_SIM900>
    195c:	0e 94 54 27 	call	0x4ea8	; 0x4ea8 <dodaj_komende>
      nastepne_wysylane_polecenie_SIM900 = KOMENDA_KOLEJKI_BRAK_KOMENDY;
    1960:	10 92 13 02 	sts	0x0213, r1	; 0x800213 <nastepne_wysylane_polecenie_SIM900>
      liczba_wykonanych_komend_identycznego_polecenia = 0;
    1964:	10 92 6d 03 	sts	0x036D, r1	; 0x80036d <liczba_wykonanych_komend_identycznego_polecenia>
    1968:	0a c0       	rjmp	.+20     	; 0x197e <odpowiedz_na_polecenie+0x40a>
               ++liczba_wykonanych_komend_identycznego_polecenia <
    196a:	80 91 6d 03 	lds	r24, 0x036D	; 0x80036d <liczba_wykonanych_komend_identycznego_polecenia>
    196e:	8f 5f       	subi	r24, 0xFF	; 255
    } else if (kom != OK_KOMENDA_SIM900 &&
    1970:	80 93 6d 03 	sts	0x036D, r24	; 0x80036d <liczba_wykonanych_komend_identycznego_polecenia>
    1974:	83 30       	cpi	r24, 0x03	; 3
    1976:	18 f4       	brcc	.+6      	; 0x197e <odpowiedz_na_polecenie+0x40a>
      dodaj_komende(aktualnie_wysylane_polecenie_SIM900);
    1978:	82 ea       	ldi	r24, 0xA2	; 162
    197a:	0e 94 54 27 	call	0x4ea8	; 0x4ea8 <dodaj_komende>
    opoznienie_SIM900_100MS = 2;
    197e:	82 e0       	ldi	r24, 0x02	; 2
    1980:	94 cf       	rjmp	.-216    	; 0x18aa <odpowiedz_na_polecenie+0x336>
    if (kom == OK_KOMENDA_SIM900) {
    1982:	d1 30       	cpi	r29, 0x01	; 1
    1984:	89 f4       	brne	.+34     	; 0x19a8 <odpowiedz_na_polecenie+0x434>
      const uchar *p1 = polozenie_polecenia_SIM900(urc);
    1986:	8c e2       	ldi	r24, 0x2C	; 44
    1988:	92 e0       	ldi	r25, 0x02	; 2
    198a:	0e 94 79 03 	call	0x6f2	; 0x6f2 <polozenie_polecenia_SIM900>
      if (p1 != NULL) {
    198e:	00 97       	sbiw	r24, 0x00	; 0
    1990:	09 f4       	brne	.+2      	; 0x1994 <odpowiedz_na_polecenie+0x420>
    1992:	0b ce       	rjmp	.-1002   	; 0x15aa <odpowiedz_na_polecenie+0x36>
        poziom_sieci_gsm = strtol(p1, NULL, 10);
    1994:	4a e0       	ldi	r20, 0x0A	; 10
    1996:	50 e0       	ldi	r21, 0x00	; 0
    1998:	70 e0       	ldi	r23, 0x00	; 0
    199a:	60 e0       	ldi	r22, 0x00	; 0
    199c:	06 96       	adiw	r24, 0x06	; 6
    199e:	0e 94 91 2c 	call	0x5922	; 0x5922 <strtol>
    19a2:	60 93 06 01 	sts	0x0106, r22	; 0x800106 <poziom_sieci_gsm>
    19a6:	01 ce       	rjmp	.-1022   	; 0x15aa <odpowiedz_na_polecenie+0x36>
      poziom_sieci_gsm = POZIOM_SIECI_BLAD;
    19a8:	83 e6       	ldi	r24, 0x63	; 99
    19aa:	80 93 06 01 	sts	0x0106, r24	; 0x800106 <poziom_sieci_gsm>
    19ae:	fd cd       	rjmp	.-1030   	; 0x15aa <odpowiedz_na_polecenie+0x36>
          ++p1;
    19b0:	38 96       	adiw	r30, 0x08	; 8
    19b2:	43 ce       	rjmp	.-890    	; 0x163a <odpowiedz_na_polecenie+0xc6>
        } else if (stan_zarejestrowania == 1 || stan_zarejestrowania == 5) {
    19b4:	6b 7f       	andi	r22, 0xFB	; 251
    19b6:	61 30       	cpi	r22, 0x01	; 1
    19b8:	09 f0       	breq	.+2      	; 0x19bc <odpowiedz_na_polecenie+0x448>
    19ba:	f7 cd       	rjmp	.-1042   	; 0x15aa <odpowiedz_na_polecenie+0x36>
          modul_zalogowany_w_sieci = TRUE;
    19bc:	8f ef       	ldi	r24, 0xFF	; 255
    19be:	80 93 e7 01 	sts	0x01E7, r24	; 0x8001e7 <modul_zalogowany_w_sieci>
    19c2:	f3 cd       	rjmp	.-1050   	; 0x15aa <odpowiedz_na_polecenie+0x36>
    if (kom == OK_KOMENDA_SIM900 || (kom == CME_ERROR_KOMENDA_SIM900 &&
    19c4:	d1 30       	cpi	r29, 0x01	; 1
    19c6:	49 f0       	breq	.+18     	; 0x19da <odpowiedz_na_polecenie+0x466>
    19c8:	d5 30       	cpi	r29, 0x05	; 5
    19ca:	51 f4       	brne	.+20     	; 0x19e0 <odpowiedz_na_polecenie+0x46c>
                                     (numer_bledu_cme == CME_INVALID_INDEX ||
    19cc:	80 91 3c 02 	lds	r24, 0x023C	; 0x80023c <numer_bledu_cme>
    19d0:	90 91 3d 02 	lds	r25, 0x023D	; 0x80023d <numer_bledu_cme+0x1>
    19d4:	45 97       	sbiw	r24, 0x15	; 21
    if (kom == OK_KOMENDA_SIM900 || (kom == CME_ERROR_KOMENDA_SIM900 &&
    19d6:	02 97       	sbiw	r24, 0x02	; 2
    19d8:	18 f4       	brcc	.+6      	; 0x19e0 <odpowiedz_na_polecenie+0x46c>
      licznik_blad_stanu_karty_SIM = 0;
    19da:	10 92 06 02 	sts	0x0206, r1	; 0x800206 <licznik_blad_stanu_karty_SIM>
    19de:	e5 cd       	rjmp	.-1078   	; 0x15aa <odpowiedz_na_polecenie+0x36>
      ++licznik_blad_stanu_karty_SIM;
    19e0:	80 91 06 02 	lds	r24, 0x0206	; 0x800206 <licznik_blad_stanu_karty_SIM>
    19e4:	8f 5f       	subi	r24, 0xFF	; 255
    19e6:	80 93 06 02 	sts	0x0206, r24	; 0x800206 <licznik_blad_stanu_karty_SIM>
    19ea:	df cd       	rjmp	.-1090   	; 0x15aa <odpowiedz_na_polecenie+0x36>
    if (kom == OK_KOMENDA_SIM900 && czy_polecenie_sim(polecenie_operator)) {
    19ec:	d1 30       	cpi	r29, 0x01	; 1
    19ee:	09 f0       	breq	.+2      	; 0x19f2 <odpowiedz_na_polecenie+0x47e>
    19f0:	42 c0       	rjmp	.+132    	; 0x1a76 <odpowiedz_na_polecenie+0x502>
  return strncmp_P(odebrany_blok_SIM900 + 2, polecenie, liczba_znakow) == 0;
    19f2:	46 e0       	ldi	r20, 0x06	; 6
    19f4:	50 e0       	ldi	r21, 0x00	; 0
    19f6:	6e e1       	ldi	r22, 0x1E	; 30
    19f8:	72 e0       	ldi	r23, 0x02	; 2
    19fa:	89 eb       	ldi	r24, 0xB9	; 185
    19fc:	93 e0       	ldi	r25, 0x03	; 3
    19fe:	0e 94 08 2f 	call	0x5e10	; 0x5e10 <strncmp_P>
    if (kom == OK_KOMENDA_SIM900 && czy_polecenie_sim(polecenie_operator)) {
    1a02:	89 2b       	or	r24, r25
    1a04:	c1 f5       	brne	.+112    	; 0x1a76 <odpowiedz_na_polecenie+0x502>
          strchr(polozenie_polecenia_SIM900(polecenie_operator), ',');
    1a06:	8e e1       	ldi	r24, 0x1E	; 30
    1a08:	92 e0       	ldi	r25, 0x02	; 2
    1a0a:	0e 94 79 03 	call	0x6f2	; 0x6f2 <polozenie_polecenia_SIM900>
      const uchar *p1 =
    1a0e:	6c e2       	ldi	r22, 0x2C	; 44
    1a10:	70 e0       	ldi	r23, 0x00	; 0
    1a12:	0e 94 58 2f 	call	0x5eb0	; 0x5eb0 <strchr>
      if (p1 != NULL) {
    1a16:	00 97       	sbiw	r24, 0x00	; 0
    1a18:	71 f1       	breq	.+92     	; 0x1a76 <odpowiedz_na_polecenie+0x502>
        p1 = strchr(p1, ',');
    1a1a:	6c e2       	ldi	r22, 0x2C	; 44
    1a1c:	70 e0       	ldi	r23, 0x00	; 0
    1a1e:	0e 94 58 2f 	call	0x5eb0	; 0x5eb0 <strchr>
        if (p1 != NULL) {
    1a22:	00 97       	sbiw	r24, 0x00	; 0
    1a24:	41 f1       	breq	.+80     	; 0x1a76 <odpowiedz_na_polecenie+0x502>
          p1 = strchr(p1, '\"');
    1a26:	62 e2       	ldi	r22, 0x22	; 34
    1a28:	70 e0       	ldi	r23, 0x00	; 0
    1a2a:	0e 94 58 2f 	call	0x5eb0	; 0x5eb0 <strchr>
          if (p1++ != NULL) {
    1a2e:	00 97       	sbiw	r24, 0x00	; 0
    1a30:	11 f1       	breq	.+68     	; 0x1a76 <odpowiedz_na_polecenie+0x502>
    1a32:	8c 01       	movw	r16, r24
    1a34:	0f 5f       	subi	r16, 0xFF	; 255
    1a36:	1f 4f       	sbci	r17, 0xFF	; 255
            const uchar *p2 = strchr(p1, '\"');
    1a38:	62 e2       	ldi	r22, 0x22	; 34
    1a3a:	70 e0       	ldi	r23, 0x00	; 0
    1a3c:	c8 01       	movw	r24, r16
    1a3e:	0e 94 58 2f 	call	0x5eb0	; 0x5eb0 <strchr>
            if (p2 != NULL && p1 != p2) {
    1a42:	00 97       	sbiw	r24, 0x00	; 0
    1a44:	c1 f0       	breq	.+48     	; 0x1a76 <odpowiedz_na_polecenie+0x502>
    1a46:	08 17       	cp	r16, r24
    1a48:	19 07       	cpc	r17, r25
    1a4a:	a9 f0       	breq	.+42     	; 0x1a76 <odpowiedz_na_polecenie+0x502>
              const uchar m = min(p2 - p1, ROZMIAR_NAZWA_OPERATORA);
    1a4c:	80 1b       	sub	r24, r16
    1a4e:	91 0b       	sbc	r25, r17
    1a50:	8c 30       	cpi	r24, 0x0C	; 12
    1a52:	91 05       	cpc	r25, r1
    1a54:	14 f0       	brlt	.+4      	; 0x1a5a <odpowiedz_na_polecenie+0x4e6>
    1a56:	8b e0       	ldi	r24, 0x0B	; 11
    1a58:	90 e0       	ldi	r25, 0x00	; 0
    1a5a:	ec 01       	movw	r28, r24
    1a5c:	dd 27       	eor	r29, r29
              memcpy(nazwa_operatora, p1, m);
    1a5e:	ae 01       	movw	r20, r28
    1a60:	b8 01       	movw	r22, r16
    1a62:	85 e4       	ldi	r24, 0x45	; 69
    1a64:	92 e0       	ldi	r25, 0x02	; 2
    1a66:	0e 94 3d 2f 	call	0x5e7a	; 0x5e7a <memcpy>
              nazwa_operatora[m] = '\0';
    1a6a:	cb 5b       	subi	r28, 0xBB	; 187
    1a6c:	dd 4f       	sbci	r29, 0xFD	; 253
    1a6e:	18 82       	st	Y, r1
      licznik_blad_zalogowania_u_operatora = 0;
    1a70:	10 92 05 02 	sts	0x0205, r1	; 0x800205 <licznik_blad_zalogowania_u_operatora>
    1a74:	9a cd       	rjmp	.-1228   	; 0x15aa <odpowiedz_na_polecenie+0x36>
      ++licznik_blad_zalogowania_u_operatora;
    1a76:	80 91 05 02 	lds	r24, 0x0205	; 0x800205 <licznik_blad_zalogowania_u_operatora>
    1a7a:	8f 5f       	subi	r24, 0xFF	; 255
    1a7c:	80 93 05 02 	sts	0x0205, r24	; 0x800205 <licznik_blad_zalogowania_u_operatora>
    1a80:	94 cd       	rjmp	.-1240   	; 0x15aa <odpowiedz_na_polecenie+0x36>
    if (kom ==
    1a82:	d6 30       	cpi	r29, 0x06	; 6
    1a84:	09 f4       	brne	.+2      	; 0x1a88 <odpowiedz_na_polecenie+0x514>
    1a86:	7b cf       	rjmp	.-266    	; 0x197e <odpowiedz_na_polecenie+0x40a>
      dodaj_komende(aktualnie_wysylane_polecenie_SIM900);
    1a88:	85 e9       	ldi	r24, 0x95	; 149
    else if (kom != OK_KOMENDA_SIM900)
    1a8a:	d1 30       	cpi	r29, 0x01	; 1
    1a8c:	09 f0       	breq	.+2      	; 0x1a90 <odpowiedz_na_polecenie+0x51c>
    1a8e:	75 cf       	rjmp	.-278    	; 0x197a <odpowiedz_na_polecenie+0x406>
    1a90:	76 cf       	rjmp	.-276    	; 0x197e <odpowiedz_na_polecenie+0x40a>
    if (kom == OK_KOMENDA_SIM900 ||
    1a92:	d1 30       	cpi	r29, 0x01	; 1
    1a94:	21 f0       	breq	.+8      	; 0x1a9e <odpowiedz_na_polecenie+0x52a>
        czy_jest_komenda_uzytkownik_odebral_rozmowe()) {
    1a96:	80 91 38 02 	lds	r24, 0x0238	; 0x800238 <komenda_SIM900>
    if (kom == OK_KOMENDA_SIM900 ||
    1a9a:	8c 30       	cpi	r24, 0x0C	; 12
    1a9c:	a1 f4       	brne	.+40     	; 0x1ac6 <odpowiedz_na_polecenie+0x552>
      trwa_rozmowa_przychodzaca_od_uzytkownika = TRUE;
    1a9e:	8f ef       	ldi	r24, 0xFF	; 255
    1aa0:	80 93 12 02 	sts	0x0212, r24	; 0x800212 <trwa_rozmowa_przychodzaca_od_uzytkownika>
      liczba_wykonanych_komend_identycznego_polecenia = 0;
    1aa4:	10 92 6d 03 	sts	0x036D, r1	; 0x80036d <liczba_wykonanych_komend_identycznego_polecenia>
      if (!tryb_clip) {
    1aa8:	80 91 01 01 	lds	r24, 0x0101	; 0x800101 <tryb_clip>
    1aac:	81 11       	cpse	r24, r1
    1aae:	7d cd       	rjmp	.-1286   	; 0x15aa <odpowiedz_na_polecenie+0x36>
        licznik_timeout_rozmowy_100ms = MAX_LICZNIK_TIMEOUT_ROZMOWY_100MS;
    1ab0:	8c e2       	ldi	r24, 0x2C	; 44
    1ab2:	91 e0       	ldi	r25, 0x01	; 1
    1ab4:	90 93 f3 01 	sts	0x01F3, r25	; 0x8001f3 <licznik_timeout_rozmowy_100ms+0x1>
    1ab8:	80 93 f2 01 	sts	0x01F2, r24	; 0x8001f2 <licznik_timeout_rozmowy_100ms>
        opoznienie_SIM900_100MS =
    1abc:	84 e1       	ldi	r24, 0x14	; 20
    1abe:	80 93 18 02 	sts	0x0218, r24	; 0x800218 <opoznienie_SIM900_100MS>
        dodaj_komende(KOMENDA_KOLEJKI_WYSLIJ_TON_DTMF); // Beep potwierdzenia
    1ac2:	85 ea       	ldi	r24, 0xA5	; 165
    1ac4:	d0 ce       	rjmp	.-608    	; 0x1866 <odpowiedz_na_polecenie+0x2f2>
    } else if ((kom == ERROR_KOMENDA_SIM900 || czy_jest_blad_SIM900()) &&
    1ac6:	d4 30       	cpi	r29, 0x04	; 4
    1ac8:	21 f0       	breq	.+8      	; 0x1ad2 <odpowiedz_na_polecenie+0x55e>
    1aca:	80 91 38 02 	lds	r24, 0x0238	; 0x800238 <komenda_SIM900>
    1ace:	80 38       	cpi	r24, 0x80	; 128
    1ad0:	49 f4       	brne	.+18     	; 0x1ae4 <odpowiedz_na_polecenie+0x570>
               ++liczba_wykonanych_komend_identycznego_polecenia <
    1ad2:	80 91 6d 03 	lds	r24, 0x036D	; 0x80036d <liczba_wykonanych_komend_identycznego_polecenia>
    1ad6:	8f 5f       	subi	r24, 0xFF	; 255
    } else if ((kom == ERROR_KOMENDA_SIM900 || czy_jest_blad_SIM900()) &&
    1ad8:	80 93 6d 03 	sts	0x036D, r24	; 0x80036d <liczba_wykonanych_komend_identycznego_polecenia>
    1adc:	83 30       	cpi	r24, 0x03	; 3
    1ade:	10 f4       	brcc	.+4      	; 0x1ae4 <odpowiedz_na_polecenie+0x570>
      dodaj_komende(aktualnie_wysylane_polecenie_SIM900);
    1ae0:	86 e9       	ldi	r24, 0x96	; 150
    1ae2:	c1 ce       	rjmp	.-638    	; 0x1866 <odpowiedz_na_polecenie+0x2f2>
    else if (kom == NO_CARRIER_KOMENDA_SIM900) {
    1ae4:	d3 30       	cpi	r29, 0x03	; 3
    1ae6:	11 f4       	brne	.+4      	; 0x1aec <odpowiedz_na_polecenie+0x578>
      trwa_rozmowa_przychodzaca_od_uzytkownika = FALSE;
    1ae8:	10 92 12 02 	sts	0x0212, r1	; 0x800212 <trwa_rozmowa_przychodzaca_od_uzytkownika>
      liczba_wykonanych_komend_identycznego_polecenia = 0;
    1aec:	10 92 6d 03 	sts	0x036D, r1	; 0x80036d <liczba_wykonanych_komend_identycznego_polecenia>
    1af0:	5c cd       	rjmp	.-1352   	; 0x15aa <odpowiedz_na_polecenie+0x36>
    if (kom == OK_KOMENDA_SIM900) {
    1af2:	d1 30       	cpi	r29, 0x01	; 1
    1af4:	a9 f5       	brne	.+106    	; 0x1b60 <odpowiedz_na_polecenie+0x5ec>
      const uchar *ptr = polozenie_polecenia_SIM900(PSTR("+CMGR:")); // (1)
    1af6:	87 e1       	ldi	r24, 0x17	; 23
    1af8:	92 e0       	ldi	r25, 0x02	; 2
    1afa:	0e 94 79 03 	call	0x6f2	; 0x6f2 <polozenie_polecenia_SIM900>
      ptr = strchr(ptr, ZNAK_KONCA_ODBIERANIA_ZNAKOW_LF);            // (1)
    1afe:	6a e0       	ldi	r22, 0x0A	; 10
    1b00:	70 e0       	ldi	r23, 0x00	; 0
    1b02:	0e 94 58 2f 	call	0x5eb0	; 0x5eb0 <strchr>
      if (ptr != NULL) {
    1b06:	00 97       	sbiw	r24, 0x00	; 0
    1b08:	41 f1       	breq	.+80     	; 0x1b5a <odpowiedz_na_polecenie+0x5e6>
        ++ptr;
    1b0a:	ec 01       	movw	r28, r24
    1b0c:	21 96       	adiw	r28, 0x01	; 1
        const uchar *ptr2 = strchr(ptr, ZNAK_KONCA_WYSYLANIA_ZNAKOW_CR);
    1b0e:	6d e0       	ldi	r22, 0x0D	; 13
    1b10:	70 e0       	ldi	r23, 0x00	; 0
    1b12:	ce 01       	movw	r24, r28
    1b14:	0e 94 58 2f 	call	0x5eb0	; 0x5eb0 <strchr>
        if (ptr2 != NULL) {
    1b18:	00 97       	sbiw	r24, 0x00	; 0
    1b1a:	f9 f0       	breq	.+62     	; 0x1b5a <odpowiedz_na_polecenie+0x5e6>
          dlugosc_pdu = (ptr2 - ptr) / 2;
    1b1c:	8c 1b       	sub	r24, r28
    1b1e:	9d 0b       	sbc	r25, r29
    1b20:	97 fd       	sbrc	r25, 7
    1b22:	01 96       	adiw	r24, 0x01	; 1
    1b24:	95 95       	asr	r25
    1b26:	87 95       	ror	r24
          if (dlugosc_pdu > MAX_DLUGOSC_PDU)
    1b28:	89 3c       	cpi	r24, 0xC9	; 201
    1b2a:	a8 f4       	brcc	.+42     	; 0x1b56 <odpowiedz_na_polecenie+0x5e2>
            dlugosc_pdu = MAX_DLUGOSC_PDU;
    1b2c:	80 93 0f 02 	sts	0x020F, r24	; 0x80020f <dlugosc_pdu>
          konwertuj_blok_dwa_znaki_na_znak_pdu(ptr, dlugosc_pdu, bufor_pdu);
    1b30:	41 e7       	ldi	r20, 0x71	; 113
    1b32:	52 e0       	ldi	r21, 0x02	; 2
    1b34:	60 91 0f 02 	lds	r22, 0x020F	; 0x80020f <dlugosc_pdu>
    1b38:	ce 01       	movw	r24, r28
    1b3a:	0e 94 9d 2a 	call	0x553a	; 0x553a <konwertuj_blok_dwa_znaki_na_znak_pdu>
          dodaj_komende(KOMENDA_KOLEJKI_INTERPRETUJ_PDU);
    1b3e:	82 ed       	ldi	r24, 0xD2	; 210
    1b40:	0e 94 54 27 	call	0x4ea8	; 0x4ea8 <dodaj_komende>
          dodaj_komende(KOMENDA_KOLEJKI_USUN_SMSA_1 + nr_smsa);
    1b44:	80 91 16 02 	lds	r24, 0x0216	; 0x800216 <aktualnie_wysylane_polecenie_SIM900>
    1b48:	8c 5e       	subi	r24, 0xEC	; 236
    1b4a:	0e 94 54 27 	call	0x4ea8	; 0x4ea8 <dodaj_komende>
          flaga_odczytywanie_smsa = TRUE;
    1b4e:	8f ef       	ldi	r24, 0xFF	; 255
    1b50:	80 93 0e 02 	sts	0x020E, r24	; 0x80020e <flaga_odczytywanie_smsa>
    1b54:	2a cd       	rjmp	.-1452   	; 0x15aa <odpowiedz_na_polecenie+0x36>
            dlugosc_pdu = MAX_DLUGOSC_PDU;
    1b56:	88 ec       	ldi	r24, 0xC8	; 200
    1b58:	e9 cf       	rjmp	.-46     	; 0x1b2c <odpowiedz_na_polecenie+0x5b8>
          flaga_odczytywanie_smsa = FALSE;
    1b5a:	10 92 0e 02 	sts	0x020E, r1	; 0x80020e <flaga_odczytywanie_smsa>
    1b5e:	25 cd       	rjmp	.-1462   	; 0x15aa <odpowiedz_na_polecenie+0x36>
    } else if (kom == CME_ERROR_KOMENDA_SIM900) {
    1b60:	d6 30       	cpi	r29, 0x06	; 6
    1b62:	21 f0       	breq	.+8      	; 0x1b6c <odpowiedz_na_polecenie+0x5f8>
      flaga_odczytywanie_smsa = FALSE;
    1b64:	10 92 0e 02 	sts	0x020E, r1	; 0x80020e <flaga_odczytywanie_smsa>
      opoznienie_SIM900_100MS = 60;
    1b68:	8c e3       	ldi	r24, 0x3C	; 60
    1b6a:	9f ce       	rjmp	.-706    	; 0x18aa <odpowiedz_na_polecenie+0x336>
      dodaj_komende(aktualnie_wysylane_polecenie_SIM900);
    1b6c:	8c 2f       	mov	r24, r28
    1b6e:	0e 94 54 27 	call	0x4ea8	; 0x4ea8 <dodaj_komende>
    1b72:	f8 cf       	rjmp	.-16     	; 0x1b64 <odpowiedz_na_polecenie+0x5f0>
    } else if (kom == ERROR_KOMENDA_SIM900)
    1b74:	d4 30       	cpi	r29, 0x04	; 4
    1b76:	09 f4       	brne	.+2      	; 0x1b7a <odpowiedz_na_polecenie+0x606>
    1b78:	a5 cd       	rjmp	.-1206   	; 0x16c4 <odpowiedz_na_polecenie+0x150>
    else if (czy_jest_blad_SIM900())
    1b7a:	80 91 38 02 	lds	r24, 0x0238	; 0x800238 <komenda_SIM900>
    1b7e:	80 38       	cpi	r24, 0x80	; 128
    1b80:	09 f4       	brne	.+2      	; 0x1b84 <odpowiedz_na_polecenie+0x610>
    1b82:	a0 cd       	rjmp	.-1216   	; 0x16c4 <odpowiedz_na_polecenie+0x150>
    opoznienie_SIM900_100MS = 25;
    1b84:	89 e1       	ldi	r24, 0x19	; 25
    1b86:	91 ce       	rjmp	.-734    	; 0x18aa <odpowiedz_na_polecenie+0x336>
    if (kom == ERROR_KOMENDA_SIM900 || czy_jest_blad_SIM900()) {
    1b88:	d4 30       	cpi	r29, 0x04	; 4
    1b8a:	29 f0       	breq	.+10     	; 0x1b96 <odpowiedz_na_polecenie+0x622>
    1b8c:	80 91 38 02 	lds	r24, 0x0238	; 0x800238 <komenda_SIM900>
    1b90:	80 38       	cpi	r24, 0x80	; 128
    1b92:	09 f0       	breq	.+2      	; 0x1b96 <odpowiedz_na_polecenie+0x622>
    1b94:	ab cf       	rjmp	.-170    	; 0x1aec <odpowiedz_na_polecenie+0x578>
      wykonywanie_rozmowy_telefonicznej = FALSE;
    1b96:	10 92 b4 03 	sts	0x03B4, r1	; 0x8003b4 <wykonywanie_rozmowy_telefonicznej>
      if (++liczba_wykonanych_komend_identycznego_polecenia <
    1b9a:	80 91 6d 03 	lds	r24, 0x036D	; 0x80036d <liczba_wykonanych_komend_identycznego_polecenia>
    1b9e:	8f 5f       	subi	r24, 0xFF	; 255
    1ba0:	80 93 6d 03 	sts	0x036D, r24	; 0x80036d <liczba_wykonanych_komend_identycznego_polecenia>
    1ba4:	83 30       	cpi	r24, 0x03	; 3
    1ba6:	10 f4       	brcc	.+4      	; 0x1bac <odpowiedz_na_polecenie+0x638>
        dodaj_komende(aktualnie_wysylane_polecenie_SIM900);
    1ba8:	86 ed       	ldi	r24, 0xD6	; 214
    1baa:	5d ce       	rjmp	.-838    	; 0x1866 <odpowiedz_na_polecenie+0x2f2>
        liczba_wykonanych_komend_identycznego_polecenia = 0;
    1bac:	10 92 6d 03 	sts	0x036D, r1	; 0x80036d <liczba_wykonanych_komend_identycznego_polecenia>
        zakonczono_rozmowe_telefoniczna(powod_zakonczenia_rozmowy_odrzucenie);
    1bb0:	80 e0       	ldi	r24, 0x00	; 0
    1bb2:	0e 94 c9 09 	call	0x1392	; 0x1392 <zakonczono_rozmowe_telefoniczna>
        trwa_rozmowa_przychodzaca_od_uzytkownika = FALSE;
    1bb6:	10 92 12 02 	sts	0x0212, r1	; 0x800212 <trwa_rozmowa_przychodzaca_od_uzytkownika>
        wykonywanie_rozmowy_telefonicznej = FALSE;
    1bba:	10 92 b4 03 	sts	0x03B4, r1	; 0x8003b4 <wykonywanie_rozmowy_telefonicznej>
        licznik_bezpieczenstwa_wykonywana_rozmowa = 0;
    1bbe:	10 92 11 02 	sts	0x0211, r1	; 0x800211 <licznik_bezpieczenstwa_wykonywana_rozmowa+0x1>
    1bc2:	10 92 10 02 	sts	0x0210, r1	; 0x800210 <licznik_bezpieczenstwa_wykonywana_rozmowa>
    1bc6:	f1 cc       	rjmp	.-1566   	; 0x15aa <odpowiedz_na_polecenie+0x36>
    if (kom != OK_KOMENDA_SIM900) {
    1bc8:	d1 30       	cpi	r29, 0x01	; 1
    1bca:	29 f0       	breq	.+10     	; 0x1bd6 <odpowiedz_na_polecenie+0x662>
      dodaj_komende(aktualnie_wysylane_polecenie_SIM900);
    1bcc:	8f e8       	ldi	r24, 0x8F	; 143
    1bce:	0e 94 54 27 	call	0x4ea8	; 0x4ea8 <dodaj_komende>
      opoznienie_SIM900_100MS = 20;
    1bd2:	84 e1       	ldi	r24, 0x14	; 20
    1bd4:	6a ce       	rjmp	.-812    	; 0x18aa <odpowiedz_na_polecenie+0x336>
      dodaj_komende(nastepne_wysylane_polecenie_SIM900);
    1bd6:	80 91 13 02 	lds	r24, 0x0213	; 0x800213 <nastepne_wysylane_polecenie_SIM900>
    1bda:	0e 94 54 27 	call	0x4ea8	; 0x4ea8 <dodaj_komende>
              KOMENDA_KOLEJKI_ODCZYTAJ_SMSA_1 &&
    1bde:	80 91 13 02 	lds	r24, 0x0213	; 0x800213 <nastepne_wysylane_polecenie_SIM900>
    1be2:	8a 5a       	subi	r24, 0xAA	; 170
      if (nastepne_wysylane_polecenie_SIM900 >=
    1be4:	84 31       	cpi	r24, 0x14	; 20
    1be6:	08 f0       	brcs	.+2      	; 0x1bea <odpowiedz_na_polecenie+0x676>
    1be8:	bb ce       	rjmp	.-650    	; 0x1960 <odpowiedz_na_polecenie+0x3ec>
        flaga_odczytywanie_smsa = FALSE;
    1bea:	10 92 0e 02 	sts	0x020E, r1	; 0x80020e <flaga_odczytywanie_smsa>
    1bee:	b8 ce       	rjmp	.-656    	; 0x1960 <odpowiedz_na_polecenie+0x3ec>

00001bf0 <obsluga_komendy_SIM900>:

void obsluga_komendy_SIM900(void) {
    1bf0:	0f 93       	push	r16
    1bf2:	1f 93       	push	r17
    1bf4:	cf 93       	push	r28
    1bf6:	df 93       	push	r29
  if (!czy_jest_bezczynny_SIM900())
    1bf8:	80 91 38 02 	lds	r24, 0x0238	; 0x800238 <komenda_SIM900>
    POMOC_SIM900_DODAJ(odebrany_blok_SIM900);

  if (czy_jest_blad_SIM900() || oproznij_bufor_SIM900_po_bledzie) {
    1bfc:	80 91 38 02 	lds	r24, 0x0238	; 0x800238 <komenda_SIM900>
    1c00:	80 38       	cpi	r24, 0x80	; 128
    1c02:	21 f0       	breq	.+8      	; 0x1c0c <obsluga_komendy_SIM900+0x1c>
    1c04:	80 91 17 02 	lds	r24, 0x0217	; 0x800217 <oproznij_bufor_SIM900_po_bledzie>
    1c08:	88 23       	and	r24, r24
    1c0a:	81 f0       	breq	.+32     	; 0x1c2c <obsluga_komendy_SIM900+0x3c>
    komenda_SIM900 = BLAD_SIM900;
    1c0c:	80 e8       	ldi	r24, 0x80	; 128
    1c0e:	80 93 38 02 	sts	0x0238, r24	; 0x800238 <komenda_SIM900>
    odpowiedz_na_polecenie();
    1c12:	0e 94 ba 0a 	call	0x1574	; 0x1574 <odpowiedz_na_polecenie>
    opoznienie_SIM900_100MS = 50;
    1c16:	82 e3       	ldi	r24, 0x32	; 50
    1c18:	80 93 18 02 	sts	0x0218, r24	; 0x800218 <opoznienie_SIM900_100MS>
    oproznij_bufor_SIM900_po_bledzie = TRUE;
    1c1c:	8f ef       	ldi	r24, 0xFF	; 255
    1c1e:	80 93 17 02 	sts	0x0217, r24	; 0x800217 <oproznij_bufor_SIM900_po_bledzie>
    obsluga_wysylania_sms();

  if (liczba_odebranych_znakow_SIM900 != 0 &&
      komenda_SIM900 != BRAK_KOMENDY_SIM900)
    odpowiedz_na_polecenie();
}
    1c22:	df 91       	pop	r29
    1c24:	cf 91       	pop	r28
    1c26:	1f 91       	pop	r17
    1c28:	0f 91       	pop	r16
    1c2a:	08 95       	ret
  if (czy_jest_komenda_wyslane_polecenie_SIM900()) {
    1c2c:	80 91 38 02 	lds	r24, 0x0238	; 0x800238 <komenda_SIM900>
    1c30:	81 38       	cpi	r24, 0x81	; 129
    1c32:	29 f5       	brne	.+74     	; 0x1c7e <obsluga_komendy_SIM900+0x8e>
    if ((liczba_wysylanych_znakow_SIM900 != liczba_odebranych_znakow_SIM900 ||
    1c34:	20 91 48 05 	lds	r18, 0x0548	; 0x800548 <liczba_wysylanych_znakow_SIM900>
    1c38:	30 91 49 05 	lds	r19, 0x0549	; 0x800549 <liczba_wysylanych_znakow_SIM900+0x1>
    1c3c:	80 91 4d 05 	lds	r24, 0x054D	; 0x80054d <liczba_odebranych_znakow_SIM900>
    1c40:	90 91 4e 05 	lds	r25, 0x054E	; 0x80054e <liczba_odebranych_znakow_SIM900+0x1>
    1c44:	28 17       	cp	r18, r24
    1c46:	39 07       	cpc	r19, r25
    1c48:	61 f4       	brne	.+24     	; 0x1c62 <obsluga_komendy_SIM900+0x72>
         memcmp(odebrany_blok_SIM900, wysylany_blok_SIM900,
    1c4a:	40 91 48 05 	lds	r20, 0x0548	; 0x800548 <liczba_wysylanych_znakow_SIM900>
    1c4e:	50 91 49 05 	lds	r21, 0x0549	; 0x800549 <liczba_wysylanych_znakow_SIM900+0x1>
    1c52:	6a e0       	ldi	r22, 0x0A	; 10
    1c54:	76 e0       	ldi	r23, 0x06	; 6
    1c56:	87 eb       	ldi	r24, 0xB7	; 183
    1c58:	93 e0       	ldi	r25, 0x03	; 3
    1c5a:	0e 94 30 2f 	call	0x5e60	; 0x5e60 <memcmp>
    if ((liczba_wysylanych_znakow_SIM900 != liczba_odebranych_znakow_SIM900 ||
    1c5e:	89 2b       	or	r24, r25
    1c60:	01 f3       	breq	.-64     	; 0x1c22 <obsluga_komendy_SIM900+0x32>
        !czekanie_na_odebranie_zachety) {
    1c62:	80 91 4c 05 	lds	r24, 0x054C	; 0x80054c <czekanie_na_odebranie_zachety>
                liczba_wysylanych_znakow_SIM900) != 0) &&
    1c66:	81 11       	cpse	r24, r1
    1c68:	dc cf       	rjmp	.-72     	; 0x1c22 <obsluga_komendy_SIM900+0x32>
      komenda_SIM900 = BLAD_SIM900;
    1c6a:	80 e8       	ldi	r24, 0x80	; 128
    1c6c:	80 93 38 02 	sts	0x0238, r24	; 0x800238 <komenda_SIM900>
      oproznij_bufor_SIM900_po_bledzie = TRUE;
    1c70:	8f ef       	ldi	r24, 0xFF	; 255
    1c72:	80 93 17 02 	sts	0x0217, r24	; 0x800217 <oproznij_bufor_SIM900_po_bledzie>
      opoznienie_SIM900_100MS = 50;
    1c76:	82 e3       	ldi	r24, 0x32	; 50
    1c78:	80 93 18 02 	sts	0x0218, r24	; 0x800218 <opoznienie_SIM900_100MS>
    1c7c:	d2 cf       	rjmp	.-92     	; 0x1c22 <obsluga_komendy_SIM900+0x32>
  if (czy_jest_komenda_rozmowa_telefoniczna()) {
    1c7e:	80 91 38 02 	lds	r24, 0x0238	; 0x800238 <komenda_SIM900>
    1c82:	8a 30       	cpi	r24, 0x0A	; 10
    1c84:	09 f0       	breq	.+2      	; 0x1c88 <obsluga_komendy_SIM900+0x98>
    1c86:	42 c0       	rjmp	.+132    	; 0x1d0c <obsluga_komendy_SIM900+0x11c>
    const uchar *p1 = strchr(polozenie_polecenia_SIM900(PSTR("+CLIP:")), '\"');
    1c88:	8e e0       	ldi	r24, 0x0E	; 14
    1c8a:	92 e0       	ldi	r25, 0x02	; 2
    1c8c:	0e 94 79 03 	call	0x6f2	; 0x6f2 <polozenie_polecenia_SIM900>
    1c90:	62 e2       	ldi	r22, 0x22	; 34
    1c92:	70 e0       	ldi	r23, 0x00	; 0
    1c94:	0e 94 58 2f 	call	0x5eb0	; 0x5eb0 <strchr>
    if (p1++ != NULL) {
    1c98:	00 97       	sbiw	r24, 0x00	; 0
    1c9a:	39 f1       	breq	.+78     	; 0x1cea <obsluga_komendy_SIM900+0xfa>
    1c9c:	8c 01       	movw	r16, r24
    1c9e:	0f 5f       	subi	r16, 0xFF	; 255
    1ca0:	1f 4f       	sbci	r17, 0xFF	; 255
      const uchar *p2 = strchr(p1, '\"');
    1ca2:	62 e2       	ldi	r22, 0x22	; 34
    1ca4:	70 e0       	ldi	r23, 0x00	; 0
    1ca6:	c8 01       	movw	r24, r16
    1ca8:	0e 94 58 2f 	call	0x5eb0	; 0x5eb0 <strchr>
      if (p2 != NULL) {
    1cac:	00 97       	sbiw	r24, 0x00	; 0
    1cae:	e9 f0       	breq	.+58     	; 0x1cea <obsluga_komendy_SIM900+0xfa>
        const uchar l = p2 - p1;
    1cb0:	ec 01       	movw	r28, r24
    1cb2:	c0 1b       	sub	r28, r16
    1cb4:	d1 0b       	sbc	r29, r17
        if (l < MAX_LICZBA_ZNAKOW_TELEFON) {
    1cb6:	c0 31       	cpi	r28, 0x10	; 16
    1cb8:	c0 f4       	brcc	.+48     	; 0x1cea <obsluga_komendy_SIM900+0xfa>
    1cba:	dd 27       	eor	r29, r29
          memcpy(numer_telefonu_ktory_dzwoni, p1, l);
    1cbc:	ae 01       	movw	r20, r28
    1cbe:	b8 01       	movw	r22, r16
    1cc0:	87 e8       	ldi	r24, 0x87	; 135
    1cc2:	93 e0       	ldi	r25, 0x03	; 3
    1cc4:	0e 94 3d 2f 	call	0x5e7a	; 0x5e7a <memcpy>
          numer_telefonu_ktory_dzwoni[l] = '\0';
    1cc8:	c9 57       	subi	r28, 0x79	; 121
    1cca:	dc 4f       	sbci	r29, 0xFC	; 252
    1ccc:	18 82       	st	Y, r1
          if (licznik_blad_zalogowania_u_operatora != 0)
    1cce:	80 91 05 02 	lds	r24, 0x0205	; 0x800205 <licznik_blad_zalogowania_u_operatora>
    1cd2:	81 11       	cpse	r24, r1
            licznik_blad_zalogowania_u_operatora = 0;
    1cd4:	10 92 05 02 	sts	0x0205, r1	; 0x800205 <licznik_blad_zalogowania_u_operatora>
          if (poziom_sieci_gsm == 0 || poziom_sieci_gsm == POZIOM_SIECI_BLAD)
    1cd8:	80 91 06 01 	lds	r24, 0x0106	; 0x800106 <poziom_sieci_gsm>
    1cdc:	88 23       	and	r24, r24
    1cde:	11 f0       	breq	.+4      	; 0x1ce4 <obsluga_komendy_SIM900+0xf4>
    1ce0:	83 36       	cpi	r24, 0x63	; 99
    1ce2:	19 f4       	brne	.+6      	; 0x1cea <obsluga_komendy_SIM900+0xfa>
            poziom_sieci_gsm = 16;
    1ce4:	80 e1       	ldi	r24, 0x10	; 16
    1ce6:	80 93 06 01 	sts	0x0106, r24	; 0x800106 <poziom_sieci_gsm>
    filtruj_i_dodaj_komende(KOMENDA_KOLEJKI_SPRAWDZ_PRZYCHODZACA_ROZMOWE);
    1cea:	88 e9       	ldi	r24, 0x98	; 152
    1cec:	0e 94 66 27 	call	0x4ecc	; 0x4ecc <filtruj_i_dodaj_komende>
            KOMENDA_KOLEJKI_ODCZYTAJ_SMSA_1 &&
    1cf0:	80 91 16 02 	lds	r24, 0x0216	; 0x800216 <aktualnie_wysylane_polecenie_SIM900>
    1cf4:	8a 5a       	subi	r24, 0xAA	; 170
    if (aktualnie_wysylane_polecenie_SIM900 >=
    1cf6:	84 31       	cpi	r24, 0x14	; 20
    1cf8:	10 f4       	brcc	.+4      	; 0x1cfe <obsluga_komendy_SIM900+0x10e>
      flaga_odczytywanie_smsa = FALSE;
    1cfa:	10 92 0e 02 	sts	0x020E, r1	; 0x80020e <flaga_odczytywanie_smsa>
    wysylane_polecenie_SIM900 = KOMENDA_KOLEJKI_BRAK_KOMENDY;
    1cfe:	10 92 15 02 	sts	0x0215, r1	; 0x800215 <licznik_wysylane_polecenie_SIM900+0x1>
    1d02:	10 92 14 02 	sts	0x0214, r1	; 0x800214 <licznik_wysylane_polecenie_SIM900>
    1d06:	10 92 16 02 	sts	0x0216, r1	; 0x800216 <aktualnie_wysylane_polecenie_SIM900>
    1d0a:	8b cf       	rjmp	.-234    	; 0x1c22 <obsluga_komendy_SIM900+0x32>
  if (czy_jest_komenda_zakonczenie_rozmowy_telefonicznej()) {
    1d0c:	80 91 38 02 	lds	r24, 0x0238	; 0x800238 <komenda_SIM900>
    1d10:	83 30       	cpi	r24, 0x03	; 3
    1d12:	89 f4       	brne	.+34     	; 0x1d36 <obsluga_komendy_SIM900+0x146>
    zakonczono_rozmowe_telefoniczna(powod_zakonczenia_rozmowy_odrzucenie);
    1d14:	80 e0       	ldi	r24, 0x00	; 0
    1d16:	0e 94 c9 09 	call	0x1392	; 0x1392 <zakonczono_rozmowe_telefoniczna>
    trwa_rozmowa_przychodzaca_od_uzytkownika = FALSE;
    1d1a:	10 92 12 02 	sts	0x0212, r1	; 0x800212 <trwa_rozmowa_przychodzaca_od_uzytkownika>
    wykonywanie_rozmowy_telefonicznej = FALSE;
    1d1e:	10 92 b4 03 	sts	0x03B4, r1	; 0x8003b4 <wykonywanie_rozmowy_telefonicznej>
    licznik_bezpieczenstwa_wykonywana_rozmowa = 0;
    1d22:	10 92 11 02 	sts	0x0211, r1	; 0x800211 <licznik_bezpieczenstwa_wykonywana_rozmowa+0x1>
    1d26:	10 92 10 02 	sts	0x0210, r1	; 0x800210 <licznik_bezpieczenstwa_wykonywana_rozmowa>
    if (aktualnie_wysylane_polecenie_SIM900 ==
    1d2a:	80 91 16 02 	lds	r24, 0x0216	; 0x800216 <aktualnie_wysylane_polecenie_SIM900>
    1d2e:	86 3d       	cpi	r24, 0xD6	; 214
    1d30:	09 f0       	breq	.+2      	; 0x1d34 <obsluga_komendy_SIM900+0x144>
    1d32:	77 cf       	rjmp	.-274    	; 0x1c22 <obsluga_komendy_SIM900+0x32>
    1d34:	e4 cf       	rjmp	.-56     	; 0x1cfe <obsluga_komendy_SIM900+0x10e>
  if (czy_jest_komenda_uzytkownik_odebral_dzwonek()) {
    1d36:	80 91 38 02 	lds	r24, 0x0238	; 0x800238 <komenda_SIM900>
    1d3a:	82 30       	cpi	r24, 0x02	; 2
    1d3c:	d1 f4       	brne	.+52     	; 0x1d72 <obsluga_komendy_SIM900+0x182>
    if (aktualnie_wysylane_polecenie_SIM900 == KOMENDA_KOLEJKI_WYKONAJ_ROZMOWE)
    1d3e:	80 91 16 02 	lds	r24, 0x0216	; 0x800216 <aktualnie_wysylane_polecenie_SIM900>
    1d42:	86 3d       	cpi	r24, 0xD6	; 214
    1d44:	11 f4       	brne	.+4      	; 0x1d4a <obsluga_komendy_SIM900+0x15a>
      odpowiedz_na_polecenie();
    1d46:	0e 94 ba 0a 	call	0x1574	; 0x1574 <odpowiedz_na_polecenie>
    if (ustaw_maksymalny_czas_dzwonienia == 0)
    1d4a:	80 91 0a 02 	lds	r24, 0x020A	; 0x80020a <ustaw_maksymalny_czas_dzwonienia>
    1d4e:	81 11       	cpse	r24, r1
    1d50:	0b c0       	rjmp	.+22     	; 0x1d68 <obsluga_komendy_SIM900+0x178>
      maksymalny_czas_dzwonienia = 90; // standardowy czas czekania 9 sekund
    1d52:	8a e5       	ldi	r24, 0x5A	; 90
    1d54:	80 93 0b 02 	sts	0x020B, r24	; 0x80020b <maksymalny_czas_dzwonienia>
    wykonywanie_rozmowy_telefonicznej = TRUE;
    1d58:	8f ef       	ldi	r24, 0xFF	; 255
    1d5a:	80 93 b4 03 	sts	0x03B4, r24	; 0x8003b4 <wykonywanie_rozmowy_telefonicznej>
    licznik_bezpieczenstwa_wykonywana_rozmowa = 0;
    1d5e:	10 92 11 02 	sts	0x0211, r1	; 0x800211 <licznik_bezpieczenstwa_wykonywana_rozmowa+0x1>
    1d62:	10 92 10 02 	sts	0x0210, r1	; 0x800210 <licznik_bezpieczenstwa_wykonywana_rozmowa>
    1d66:	5d cf       	rjmp	.-326    	; 0x1c22 <obsluga_komendy_SIM900+0x32>
      maksymalny_czas_dzwonienia = ustaw_maksymalny_czas_dzwonienia;
    1d68:	80 93 0b 02 	sts	0x020B, r24	; 0x80020b <maksymalny_czas_dzwonienia>
      ustaw_maksymalny_czas_dzwonienia = 0;
    1d6c:	10 92 0a 02 	sts	0x020A, r1	; 0x80020a <ustaw_maksymalny_czas_dzwonienia>
    1d70:	f3 cf       	rjmp	.-26     	; 0x1d58 <obsluga_komendy_SIM900+0x168>
  const uchar *ptr_dtmf = polozenie_polecenia_SIM900(PSTR("+DTMF:"));
    1d72:	87 e0       	ldi	r24, 0x07	; 7
    1d74:	92 e0       	ldi	r25, 0x02	; 2
    1d76:	0e 94 79 03 	call	0x6f2	; 0x6f2 <polozenie_polecenia_SIM900>
  if (ptr_dtmf != NULL) {
    1d7a:	00 97       	sbiw	r24, 0x00	; 0
    1d7c:	01 f1       	breq	.+64     	; 0x1dbe <obsluga_komendy_SIM900+0x1ce>
    ptr_dtmf += 7; // Skip "+DTMF: "
    1d7e:	fc 01       	movw	r30, r24
    1d80:	37 96       	adiw	r30, 0x07	; 7
    while (*ptr_dtmf == ' ')
    1d82:	81 91       	ld	r24, Z+
    1d84:	80 32       	cpi	r24, 0x20	; 32
    1d86:	e9 f3       	breq	.-6      	; 0x1d82 <obsluga_komendy_SIM900+0x192>
    if (!tryb_clip) // Tylko w trybie DTMF
    1d88:	90 91 01 01 	lds	r25, 0x0101	; 0x800101 <tryb_clip>
    1d8c:	91 11       	cpse	r25, r1
    1d8e:	14 c0       	rjmp	.+40     	; 0x1db8 <obsluga_komendy_SIM900+0x1c8>
      if (dtmf_key == '1') {
    1d90:	81 33       	cpi	r24, 0x31	; 49
    1d92:	91 f4       	brne	.+36     	; 0x1db8 <obsluga_komendy_SIM900+0x1c8>
        stan_wyjscie[0] = TRUE;
    1d94:	8f ef       	ldi	r24, 0xFF	; 255
    1d96:	80 93 42 02 	sts	0x0242, r24	; 0x800242 <stan_wyjscie>
        licznik_przelacznik_wyjscia[0] = 2 * 10ul; // 2 sekundy retrigger
    1d9a:	84 e1       	ldi	r24, 0x14	; 20
    1d9c:	90 e0       	ldi	r25, 0x00	; 0
    1d9e:	a0 e0       	ldi	r26, 0x00	; 0
    1da0:	b0 e0       	ldi	r27, 0x00	; 0
    1da2:	80 93 a5 03 	sts	0x03A5, r24	; 0x8003a5 <licznik_przelacznik_wyjscia>
    1da6:	90 93 a6 03 	sts	0x03A6, r25	; 0x8003a6 <licznik_przelacznik_wyjscia+0x1>
    1daa:	a0 93 a7 03 	sts	0x03A7, r26	; 0x8003a7 <licznik_przelacznik_wyjscia+0x2>
    1dae:	b0 93 a8 03 	sts	0x03A8, r27	; 0x8003a8 <licznik_przelacznik_wyjscia+0x3>
        zapal_diode_led(10);
    1db2:	8b e0       	ldi	r24, 0x0B	; 11
    1db4:	80 93 6e 03 	sts	0x036E, r24	; 0x80036e <licznik_100ms_dioda_led>
    resetuj_komende_SIM900(); // Krytyczne dla kolejnych znakow
    1db8:	10 92 38 02 	sts	0x0238, r1	; 0x800238 <komenda_SIM900>
    1dbc:	32 cf       	rjmp	.-412    	; 0x1c22 <obsluga_komendy_SIM900+0x32>
  if (czy_jest_komenda_uzytkownik_odebral_rozmowe()) {
    1dbe:	80 91 38 02 	lds	r24, 0x0238	; 0x800238 <komenda_SIM900>
    1dc2:	8c 30       	cpi	r24, 0x0C	; 12
    1dc4:	71 f4       	brne	.+28     	; 0x1de2 <obsluga_komendy_SIM900+0x1f2>
    if (tryb_clip) {
    1dc6:	80 91 01 01 	lds	r24, 0x0101	; 0x800101 <tryb_clip>
    1dca:	88 23       	and	r24, r24
    1dcc:	09 f4       	brne	.+2      	; 0x1dd0 <obsluga_komendy_SIM900+0x1e0>
    1dce:	29 cf       	rjmp	.-430    	; 0x1c22 <obsluga_komendy_SIM900+0x32>
      trwa_rozmowa_przychodzaca_od_uzytkownika = FALSE;
    1dd0:	10 92 12 02 	sts	0x0212, r1	; 0x800212 <trwa_rozmowa_przychodzaca_od_uzytkownika>
      dodaj_komende(KOMENDA_KOLEJKI_ODRZUC_ROZMOWE);
    1dd4:	87 e9       	ldi	r24, 0x97	; 151
}
    1dd6:	df 91       	pop	r29
    1dd8:	cf 91       	pop	r28
    1dda:	1f 91       	pop	r17
    1ddc:	0f 91       	pop	r16
      dodaj_komende(KOMENDA_KOLEJKI_ODRZUC_ROZMOWE);
    1dde:	0c 94 54 27 	jmp	0x4ea8	; 0x4ea8 <dodaj_komende>
  if (czy_jest_komenda_brak_sygnalu_tonowego()) {
    1de2:	80 91 38 02 	lds	r24, 0x0238	; 0x800238 <komenda_SIM900>
    1de6:	89 30       	cpi	r24, 0x09	; 9
    1de8:	61 f4       	brne	.+24     	; 0x1e02 <obsluga_komendy_SIM900+0x212>
    if (aktualnie_wysylane_polecenie_SIM900 == KOMENDA_KOLEJKI_WYKONAJ_ROZMOWE)
    1dea:	80 91 16 02 	lds	r24, 0x0216	; 0x800216 <aktualnie_wysylane_polecenie_SIM900>
    1dee:	86 3d       	cpi	r24, 0xD6	; 214
    1df0:	11 f4       	brne	.+4      	; 0x1df6 <obsluga_komendy_SIM900+0x206>
      odpowiedz_na_polecenie();
    1df2:	0e 94 ba 0a 	call	0x1574	; 0x1574 <odpowiedz_na_polecenie>
    zakonczono_rozmowe_telefoniczna(powod_zakonczenia_rozmowy_odrzucenie);
    1df6:	80 e0       	ldi	r24, 0x00	; 0
    1df8:	0e 94 c9 09 	call	0x1392	; 0x1392 <zakonczono_rozmowe_telefoniczna>
    wykonywanie_rozmowy_telefonicznej = FALSE;
    1dfc:	10 92 b4 03 	sts	0x03B4, r1	; 0x8003b4 <wykonywanie_rozmowy_telefonicznej>
    1e00:	ae cf       	rjmp	.-164    	; 0x1d5e <obsluga_komendy_SIM900+0x16e>
  if (czy_jest_komenda_telefon_zajety()) {
    1e02:	80 91 38 02 	lds	r24, 0x0238	; 0x800238 <komenda_SIM900>
    1e06:	87 30       	cpi	r24, 0x07	; 7
    1e08:	81 f3       	breq	.-32     	; 0x1dea <obsluga_komendy_SIM900+0x1fa>
  if (czy_jest_komenda_nowy_SMS()) {
    1e0a:	80 91 38 02 	lds	r24, 0x0238	; 0x800238 <komenda_SIM900>
    1e0e:	88 30       	cpi	r24, 0x08	; 8
    1e10:	29 f5       	brne	.+74     	; 0x1e5c <obsluga_komendy_SIM900+0x26c>
    const uchar *ptr = strchr(polozenie_polecenia_SIM900(PSTR("+CMTI:")), ',');
    1e12:	80 e0       	ldi	r24, 0x00	; 0
    1e14:	92 e0       	ldi	r25, 0x02	; 2
    1e16:	0e 94 79 03 	call	0x6f2	; 0x6f2 <polozenie_polecenia_SIM900>
    1e1a:	6c e2       	ldi	r22, 0x2C	; 44
    1e1c:	70 e0       	ldi	r23, 0x00	; 0
    1e1e:	0e 94 58 2f 	call	0x5eb0	; 0x5eb0 <strchr>
    if (ptr != NULL) {
    1e22:	00 97       	sbiw	r24, 0x00	; 0
    1e24:	a1 f0       	breq	.+40     	; 0x1e4e <obsluga_komendy_SIM900+0x25e>
      uint numer_smsa = (uint)strtoul(ptr + 1, NULL, 10);
    1e26:	4a e0       	ldi	r20, 0x0A	; 10
    1e28:	50 e0       	ldi	r21, 0x00	; 0
    1e2a:	70 e0       	ldi	r23, 0x00	; 0
    1e2c:	60 e0       	ldi	r22, 0x00	; 0
    1e2e:	01 96       	adiw	r24, 0x01	; 1
    1e30:	0e 94 bf 2d 	call	0x5b7e	; 0x5b7e <strtoul>
      if (numer_smsa > 0 && numer_smsa <= 20) // Hardcoded 20
    1e34:	9b 01       	movw	r18, r22
    1e36:	21 50       	subi	r18, 0x01	; 1
    1e38:	31 09       	sbc	r19, r1
    1e3a:	24 31       	cpi	r18, 0x14	; 20
    1e3c:	31 05       	cpc	r19, r1
    1e3e:	38 f4       	brcc	.+14     	; 0x1e4e <obsluga_komendy_SIM900+0x25e>
        dodaj_komende(KOMENDA_KOLEJKI_ODCZYTAJ_SMSA_1 + numer_smsa - 1);
    1e40:	89 ea       	ldi	r24, 0xA9	; 169
    1e42:	86 0f       	add	r24, r22
    1e44:	0e 94 54 27 	call	0x4ea8	; 0x4ea8 <dodaj_komende>
        opoznienie_SIM900_100MS = 1; // 20 (1)
    1e48:	81 e0       	ldi	r24, 0x01	; 1
    1e4a:	80 93 18 02 	sts	0x0218, r24	; 0x800218 <opoznienie_SIM900_100MS>
            KOMENDA_KOLEJKI_ODCZYTAJ_SMSA_1 &&
    1e4e:	80 91 16 02 	lds	r24, 0x0216	; 0x800216 <aktualnie_wysylane_polecenie_SIM900>
    1e52:	8a 5a       	subi	r24, 0xAA	; 170
    if (aktualnie_wysylane_polecenie_SIM900 >=
    1e54:	84 31       	cpi	r24, 0x14	; 20
    1e56:	08 f4       	brcc	.+2      	; 0x1e5a <obsluga_komendy_SIM900+0x26a>
    1e58:	50 cf       	rjmp	.-352    	; 0x1cfa <obsluga_komendy_SIM900+0x10a>
    1e5a:	e3 ce       	rjmp	.-570    	; 0x1c22 <obsluga_komendy_SIM900+0x32>
  if (czy_jest_komenda_otrzymano_sms_flash()) {
    1e5c:	80 91 38 02 	lds	r24, 0x0238	; 0x800238 <komenda_SIM900>
    1e60:	8e 30       	cpi	r24, 0x0E	; 14
    1e62:	11 f4       	brne	.+4      	; 0x1e68 <obsluga_komendy_SIM900+0x278>
    opoznienie_SIM900_100MS = 20;
    1e64:	84 e1       	ldi	r24, 0x14	; 20
    1e66:	f1 cf       	rjmp	.-30     	; 0x1e4a <obsluga_komendy_SIM900+0x25a>
  if (flaga_wysylanie_smsa)
    1e68:	80 91 0d 02 	lds	r24, 0x020D	; 0x80020d <flaga_wysylanie_smsa>
    1e6c:	81 11       	cpse	r24, r1
    obsluga_wysylania_sms();
    1e6e:	0e 94 35 0a 	call	0x146a	; 0x146a <obsluga_wysylania_sms>
  if (liczba_odebranych_znakow_SIM900 != 0 &&
    1e72:	80 91 4d 05 	lds	r24, 0x054D	; 0x80054d <liczba_odebranych_znakow_SIM900>
    1e76:	90 91 4e 05 	lds	r25, 0x054E	; 0x80054e <liczba_odebranych_znakow_SIM900+0x1>
    1e7a:	89 2b       	or	r24, r25
    1e7c:	09 f4       	brne	.+2      	; 0x1e80 <obsluga_komendy_SIM900+0x290>
    1e7e:	d1 ce       	rjmp	.-606    	; 0x1c22 <obsluga_komendy_SIM900+0x32>
      komenda_SIM900 != BRAK_KOMENDY_SIM900)
    1e80:	80 91 38 02 	lds	r24, 0x0238	; 0x800238 <komenda_SIM900>
  if (liczba_odebranych_znakow_SIM900 != 0 &&
    1e84:	88 23       	and	r24, r24
    1e86:	09 f4       	brne	.+2      	; 0x1e8a <obsluga_komendy_SIM900+0x29a>
    1e88:	cc ce       	rjmp	.-616    	; 0x1c22 <obsluga_komendy_SIM900+0x32>
}
    1e8a:	df 91       	pop	r29
    1e8c:	cf 91       	pop	r28
    1e8e:	1f 91       	pop	r17
    1e90:	0f 91       	pop	r16
    odpowiedz_na_polecenie();
    1e92:	0c 94 ba 0a 	jmp	0x1574	; 0x1574 <odpowiedz_na_polecenie>

00001e96 <wyslanie_polecenia_ROM>:

uchar wyslanie_polecenia_ROM(const uchar czy_mozna_wysylac_dane_do_SIM900,
                             const komenda_typ wykonywana_komenda,
                             const komenda_typ nastepne_wysylane_polecenie,
                             PGM_P instrukcja) {
  if (!czy_mozna_wysylac_dane_do_SIM900) {
    1e96:	81 11       	cpse	r24, r1
    1e98:	05 c0       	rjmp	.+10     	; 0x1ea4 <wyslanie_polecenia_ROM+0xe>
    dodaj_komende(wykonywana_komenda);
    1e9a:	86 2f       	mov	r24, r22
    1e9c:	0e 94 54 27 	call	0x4ea8	; 0x4ea8 <dodaj_komende>
    return FALSE;
    1ea0:	80 e0       	ldi	r24, 0x00	; 0
    1ea2:	08 95       	ret
  }
  wysylane_polecenie_SIM900 = wykonywana_komenda;
    1ea4:	10 92 15 02 	sts	0x0215, r1	; 0x800215 <licznik_wysylane_polecenie_SIM900+0x1>
    1ea8:	10 92 14 02 	sts	0x0214, r1	; 0x800214 <licznik_wysylane_polecenie_SIM900>
    1eac:	60 93 16 02 	sts	0x0216, r22	; 0x800216 <aktualnie_wysylane_polecenie_SIM900>
  nastepne_wysylane_polecenie_SIM900 = nastepne_wysylane_polecenie;
    1eb0:	40 93 13 02 	sts	0x0213, r20	; 0x800213 <nastepne_wysylane_polecenie_SIM900>
  wyslij_polecenie_ROM_SIM900(instrukcja);
    1eb4:	c9 01       	movw	r24, r18
    1eb6:	0e 94 31 1e 	call	0x3c62	; 0x3c62 <wyslij_polecenie_ROM_SIM900>
  return TRUE;
    1eba:	8f ef       	ldi	r24, 0xFF	; 255
}
    1ebc:	08 95       	ret

00001ebe <wyslij_sms>:
#ifndef memcpy_E
#define memcpy_E(sink, source, l)                                              \
  eeprom_read_block((sink), (void *)(source), (l))
#endif

void wyslij_sms(const uchar wyslij_pdu) {
    1ebe:	0f 93       	push	r16
    1ec0:	cf 93       	push	r28
    1ec2:	df 93       	push	r29
  czekanie_na_odebranie_zachety = TRUE;
    1ec4:	9f ef       	ldi	r25, 0xFF	; 255
    1ec6:	90 93 4c 05 	sts	0x054C, r25	; 0x80054c <czekanie_na_odebranie_zachety>
  flaga_odebrany_znak_zachety = FALSE;
    1eca:	10 92 b3 03 	sts	0x03B3, r1	; 0x8003b3 <flaga_odebrany_znak_zachety>
  if (!wyslij_pdu) {
    1ece:	81 11       	cpse	r24, r1
    1ed0:	49 c0       	rjmp	.+146    	; 0x1f64 <wyslij_sms+0xa6>
    // Zmiana: 5 blyskow LED przy wysylaniu SMS
    zapal_diode_led_blyski(5);
    1ed2:	85 e0       	ldi	r24, 0x05	; 5
    1ed4:	80 93 ed 01 	sts	0x01ED, r24	; 0x8001ed <liczba_blyskow_led>
    1ed8:	10 92 ec 01 	sts	0x01EC, r1	; 0x8001ec <stan_cyklu_blysku>
    flaga_wysylanie_smsa = KOMENDA_KOLEJKI_WYSLIJ_SMSA_TEXT;
    1edc:	83 ed       	ldi	r24, 0xD3	; 211
    1ede:	80 93 0d 02 	sts	0x020D, r24	; 0x80020d <flaga_wysylanie_smsa>
    bufor_pdu[0] = 0xff; // memcpy_E(bufor_pdu, (void*)EEPROM_ADRES_CENTRUM_SMS,
    1ee2:	90 93 71 02 	sts	0x0271, r25	; 0x800271 <bufor_pdu>
                         // LICZBA_BAJTOW_NUMERU_TELEFONU_W_EEPROM);
    konwertuj_blok_eeprom_na_telefon(
    1ee6:	4a e0       	ldi	r20, 0x0A	; 10
    1ee8:	6d ed       	ldi	r22, 0xDD	; 221
    1eea:	77 e0       	ldi	r23, 0x07	; 7
    1eec:	81 e7       	ldi	r24, 0x71	; 113
    1eee:	92 e0       	ldi	r25, 0x02	; 2
    1ef0:	0e 94 08 28 	call	0x5010	; 0x5010 <konwertuj_blok_eeprom_na_telefon>
        bufor_pdu, bufor_eeprom, 2 * LICZBA_BAJTOW_NUMERU_TELEFONU_W_EEPROM);
    uchar *ptr = zapisz_naglowek_pdu(bufor_pdu, numer_telefonu_wysylanego_smsa,
    1ef4:	00 e0       	ldi	r16, 0x00	; 0
    1ef6:	20 e0       	ldi	r18, 0x00	; 0
    1ef8:	4d ed       	ldi	r20, 0xDD	; 221
    1efa:	57 e0       	ldi	r21, 0x07	; 7
    1efc:	60 e5       	ldi	r22, 0x50	; 80
    1efe:	72 e0       	ldi	r23, 0x02	; 2
    1f00:	81 e7       	ldi	r24, 0x71	; 113
    1f02:	92 e0       	ldi	r25, 0x02	; 2
    1f04:	0e 94 d8 2b 	call	0x57b0	; 0x57b0 <zapisz_naglowek_pdu>
                                     bufor_eeprom, 0x00, 0x00);
    dlugosc_pdu = ascii_to_pdu(ptr, tekst_wysylanego_smsa) - bufor_pdu;
    1f08:	49 e6       	ldi	r20, 0x69	; 105
    1f0a:	55 e0       	ldi	r21, 0x05	; 5
    1f0c:	fa 01       	movw	r30, r20
    1f0e:	01 90       	ld	r0, Z+
    1f10:	00 20       	and	r0, r0
    1f12:	e9 f7       	brne	.-6      	; 0x1f0e <wyslij_sms+0x50>
    1f14:	af 01       	movw	r20, r30
    1f16:	41 50       	subi	r20, 0x01	; 1
    1f18:	51 09       	sbc	r21, r1
    1f1a:	69 e6       	ldi	r22, 0x69	; 105
    1f1c:	75 e0       	ldi	r23, 0x05	; 5
    1f1e:	0e 94 23 2a 	call	0x5446	; 0x5446 <ascii_to_pdu_blok>
    konwertuj_blok_eeprom_na_telefon(
        bufor_pdu, bufor_eeprom, 2 * LICZBA_BAJTOW_NUMERU_TELEFONU_W_EEPROM);
    uchar *ptr = zapisz_naglowek_pdu(bufor_pdu, numer_telefonu_wysylanego_smsa,
                                     bufor_eeprom, 0x00, TP_DCS);
    memcpy(ptr, &tekst_wysylanego_smsa[2], tekst_wysylanego_smsa[1]);
    dlugosc_pdu = (ptr + tekst_wysylanego_smsa[1]) - bufor_pdu;
    1f22:	81 57       	subi	r24, 0x71	; 113
    1f24:	92 40       	sbci	r25, 0x02	; 2
    1f26:	80 93 0f 02 	sts	0x020F, r24	; 0x80020f <dlugosc_pdu>
    POMOC_DODAJ('P');
    POMOC_DODAJ('D');
    POMOC_DODAJ('U');
#endif
  }
  const uchar oktety = dlugosc_pdu - 1 - bufor_pdu[0];
    1f2a:	c0 91 0f 02 	lds	r28, 0x020F	; 0x80020f <dlugosc_pdu>
    1f2e:	c1 50       	subi	r28, 0x01	; 1
    1f30:	80 91 71 02 	lds	r24, 0x0271	; 0x800271 <bufor_pdu>
    1f34:	c8 1b       	sub	r28, r24
  static const char instrukcja_wyslij_smsa[] PROGMEM = "+cmgs=";
  memcpy_R(wysylane_dane_RAM_SIM900, instrukcja_wyslij_smsa);
    1f36:	46 e0       	ldi	r20, 0x06	; 6
    1f38:	50 e0       	ldi	r21, 0x00	; 0
    1f3a:	69 ef       	ldi	r22, 0xF9	; 249
    1f3c:	71 e0       	ldi	r23, 0x01	; 1
    1f3e:	8c e0       	ldi	r24, 0x0C	; 12
    1f40:	96 e0       	ldi	r25, 0x06	; 6
    1f42:	0e 94 e0 2e 	call	0x5dc0	; 0x5dc0 <memcpy_P>
    1f46:	4a e0       	ldi	r20, 0x0A	; 10
    1f48:	62 e1       	ldi	r22, 0x12	; 18
    1f4a:	76 e0       	ldi	r23, 0x06	; 6
    1f4c:	8c 2f       	mov	r24, r28
    1f4e:	90 e0       	ldi	r25, 0x00	; 0
    1f50:	0e 94 6a 2f 	call	0x5ed4	; 0x5ed4 <__utoa_ncheck>
  utoa(oktety, wysylane_dane_RAM_SIM900 + strlen_R(instrukcja_wyslij_smsa), 10);
  max_oczekiwanie_na_odpowiedz = 250;
    1f54:	8a ef       	ldi	r24, 0xFA	; 250
    1f56:	80 93 04 01 	sts	0x0104, r24	; 0x800104 <max_oczekiwanie_na_odpowiedz>
  wyslij_polecenie_RAM_SIM900();
  POMOC_DODAJ2('#', 'S');
}
    1f5a:	df 91       	pop	r29
    1f5c:	cf 91       	pop	r28
    1f5e:	0f 91       	pop	r16
  wyslij_polecenie_RAM_SIM900();
    1f60:	0c 94 4d 1e 	jmp	0x3c9a	; 0x3c9a <wyslij_polecenie_RAM_SIM900>
    zapal_diode_led_blyski(5);
    1f64:	85 e0       	ldi	r24, 0x05	; 5
    1f66:	80 93 ed 01 	sts	0x01ED, r24	; 0x8001ed <liczba_blyskow_led>
    1f6a:	10 92 ec 01 	sts	0x01EC, r1	; 0x8001ec <stan_cyklu_blysku>
    flaga_wysylanie_smsa = KOMENDA_KOLEJKI_WYSLIJ_SMSA_PDU;
    1f6e:	84 ed       	ldi	r24, 0xD4	; 212
    1f70:	80 93 0d 02 	sts	0x020D, r24	; 0x80020d <flaga_wysylanie_smsa>
    const uchar TP_DCS = tekst_wysylanego_smsa[0]; // message class
    1f74:	00 91 69 05 	lds	r16, 0x0569	; 0x800569 <tekst_wysylanego_smsa>
    bufor_pdu[0] = 0xff; // memcpy_E(bufor_pdu, (void*)EEPROM_ADRES_CENTRUM_SMS,
    1f78:	90 93 71 02 	sts	0x0271, r25	; 0x800271 <bufor_pdu>
    konwertuj_blok_eeprom_na_telefon(
    1f7c:	4a e0       	ldi	r20, 0x0A	; 10
    1f7e:	6d ed       	ldi	r22, 0xDD	; 221
    1f80:	77 e0       	ldi	r23, 0x07	; 7
    1f82:	81 e7       	ldi	r24, 0x71	; 113
    1f84:	92 e0       	ldi	r25, 0x02	; 2
    1f86:	0e 94 08 28 	call	0x5010	; 0x5010 <konwertuj_blok_eeprom_na_telefon>
    uchar *ptr = zapisz_naglowek_pdu(bufor_pdu, numer_telefonu_wysylanego_smsa,
    1f8a:	20 e0       	ldi	r18, 0x00	; 0
    1f8c:	4d ed       	ldi	r20, 0xDD	; 221
    1f8e:	57 e0       	ldi	r21, 0x07	; 7
    1f90:	60 e5       	ldi	r22, 0x50	; 80
    1f92:	72 e0       	ldi	r23, 0x02	; 2
    1f94:	81 e7       	ldi	r24, 0x71	; 113
    1f96:	92 e0       	ldi	r25, 0x02	; 2
    1f98:	0e 94 d8 2b 	call	0x57b0	; 0x57b0 <zapisz_naglowek_pdu>
    1f9c:	ec 01       	movw	r28, r24
    memcpy(ptr, &tekst_wysylanego_smsa[2], tekst_wysylanego_smsa[1]);
    1f9e:	40 91 6a 05 	lds	r20, 0x056A	; 0x80056a <tekst_wysylanego_smsa+0x1>
    1fa2:	50 e0       	ldi	r21, 0x00	; 0
    1fa4:	6b e6       	ldi	r22, 0x6B	; 107
    1fa6:	75 e0       	ldi	r23, 0x05	; 5
    1fa8:	0e 94 3d 2f 	call	0x5e7a	; 0x5e7a <memcpy>
    dlugosc_pdu = (ptr + tekst_wysylanego_smsa[1]) - bufor_pdu;
    1fac:	80 91 6a 05 	lds	r24, 0x056A	; 0x80056a <tekst_wysylanego_smsa+0x1>
    1fb0:	8c 0f       	add	r24, r28
    1fb2:	9d 2f       	mov	r25, r29
    1fb4:	91 1d       	adc	r25, r1
    1fb6:	b5 cf       	rjmp	.-150    	; 0x1f22 <wyslij_sms+0x64>

00001fb8 <wykonanie_komend_SIM900>:

uchar wykonanie_komend_SIM900(void) {
    1fb8:	ef 92       	push	r14
    1fba:	ff 92       	push	r15
    1fbc:	0f 93       	push	r16
    1fbe:	1f 93       	push	r17
    1fc0:	cf 93       	push	r28
    1fc2:	df 93       	push	r29
    1fc4:	00 d0       	rcall	.+0      	; 0x1fc6 <wykonanie_komend_SIM900+0xe>
    1fc6:	1f 92       	push	r1
    1fc8:	cd b7       	in	r28, 0x3d	; 61
    1fca:	de b7       	in	r29, 0x3e	; 62
  const uchar czy_gsm_zajety =
      flaga_odczytywanie_smsa || flaga_wysylanie_smsa ||
    1fcc:	90 91 0e 02 	lds	r25, 0x020E	; 0x80020e <flaga_odczytywanie_smsa>
      wykonywanie_rozmowy_telefonicznej ||
      trwa_rozmowa_przychodzaca_od_uzytkownika ||
      aktualnie_wysylane_polecenie_SIM900 != KOMENDA_KOLEJKI_BRAK_KOMENDY ||
      opoznienie_SIM900_100MS || czekanie_na_odebranie_zachety;
    1fd0:	91 11       	cpse	r25, r1
    1fd2:	4d c0       	rjmp	.+154    	; 0x206e <wykonanie_komend_SIM900+0xb6>
      flaga_odczytywanie_smsa || flaga_wysylanie_smsa ||
    1fd4:	80 91 0d 02 	lds	r24, 0x020D	; 0x80020d <flaga_wysylanie_smsa>
    1fd8:	81 11       	cpse	r24, r1
    1fda:	49 c0       	rjmp	.+146    	; 0x206e <wykonanie_komend_SIM900+0xb6>
    1fdc:	80 91 b4 03 	lds	r24, 0x03B4	; 0x8003b4 <wykonywanie_rozmowy_telefonicznej>
    1fe0:	81 11       	cpse	r24, r1
    1fe2:	45 c0       	rjmp	.+138    	; 0x206e <wykonanie_komend_SIM900+0xb6>
      wykonywanie_rozmowy_telefonicznej ||
    1fe4:	80 91 12 02 	lds	r24, 0x0212	; 0x800212 <trwa_rozmowa_przychodzaca_od_uzytkownika>
    1fe8:	81 11       	cpse	r24, r1
    1fea:	41 c0       	rjmp	.+130    	; 0x206e <wykonanie_komend_SIM900+0xb6>
      trwa_rozmowa_przychodzaca_od_uzytkownika ||
    1fec:	80 91 16 02 	lds	r24, 0x0216	; 0x800216 <aktualnie_wysylane_polecenie_SIM900>
    1ff0:	81 11       	cpse	r24, r1
    1ff2:	3d c0       	rjmp	.+122    	; 0x206e <wykonanie_komend_SIM900+0xb6>
      aktualnie_wysylane_polecenie_SIM900 != KOMENDA_KOLEJKI_BRAK_KOMENDY ||
    1ff4:	80 91 18 02 	lds	r24, 0x0218	; 0x800218 <opoznienie_SIM900_100MS>
    1ff8:	81 11       	cpse	r24, r1
    1ffa:	39 c0       	rjmp	.+114    	; 0x206e <wykonanie_komend_SIM900+0xb6>
      opoznienie_SIM900_100MS || czekanie_na_odebranie_zachety;
    1ffc:	20 91 4c 05 	lds	r18, 0x054C	; 0x80054c <czekanie_na_odebranie_zachety>
    2000:	81 e0       	ldi	r24, 0x01	; 1
    2002:	21 11       	cpse	r18, r1
    2004:	01 c0       	rjmp	.+2      	; 0x2008 <wykonanie_komend_SIM900+0x50>
    2006:	80 e0       	ldi	r24, 0x00	; 0

  const uchar czy_mozna_wysylac_dane_do_SIM900 =
      !czy_gsm_zajety && CZY_MOZNA_WYSYLAC_DANE_SIM900() &&
    2008:	81 11       	cpse	r24, r1
    200a:	32 c0       	rjmp	.+100    	; 0x2070 <wykonanie_komend_SIM900+0xb8>
    200c:	20 91 c1 00 	lds	r18, 0x00C1	; 0x8000c1 <__TEXT_REGION_LENGTH__+0x7e00c1>
    2010:	26 fd       	sbrc	r18, 6
    2012:	2e c0       	rjmp	.+92     	; 0x2070 <wykonanie_komend_SIM900+0xb8>
    2014:	20 91 37 02 	lds	r18, 0x0237	; 0x800237 <podlaczony_modul_gsm_SIM900>
    2018:	22 23       	and	r18, r18
    201a:	51 f1       	breq	.+84     	; 0x2070 <wykonanie_komend_SIM900+0xb8>
      czy_jest_bezczynny_SIM900();
    201c:	20 91 38 02 	lds	r18, 0x0238	; 0x800238 <komenda_SIM900>
      !czy_gsm_zajety && CZY_MOZNA_WYSYLAC_DANE_SIM900() &&
    2020:	01 e0       	ldi	r16, 0x01	; 1
    2022:	21 11       	cpse	r18, r1
    2024:	25 c0       	rjmp	.+74     	; 0x2070 <wykonanie_komend_SIM900+0xb8>

  const komenda_typ wykonywana_komenda = komendy_kolejka[0];
    2026:	10 91 9b 07 	lds	r17, 0x079B	; 0x80079b <komendy_kolejka>
  switch (wykonywana_komenda) {
    202a:	e1 2e       	mov	r14, r17
    202c:	f1 2c       	mov	r15, r1
    202e:	1d 39       	cpi	r17, 0x9D	; 157
    2030:	09 f4       	brne	.+2      	; 0x2034 <wykonanie_komend_SIM900+0x7c>
    2032:	9b c2       	rjmp	.+1334   	; 0x256a <wykonanie_komend_SIM900+0x5b2>
    2034:	08 f0       	brcs	.+2      	; 0x2038 <wykonanie_komend_SIM900+0x80>
    2036:	72 c0       	rjmp	.+228    	; 0x211c <wykonanie_komend_SIM900+0x164>
    2038:	12 39       	cpi	r17, 0x92	; 146
    203a:	09 f4       	brne	.+2      	; 0x203e <wykonanie_komend_SIM900+0x86>
    203c:	b4 c3       	rjmp	.+1896   	; 0x27a6 <wykonanie_komend_SIM900+0x7ee>
    203e:	30 f5       	brcc	.+76     	; 0x208c <wykonanie_komend_SIM900+0xd4>
    2040:	1d 38       	cpi	r17, 0x8D	; 141
    2042:	09 f4       	brne	.+2      	; 0x2046 <wykonanie_komend_SIM900+0x8e>
    2044:	94 c3       	rjmp	.+1832   	; 0x276e <wykonanie_komend_SIM900+0x7b6>
    2046:	b0 f4       	brcc	.+44     	; 0x2074 <wykonanie_komend_SIM900+0xbc>
    2048:	1b 38       	cpi	r17, 0x8B	; 139
    204a:	09 f4       	brne	.+2      	; 0x204e <wykonanie_komend_SIM900+0x96>
    204c:	4a c3       	rjmp	.+1684   	; 0x26e2 <wykonanie_komend_SIM900+0x72a>
    204e:	08 f0       	brcs	.+2      	; 0x2052 <wykonanie_komend_SIM900+0x9a>
    2050:	61 c3       	rjmp	.+1730   	; 0x2714 <wykonanie_komend_SIM900+0x75c>
    2052:	1a 38       	cpi	r17, 0x8A	; 138
    2054:	09 f4       	brne	.+2      	; 0x2058 <wykonanie_komend_SIM900+0xa0>
    2056:	bd c3       	rjmp	.+1914   	; 0x27d2 <wykonanie_komend_SIM900+0x81a>
    POMOC_DODAJ2('*', 's');
    POMOC_DODAJ_HEX(nr);
    break;
  }
  default:
    return FALSE;
    2058:	80 e0       	ldi	r24, 0x00	; 0
  }
  return TRUE;
}
    205a:	0f 90       	pop	r0
    205c:	0f 90       	pop	r0
    205e:	0f 90       	pop	r0
    2060:	df 91       	pop	r29
    2062:	cf 91       	pop	r28
    2064:	1f 91       	pop	r17
    2066:	0f 91       	pop	r16
    2068:	ff 90       	pop	r15
    206a:	ef 90       	pop	r14
    206c:	08 95       	ret
      opoznienie_SIM900_100MS || czekanie_na_odebranie_zachety;
    206e:	81 e0       	ldi	r24, 0x01	; 1
      !czy_gsm_zajety && CZY_MOZNA_WYSYLAC_DANE_SIM900() &&
    2070:	00 e0       	ldi	r16, 0x00	; 0
    2072:	d9 cf       	rjmp	.-78     	; 0x2026 <wykonanie_komend_SIM900+0x6e>
  switch (wykonywana_komenda) {
    2074:	1f 38       	cpi	r17, 0x8F	; 143
    2076:	09 f4       	brne	.+2      	; 0x207a <wykonanie_komend_SIM900+0xc2>
    2078:	24 c3       	rjmp	.+1608   	; 0x26c2 <wykonanie_komend_SIM900+0x70a>
    207a:	08 f4       	brcc	.+2      	; 0x207e <wykonanie_komend_SIM900+0xc6>
    207c:	82 c3       	rjmp	.+1796   	; 0x2782 <wykonanie_komend_SIM900+0x7ca>
    207e:	10 39       	cpi	r17, 0x90	; 144
    2080:	09 f4       	brne	.+2      	; 0x2084 <wykonanie_komend_SIM900+0xcc>
    2082:	c7 c3       	rjmp	.+1934   	; 0x2812 <wykonanie_komend_SIM900+0x85a>
    2084:	11 39       	cpi	r17, 0x91	; 145
    2086:	41 f7       	brne	.-48     	; 0x2058 <wykonanie_komend_SIM900+0xa0>
  return TRUE;
    2088:	8f ef       	ldi	r24, 0xFF	; 255
    208a:	e7 cf       	rjmp	.-50     	; 0x205a <wykonanie_komend_SIM900+0xa2>
  switch (wykonywana_komenda) {
    208c:	17 39       	cpi	r17, 0x97	; 151
    208e:	09 f4       	brne	.+2      	; 0x2092 <wykonanie_komend_SIM900+0xda>
    2090:	cf c1       	rjmp	.+926    	; 0x2430 <wykonanie_komend_SIM900+0x478>
    2092:	b8 f4       	brcc	.+46     	; 0x20c2 <wykonanie_komend_SIM900+0x10a>
    2094:	15 39       	cpi	r17, 0x95	; 149
    2096:	09 f4       	brne	.+2      	; 0x209a <wykonanie_komend_SIM900+0xe2>
    2098:	07 c3       	rjmp	.+1550   	; 0x26a8 <wykonanie_komend_SIM900+0x6f0>
    209a:	08 f0       	brcs	.+2      	; 0x209e <wykonanie_komend_SIM900+0xe6>
    209c:	f3 c1       	rjmp	.+998    	; 0x2484 <wykonanie_komend_SIM900+0x4cc>
    209e:	14 39       	cpi	r17, 0x94	; 148
    20a0:	d9 f6       	brne	.-74     	; 0x2058 <wykonanie_komend_SIM900+0xa0>
    JESLI_EEPROM_ZAJETY_WYKONAJ_POZNIEJ();
    20a2:	80 91 db 07 	lds	r24, 0x07DB	; 0x8007db <bufor_pomoc_liczba_znakow_do_zapisu>
    20a6:	81 11       	cpse	r24, r1
    20a8:	0a c0       	rjmp	.+20     	; 0x20be <wykonanie_komend_SIM900+0x106>
    20aa:	80 91 41 02 	lds	r24, 0x0241	; 0x800241 <liczba_znakow_do_zapisu>
    20ae:	81 11       	cpse	r24, r1
    20b0:	06 c0       	rjmp	.+12     	; 0x20be <wykonanie_komend_SIM900+0x106>
    20b2:	80 91 dc 07 	lds	r24, 0x07DC	; 0x8007dc <czy_zajety_bufor_eeprom>
    20b6:	81 11       	cpse	r24, r1
    20b8:	02 c0       	rjmp	.+4      	; 0x20be <wykonanie_komend_SIM900+0x106>
    20ba:	f9 9b       	sbis	0x1f, 1	; 31
    20bc:	96 c3       	rjmp	.+1836   	; 0x27ea <wykonanie_komend_SIM900+0x832>
    20be:	84 e9       	ldi	r24, 0x94	; 148
    20c0:	47 c1       	rjmp	.+654    	; 0x2350 <wykonanie_komend_SIM900+0x398>
  switch (wykonywana_komenda) {
    20c2:	19 39       	cpi	r17, 0x99	; 153
    20c4:	09 f4       	brne	.+2      	; 0x20c8 <wykonanie_komend_SIM900+0x110>
    20c6:	77 c2       	rjmp	.+1262   	; 0x25b6 <wykonanie_komend_SIM900+0x5fe>
    20c8:	08 f4       	brcc	.+2      	; 0x20cc <wykonanie_komend_SIM900+0x114>
    20ca:	86 c1       	rjmp	.+780    	; 0x23d8 <wykonanie_komend_SIM900+0x420>
    20cc:	1a 39       	cpi	r17, 0x9A	; 154
    20ce:	09 f4       	brne	.+2      	; 0x20d2 <wykonanie_komend_SIM900+0x11a>
    20d0:	9b c2       	rjmp	.+1334   	; 0x2608 <wykonanie_komend_SIM900+0x650>
    20d2:	1b 39       	cpi	r17, 0x9B	; 155
    20d4:	09 f6       	brne	.-126    	; 0x2058 <wykonanie_komend_SIM900+0xa0>
    if (flaga_trwa_rozmowa_wychodzaca ||
    20d6:	90 91 b4 03 	lds	r25, 0x03B4	; 0x8003b4 <wykonywanie_rozmowy_telefonicznej>
    20da:	91 11       	cpse	r25, r1
    20dc:	15 c0       	rjmp	.+42     	; 0x2108 <wykonanie_komend_SIM900+0x150>
    20de:	20 91 10 02 	lds	r18, 0x0210	; 0x800210 <licznik_bezpieczenstwa_wykonywana_rozmowa>
    20e2:	30 91 11 02 	lds	r19, 0x0211	; 0x800211 <licznik_bezpieczenstwa_wykonywana_rozmowa+0x1>
    20e6:	23 2b       	or	r18, r19
    20e8:	79 f4       	brne	.+30     	; 0x2108 <wykonanie_komend_SIM900+0x150>
    20ea:	90 91 43 02 	lds	r25, 0x0243	; 0x800243 <opoznienie_zatrzymaj_odpytywanie_urzadzenia>
    20ee:	91 11       	cpse	r25, r1
    20f0:	0b c0       	rjmp	.+22     	; 0x2108 <wykonanie_komend_SIM900+0x150>
        opoznienie_zatrzymaj_odpytywanie_urzadzenia ||
    20f2:	90 91 4c 05 	lds	r25, 0x054C	; 0x80054c <czekanie_na_odebranie_zachety>
    20f6:	91 11       	cpse	r25, r1
    20f8:	07 c0       	rjmp	.+14     	; 0x2108 <wykonanie_komend_SIM900+0x150>
        czekanie_na_odebranie_zachety || czy_gsm_zajety ||
    20fa:	81 11       	cpse	r24, r1
    20fc:	05 c0       	rjmp	.+10     	; 0x2108 <wykonanie_komend_SIM900+0x150>
    20fe:	80 91 e0 01 	lds	r24, 0x01E0	; 0x8001e0 <wysylanie_smsa_clipa>
    2102:	88 23       	and	r24, r24
    2104:	09 f4       	brne	.+2      	; 0x2108 <wykonanie_komend_SIM900+0x150>
    2106:	23 c2       	rjmp	.+1094   	; 0x254e <wykonanie_komend_SIM900+0x596>
      if (poziom_sieci_gsm == POZIOM_SIECI_BLAD ||
    2108:	80 91 06 01 	lds	r24, 0x0106	; 0x800106 <poziom_sieci_gsm>
    210c:	83 36       	cpi	r24, 0x63	; 99
    210e:	11 f0       	breq	.+4      	; 0x2114 <wykonanie_komend_SIM900+0x15c>
    2110:	81 11       	cpse	r24, r1
    2112:	ba cf       	rjmp	.-140    	; 0x2088 <wykonanie_komend_SIM900+0xd0>
        poziom_sieci_gsm = 16;
    2114:	80 e1       	ldi	r24, 0x10	; 16
    2116:	80 93 06 01 	sts	0x0106, r24	; 0x800106 <poziom_sieci_gsm>
    211a:	b6 cf       	rjmp	.-148    	; 0x2088 <wykonanie_komend_SIM900+0xd0>
  switch (wykonywana_komenda) {
    211c:	12 3d       	cpi	r17, 0xD2	; 210
    211e:	08 f0       	brcs	.+2      	; 0x2122 <wykonanie_komend_SIM900+0x16a>
    2120:	81 c0       	rjmp	.+258    	; 0x2224 <wykonanie_komend_SIM900+0x26c>
    2122:	1e 3b       	cpi	r17, 0xBE	; 190
    2124:	08 f0       	brcs	.+2      	; 0x2128 <wykonanie_komend_SIM900+0x170>
    2126:	2b c1       	rjmp	.+598    	; 0x237e <wykonanie_komend_SIM900+0x3c6>
    2128:	15 3a       	cpi	r17, 0xA5	; 165
    212a:	09 f4       	brne	.+2      	; 0x212e <wykonanie_komend_SIM900+0x176>
    212c:	b9 c1       	rjmp	.+882    	; 0x24a0 <wykonanie_komend_SIM900+0x4e8>
    212e:	b0 f4       	brcc	.+44     	; 0x215c <wykonanie_komend_SIM900+0x1a4>
    2130:	1e 39       	cpi	r17, 0x9E	; 158
    2132:	09 f4       	brne	.+2      	; 0x2136 <wykonanie_komend_SIM900+0x17e>
    2134:	92 c2       	rjmp	.+1316   	; 0x265a <wykonanie_komend_SIM900+0x6a2>
    const uchar nr = wykonywana_komenda - KOMENDA_KOLEJKI_SPRAWDZ_PIN;
    2136:	21 e6       	ldi	r18, 0x61	; 97
    2138:	21 0f       	add	r18, r17
            pgm_read_word(&nastepna_komenda[nr]), &instrukcje[nr][0]))
    213a:	e2 2f       	mov	r30, r18
    213c:	f0 e0       	ldi	r31, 0x00	; 0
    213e:	e6 52       	subi	r30, 0x26	; 38
    2140:	ff 4f       	sbci	r31, 0xFF	; 255
    2142:	45 91       	lpm	r20, Z+
    2144:	54 91       	lpm	r21, Z
    if (!wyslanie_polecenia_ROM(
    2146:	fe e0       	ldi	r31, 0x0E	; 14
    2148:	2f 9f       	mul	r18, r31
    214a:	90 01       	movw	r18, r0
    214c:	11 24       	eor	r1, r1
    214e:	2c 51       	subi	r18, 0x1C	; 28
    2150:	3f 4f       	sbci	r19, 0xFF	; 255
    2152:	61 2f       	mov	r22, r17
    2154:	80 2f       	mov	r24, r16
    2156:	0e 94 4b 0f 	call	0x1e96	; 0x1e96 <wyslanie_polecenia_ROM>
    215a:	96 cf       	rjmp	.-212    	; 0x2088 <wykonanie_komend_SIM900+0xd0>
  switch (wykonywana_komenda) {
    215c:	1a 3a       	cpi	r17, 0xAA	; 170
    215e:	58 f3       	brcs	.-42     	; 0x2136 <wykonanie_komend_SIM900+0x17e>
    POWTORZ_JESLI(flaga_odczytywanie_smsa || !modul_zalogowany_w_sieci ||
    2160:	91 11       	cpse	r25, r1
    2162:	96 c0       	rjmp	.+300    	; 0x2290 <wykonanie_komend_SIM900+0x2d8>
    2164:	80 91 e7 01 	lds	r24, 0x01E7	; 0x8001e7 <modul_zalogowany_w_sieci>
    2168:	88 23       	and	r24, r24
    216a:	09 f4       	brne	.+2      	; 0x216e <wykonanie_komend_SIM900+0x1b6>
    216c:	91 c0       	rjmp	.+290    	; 0x2290 <wykonanie_komend_SIM900+0x2d8>
    216e:	80 91 b4 03 	lds	r24, 0x03B4	; 0x8003b4 <wykonywanie_rozmowy_telefonicznej>
    2172:	81 11       	cpse	r24, r1
    2174:	8d c0       	rjmp	.+282    	; 0x2290 <wykonanie_komend_SIM900+0x2d8>
    2176:	80 91 10 02 	lds	r24, 0x0210	; 0x800210 <licznik_bezpieczenstwa_wykonywana_rozmowa>
    217a:	90 91 11 02 	lds	r25, 0x0211	; 0x800211 <licznik_bezpieczenstwa_wykonywana_rozmowa+0x1>
    217e:	89 2b       	or	r24, r25
    2180:	09 f0       	breq	.+2      	; 0x2184 <wykonanie_komend_SIM900+0x1cc>
    2182:	86 c0       	rjmp	.+268    	; 0x2290 <wykonanie_komend_SIM900+0x2d8>
    2184:	80 91 18 02 	lds	r24, 0x0218	; 0x800218 <opoznienie_SIM900_100MS>
    2188:	81 11       	cpse	r24, r1
    218a:	82 c0       	rjmp	.+260    	; 0x2290 <wykonanie_komend_SIM900+0x2d8>
    218c:	80 91 e0 01 	lds	r24, 0x01E0	; 0x8001e0 <wysylanie_smsa_clipa>
    2190:	81 11       	cpse	r24, r1
    2192:	7e c0       	rjmp	.+252    	; 0x2290 <wykonanie_komend_SIM900+0x2d8>
    2194:	80 91 0d 02 	lds	r24, 0x020D	; 0x80020d <flaga_wysylanie_smsa>
    2198:	81 11       	cpse	r24, r1
    219a:	7a c0       	rjmp	.+244    	; 0x2290 <wykonanie_komend_SIM900+0x2d8>
    219c:	80 91 16 02 	lds	r24, 0x0216	; 0x800216 <aktualnie_wysylane_polecenie_SIM900>
    21a0:	82 39       	cpi	r24, 0x92	; 146
    21a2:	09 f4       	brne	.+2      	; 0x21a6 <wykonanie_komend_SIM900+0x1ee>
    21a4:	75 c0       	rjmp	.+234    	; 0x2290 <wykonanie_komend_SIM900+0x2d8>
    JESLI_EEPROM_ZAJETY_WYKONAJ_POZNIEJ();
    21a6:	80 91 db 07 	lds	r24, 0x07DB	; 0x8007db <bufor_pomoc_liczba_znakow_do_zapisu>
    21aa:	81 11       	cpse	r24, r1
    21ac:	71 c0       	rjmp	.+226    	; 0x2290 <wykonanie_komend_SIM900+0x2d8>
    21ae:	80 91 41 02 	lds	r24, 0x0241	; 0x800241 <liczba_znakow_do_zapisu>
    21b2:	81 11       	cpse	r24, r1
    21b4:	6d c0       	rjmp	.+218    	; 0x2290 <wykonanie_komend_SIM900+0x2d8>
    21b6:	80 91 dc 07 	lds	r24, 0x07DC	; 0x8007dc <czy_zajety_bufor_eeprom>
    21ba:	81 11       	cpse	r24, r1
    21bc:	69 c0       	rjmp	.+210    	; 0x2290 <wykonanie_komend_SIM900+0x2d8>
    21be:	f9 99       	sbic	0x1f, 1	; 31
    21c0:	67 c0       	rjmp	.+206    	; 0x2290 <wykonanie_komend_SIM900+0x2d8>
    POWTORZ_JESLI(czy_sa_komendy_z_przedzialu(
    21c2:	61 e0       	ldi	r22, 0x01	; 1
    21c4:	81 e0       	ldi	r24, 0x01	; 1
    21c6:	0e 94 9d 27 	call	0x4f3a	; 0x4f3a <czy_sa_komendy_z_przedzialu>
    21ca:	81 11       	cpse	r24, r1
    21cc:	61 c0       	rjmp	.+194    	; 0x2290 <wykonanie_komend_SIM900+0x2d8>
    21ce:	65 ed       	ldi	r22, 0xD5	; 213
    21d0:	83 ed       	ldi	r24, 0xD3	; 211
    21d2:	0e 94 9d 27 	call	0x4f3a	; 0x4f3a <czy_sa_komendy_z_przedzialu>
    21d6:	81 11       	cpse	r24, r1
    21d8:	5b c0       	rjmp	.+182    	; 0x2290 <wykonanie_komend_SIM900+0x2d8>
    21da:	68 e9       	ldi	r22, 0x98	; 152
    21dc:	86 e9       	ldi	r24, 0x96	; 150
    21de:	0e 94 9d 27 	call	0x4f3a	; 0x4f3a <czy_sa_komendy_z_przedzialu>
    21e2:	81 11       	cpse	r24, r1
    21e4:	55 c0       	rjmp	.+170    	; 0x2290 <wykonanie_komend_SIM900+0x2d8>
    JESLI_SIM900_WYSYLA_DANE_WYKONAJ_POZNIEJ();
    21e6:	00 23       	and	r16, r16
    21e8:	09 f4       	brne	.+2      	; 0x21ec <wykonanie_komend_SIM900+0x234>
    21ea:	52 c0       	rjmp	.+164    	; 0x2290 <wykonanie_komend_SIM900+0x2d8>
    21ec:	10 92 15 02 	sts	0x0215, r1	; 0x800215 <licznik_wysylane_polecenie_SIM900+0x1>
    21f0:	10 92 14 02 	sts	0x0214, r1	; 0x800214 <licznik_wysylane_polecenie_SIM900>
    21f4:	10 93 16 02 	sts	0x0216, r17	; 0x800216 <aktualnie_wysylane_polecenie_SIM900>
    flaga_odczytywanie_smsa = TRUE;
    21f8:	8f ef       	ldi	r24, 0xFF	; 255
    21fa:	80 93 0e 02 	sts	0x020E, r24	; 0x80020e <flaga_odczytywanie_smsa>
    memcpy_R(wysylane_dane_RAM_SIM900, instrukcja_odczytaj_smsa);
    21fe:	46 e0       	ldi	r20, 0x06	; 6
    2200:	50 e0       	ldi	r21, 0x00	; 0
    2202:	62 ef       	ldi	r22, 0xF2	; 242
    2204:	71 e0       	ldi	r23, 0x01	; 1
    2206:	8c e0       	ldi	r24, 0x0C	; 12
    2208:	96 e0       	ldi	r25, 0x06	; 6
    220a:	0e 94 e0 2e 	call	0x5dc0	; 0x5dc0 <memcpy_P>
    220e:	4a e0       	ldi	r20, 0x0A	; 10
    2210:	62 e1       	ldi	r22, 0x12	; 18
    2212:	76 e0       	ldi	r23, 0x06	; 6
    2214:	c7 01       	movw	r24, r14
    2216:	89 5a       	subi	r24, 0xA9	; 169
    2218:	91 09       	sbc	r25, r1
    221a:	0e 94 6a 2f 	call	0x5ed4	; 0x5ed4 <__utoa_ncheck>
    wyslij_polecenie_RAM_SIM900();
    221e:	0e 94 4d 1e 	call	0x3c9a	; 0x3c9a <wyslij_polecenie_RAM_SIM900>
    2222:	32 cf       	rjmp	.-412    	; 0x2088 <wykonanie_komend_SIM900+0xd0>
  switch (wykonywana_komenda) {
    2224:	15 3d       	cpi	r17, 0xD5	; 213
    2226:	09 f4       	brne	.+2      	; 0x222a <wykonanie_komend_SIM900+0x272>
    2228:	52 c0       	rjmp	.+164    	; 0x22ce <wykonanie_komend_SIM900+0x316>
    222a:	80 f4       	brcc	.+32     	; 0x224c <wykonanie_komend_SIM900+0x294>
    222c:	12 3d       	cpi	r17, 0xD2	; 210
    222e:	11 f5       	brne	.+68     	; 0x2274 <wykonanie_komend_SIM900+0x2bc>
    const uchar *ptr = pobierz_numer_telefonu_nadawcy_z_PDU(
    2230:	44 e4       	ldi	r20, 0x44	; 68
    2232:	52 e0       	ldi	r21, 0x02	; 2
    2234:	6a e3       	ldi	r22, 0x3A	; 58
    2236:	73 e0       	ldi	r23, 0x03	; 3
    2238:	81 e7       	ldi	r24, 0x71	; 113
    223a:	92 e0       	ldi	r25, 0x02	; 2
    223c:	0e 94 ba 2a 	call	0x5574	; 0x5574 <pobierz_numer_telefonu_nadawcy_z_PDU>
    if (ptr == 0) // (1)
    2240:	00 97       	sbiw	r24, 0x00	; 0
    2242:	09 f0       	breq	.+2      	; 0x2246 <wykonanie_komend_SIM900+0x28e>
    2244:	5c c0       	rjmp	.+184    	; 0x22fe <wykonanie_komend_SIM900+0x346>
    flaga_odczytywanie_smsa = FALSE;
    2246:	10 92 0e 02 	sts	0x020E, r1	; 0x80020e <flaga_odczytywanie_smsa>
    224a:	1e cf       	rjmp	.-452    	; 0x2088 <wykonanie_komend_SIM900+0xd0>
  switch (wykonywana_komenda) {
    224c:	18 3d       	cpi	r17, 0xD8	; 216
    224e:	09 f4       	brne	.+2      	; 0x2252 <wykonanie_komend_SIM900+0x29a>
    2250:	82 c0       	rjmp	.+260    	; 0x2356 <wykonanie_komend_SIM900+0x39e>
    2252:	1e 3f       	cpi	r17, 0xFE	; 254
    2254:	09 f4       	brne	.+2      	; 0x2258 <wykonanie_komend_SIM900+0x2a0>
    2256:	e7 c2       	rjmp	.+1486   	; 0x2826 <wykonanie_komend_SIM900+0x86e>
    2258:	16 3d       	cpi	r17, 0xD6	; 214
    225a:	09 f0       	breq	.+2      	; 0x225e <wykonanie_komend_SIM900+0x2a6>
    225c:	fd ce       	rjmp	.-518    	; 0x2058 <wykonanie_komend_SIM900+0xa0>
    POWTORZ_JESLI(!modul_zalogowany_w_sieci || opoznienie_SIM900_100MS);
    225e:	80 91 e7 01 	lds	r24, 0x01E7	; 0x8001e7 <modul_zalogowany_w_sieci>
    2262:	88 23       	and	r24, r24
    2264:	29 f0       	breq	.+10     	; 0x2270 <wykonanie_komend_SIM900+0x2b8>
    2266:	80 91 18 02 	lds	r24, 0x0218	; 0x800218 <opoznienie_SIM900_100MS>
    226a:	88 23       	and	r24, r24
    226c:	09 f4       	brne	.+2      	; 0x2270 <wykonanie_komend_SIM900+0x2b8>
    226e:	38 c1       	rjmp	.+624    	; 0x24e0 <wykonanie_komend_SIM900+0x528>
    2270:	86 ed       	ldi	r24, 0xD6	; 214
    2272:	6e c0       	rjmp	.+220    	; 0x2350 <wykonanie_komend_SIM900+0x398>
    POWTORZ_JESLI(flaga_trwa_rozmowa_wychodzaca || opoznienie_SIM900_100MS);
    2274:	80 91 b4 03 	lds	r24, 0x03B4	; 0x8003b4 <wykonywanie_rozmowy_telefonicznej>
    2278:	81 11       	cpse	r24, r1
    227a:	0a c0       	rjmp	.+20     	; 0x2290 <wykonanie_komend_SIM900+0x2d8>
    227c:	80 91 10 02 	lds	r24, 0x0210	; 0x800210 <licznik_bezpieczenstwa_wykonywana_rozmowa>
    2280:	90 91 11 02 	lds	r25, 0x0211	; 0x800211 <licznik_bezpieczenstwa_wykonywana_rozmowa+0x1>
    2284:	89 2b       	or	r24, r25
    2286:	21 f4       	brne	.+8      	; 0x2290 <wykonanie_komend_SIM900+0x2d8>
    2288:	80 91 18 02 	lds	r24, 0x0218	; 0x800218 <opoznienie_SIM900_100MS>
    228c:	88 23       	and	r24, r24
    228e:	11 f0       	breq	.+4      	; 0x2294 <wykonanie_komend_SIM900+0x2dc>
    JESLI_SIM900_WYSYLA_DANE_WYKONAJ_POZNIEJ();
    2290:	81 2f       	mov	r24, r17
    2292:	5e c0       	rjmp	.+188    	; 0x2350 <wykonanie_komend_SIM900+0x398>
    JESLI_EEPROM_ZAJETY_WYKONAJ_POZNIEJ();
    2294:	80 91 db 07 	lds	r24, 0x07DB	; 0x8007db <bufor_pomoc_liczba_znakow_do_zapisu>
    2298:	81 11       	cpse	r24, r1
    229a:	fa cf       	rjmp	.-12     	; 0x2290 <wykonanie_komend_SIM900+0x2d8>
    229c:	80 91 41 02 	lds	r24, 0x0241	; 0x800241 <liczba_znakow_do_zapisu>
    22a0:	81 11       	cpse	r24, r1
    22a2:	f6 cf       	rjmp	.-20     	; 0x2290 <wykonanie_komend_SIM900+0x2d8>
    22a4:	80 91 dc 07 	lds	r24, 0x07DC	; 0x8007dc <czy_zajety_bufor_eeprom>
    22a8:	81 11       	cpse	r24, r1
    22aa:	f2 cf       	rjmp	.-28     	; 0x2290 <wykonanie_komend_SIM900+0x2d8>
    22ac:	f9 99       	sbic	0x1f, 1	; 31
    22ae:	f0 cf       	rjmp	.-32     	; 0x2290 <wykonanie_komend_SIM900+0x2d8>
    JESLI_SIM900_WYSYLA_DANE_WYKONAJ_POZNIEJ();
    22b0:	00 23       	and	r16, r16
    22b2:	71 f3       	breq	.-36     	; 0x2290 <wykonanie_komend_SIM900+0x2d8>
    22b4:	10 92 15 02 	sts	0x0215, r1	; 0x800215 <licznik_wysylane_polecenie_SIM900+0x1>
    22b8:	10 92 14 02 	sts	0x0214, r1	; 0x800214 <licznik_wysylane_polecenie_SIM900>
    22bc:	10 93 16 02 	sts	0x0216, r17	; 0x800216 <aktualnie_wysylane_polecenie_SIM900>
    wyslij_sms(wykonywana_komenda == KOMENDA_KOLEJKI_WYSLIJ_SMSA_PDU);
    22c0:	81 e0       	ldi	r24, 0x01	; 1
    22c2:	14 3d       	cpi	r17, 0xD4	; 212
    22c4:	09 f0       	breq	.+2      	; 0x22c8 <wykonanie_komend_SIM900+0x310>
    22c6:	80 e0       	ldi	r24, 0x00	; 0
    22c8:	0e 94 5f 0f 	call	0x1ebe	; 0x1ebe <wyslij_sms>
    22cc:	dd ce       	rjmp	.-582    	; 0x2088 <wykonanie_komend_SIM900+0xd0>
    czekanie_na_odebranie_zachety = FALSE;
    22ce:	10 92 4c 05 	sts	0x054C, r1	; 0x80054c <czekanie_na_odebranie_zachety>
    konwertuj_pdu_na_blok_wysylany(wysylany_blok_SIM900, bufor_pdu,
    22d2:	40 91 0f 02 	lds	r20, 0x020F	; 0x80020f <dlugosc_pdu>
    22d6:	61 e7       	ldi	r22, 0x71	; 113
    22d8:	72 e0       	ldi	r23, 0x02	; 2
    22da:	8a e0       	ldi	r24, 0x0A	; 10
    22dc:	96 e0       	ldi	r25, 0x06	; 6
    22de:	0e 94 f4 2b 	call	0x57e8	; 0x57e8 <konwertuj_pdu_na_blok_wysylany>
    const uint liczba_znakow = 2 * dlugosc_pdu + 1;
    22e2:	80 91 0f 02 	lds	r24, 0x020F	; 0x80020f <dlugosc_pdu>
    22e6:	90 e0       	ldi	r25, 0x00	; 0
    22e8:	88 0f       	add	r24, r24
    22ea:	99 1f       	adc	r25, r25
    22ec:	01 96       	adiw	r24, 0x01	; 1
    wysylany_blok_SIM900[liczba_znakow - 1] = ZNAK_CTRL_Z;
    22ee:	fc 01       	movw	r30, r24
    22f0:	e7 5f       	subi	r30, 0xF7	; 247
    22f2:	f9 4f       	sbci	r31, 0xF9	; 249
    22f4:	2a e1       	ldi	r18, 0x1A	; 26
    22f6:	20 83       	st	Z, r18
    wyslij_znaki_SIM900(liczba_znakow);
    22f8:	0e 94 18 1e 	call	0x3c30	; 0x3c30 <wyslij_znaki_SIM900>
    22fc:	c5 ce       	rjmp	.-630    	; 0x2088 <wykonanie_komend_SIM900+0xd0>
      ptr = pobierz_date_z_PDU(ptr, &rok, &miesiac, &dzien);
    22fe:	9e 01       	movw	r18, r28
    2300:	2f 5f       	subi	r18, 0xFF	; 255
    2302:	3f 4f       	sbci	r19, 0xFF	; 255
    2304:	ae 01       	movw	r20, r28
    2306:	4e 5f       	subi	r20, 0xFE	; 254
    2308:	5f 4f       	sbci	r21, 0xFF	; 255
    230a:	be 01       	movw	r22, r28
    230c:	6d 5f       	subi	r22, 0xFD	; 253
    230e:	7f 4f       	sbci	r23, 0xFF	; 255
    2310:	0e 94 11 2b 	call	0x5622	; 0x5622 <pobierz_date_z_PDU>
      ptr = pobierz_czas_z_PDU(ptr, &godzina, &minuta, &sekunda);
    2314:	9e 01       	movw	r18, r28
    2316:	2f 5f       	subi	r18, 0xFF	; 255
    2318:	3f 4f       	sbci	r19, 0xFF	; 255
    231a:	ae 01       	movw	r20, r28
    231c:	4e 5f       	subi	r20, 0xFE	; 254
    231e:	5f 4f       	sbci	r21, 0xFF	; 255
    2320:	be 01       	movw	r22, r28
    2322:	6d 5f       	subi	r22, 0xFD	; 253
    2324:	7f 4f       	sbci	r23, 0xFF	; 255
    2326:	0e 94 34 2b 	call	0x5668	; 0x5668 <pobierz_czas_z_PDU>
      sms_timestamp_godzina = godzina;
    232a:	2b 81       	ldd	r18, Y+3	; 0x03
    232c:	20 93 f8 01 	sts	0x01F8, r18	; 0x8001f8 <sms_timestamp_godzina>
      sms_timestamp_minuta = minuta;
    2330:	2a 81       	ldd	r18, Y+2	; 0x02
    2332:	20 93 f7 01 	sts	0x01F7, r18	; 0x8001f7 <sms_timestamp_minuta>
      sms_timestamp_sekunda = sekunda;
    2336:	29 81       	ldd	r18, Y+1	; 0x01
    2338:	20 93 f6 01 	sts	0x01F6, r18	; 0x8001f6 <sms_timestamp_sekunda>
    ptr_start_pdu_z_wiadomoscia = (uchar *)ptr;
    233c:	90 93 99 03 	sts	0x0399, r25	; 0x800399 <ptr_start_pdu_z_wiadomoscia+0x1>
    2340:	80 93 98 03 	sts	0x0398, r24	; 0x800398 <ptr_start_pdu_z_wiadomoscia>
    pdu_to_ascii(ptr, tekst_odebranego_smsa, MAX_LICZBA_ZNAKOW_SMS + 1);
    2344:	41 ea       	ldi	r20, 0xA1	; 161
    2346:	69 ef       	ldi	r22, 0xF9	; 249
    2348:	76 e0       	ldi	r23, 0x06	; 6
    234a:	0e 94 cf 29 	call	0x539e	; 0x539e <pdu_to_ascii>
    JESLI_EEPROM_ZAJETY_WYKONAJ_POZNIEJ();
    234e:	88 ed       	ldi	r24, 0xD8	; 216
    JESLI_EEPROM_ZAJETY_WYKONAJ_POZNIEJ();
    2350:	0e 94 54 27 	call	0x4ea8	; 0x4ea8 <dodaj_komende>
    2354:	99 ce       	rjmp	.-718    	; 0x2088 <wykonanie_komend_SIM900+0xd0>
    JESLI_EEPROM_ZAJETY_WYKONAJ_POZNIEJ();
    2356:	80 91 db 07 	lds	r24, 0x07DB	; 0x8007db <bufor_pomoc_liczba_znakow_do_zapisu>
    235a:	81 11       	cpse	r24, r1
    235c:	f8 cf       	rjmp	.-16     	; 0x234e <wykonanie_komend_SIM900+0x396>
    235e:	80 91 41 02 	lds	r24, 0x0241	; 0x800241 <liczba_znakow_do_zapisu>
    2362:	81 11       	cpse	r24, r1
    2364:	f4 cf       	rjmp	.-24     	; 0x234e <wykonanie_komend_SIM900+0x396>
    2366:	80 91 dc 07 	lds	r24, 0x07DC	; 0x8007dc <czy_zajety_bufor_eeprom>
    236a:	81 11       	cpse	r24, r1
    236c:	f0 cf       	rjmp	.-32     	; 0x234e <wykonanie_komend_SIM900+0x396>
    236e:	f9 99       	sbic	0x1f, 1	; 31
    2370:	ee cf       	rjmp	.-36     	; 0x234e <wykonanie_komend_SIM900+0x396>
    zapal_diode_led(10);
    2372:	8b e0       	ldi	r24, 0x0B	; 11
    2374:	80 93 6e 03 	sts	0x036E, r24	; 0x80036e <licznik_100ms_dioda_led>
    wykonanie_polecenia_sms();
    2378:	0e 94 8c 06 	call	0xd18	; 0xd18 <wykonanie_polecenia_sms>
    237c:	64 cf       	rjmp	.-312    	; 0x2246 <wykonanie_komend_SIM900+0x28e>
    POWTORZ_JESLI(flaga_odczytywanie_smsa || flaga_trwa_rozmowa_wychodzaca ||
    237e:	91 11       	cpse	r25, r1
    2380:	87 cf       	rjmp	.-242    	; 0x2290 <wykonanie_komend_SIM900+0x2d8>
    2382:	80 91 b4 03 	lds	r24, 0x03B4	; 0x8003b4 <wykonywanie_rozmowy_telefonicznej>
    2386:	81 11       	cpse	r24, r1
    2388:	83 cf       	rjmp	.-250    	; 0x2290 <wykonanie_komend_SIM900+0x2d8>
    238a:	80 91 10 02 	lds	r24, 0x0210	; 0x800210 <licznik_bezpieczenstwa_wykonywana_rozmowa>
    238e:	90 91 11 02 	lds	r25, 0x0211	; 0x800211 <licznik_bezpieczenstwa_wykonywana_rozmowa+0x1>
    2392:	89 2b       	or	r24, r25
    2394:	09 f0       	breq	.+2      	; 0x2398 <wykonanie_komend_SIM900+0x3e0>
    2396:	7c cf       	rjmp	.-264    	; 0x2290 <wykonanie_komend_SIM900+0x2d8>
    2398:	80 91 43 02 	lds	r24, 0x0243	; 0x800243 <opoznienie_zatrzymaj_odpytywanie_urzadzenia>
    239c:	81 11       	cpse	r24, r1
    239e:	78 cf       	rjmp	.-272    	; 0x2290 <wykonanie_komend_SIM900+0x2d8>
    23a0:	80 91 4c 05 	lds	r24, 0x054C	; 0x80054c <czekanie_na_odebranie_zachety>
    23a4:	81 11       	cpse	r24, r1
    23a6:	74 cf       	rjmp	.-280    	; 0x2290 <wykonanie_komend_SIM900+0x2d8>
    JESLI_SIM900_WYSYLA_DANE_WYKONAJ_POZNIEJ();
    23a8:	00 23       	and	r16, r16
    23aa:	09 f4       	brne	.+2      	; 0x23ae <wykonanie_komend_SIM900+0x3f6>
    23ac:	71 cf       	rjmp	.-286    	; 0x2290 <wykonanie_komend_SIM900+0x2d8>
    23ae:	10 92 15 02 	sts	0x0215, r1	; 0x800215 <licznik_wysylane_polecenie_SIM900+0x1>
    23b2:	10 92 14 02 	sts	0x0214, r1	; 0x800214 <licznik_wysylane_polecenie_SIM900>
    23b6:	10 93 16 02 	sts	0x0216, r17	; 0x800216 <aktualnie_wysylane_polecenie_SIM900>
    memcpy_R(wysylane_dane_RAM_SIM900, instrukcja_usun_smsa);
    23ba:	46 e0       	ldi	r20, 0x06	; 6
    23bc:	50 e0       	ldi	r21, 0x00	; 0
    23be:	6b ee       	ldi	r22, 0xEB	; 235
    23c0:	71 e0       	ldi	r23, 0x01	; 1
    23c2:	8c e0       	ldi	r24, 0x0C	; 12
    23c4:	96 e0       	ldi	r25, 0x06	; 6
    23c6:	0e 94 e0 2e 	call	0x5dc0	; 0x5dc0 <memcpy_P>
    23ca:	4a e0       	ldi	r20, 0x0A	; 10
    23cc:	62 e1       	ldi	r22, 0x12	; 18
    23ce:	76 e0       	ldi	r23, 0x06	; 6
    23d0:	c7 01       	movw	r24, r14
    23d2:	8d 5b       	subi	r24, 0xBD	; 189
    23d4:	91 09       	sbc	r25, r1
    23d6:	21 cf       	rjmp	.-446    	; 0x221a <wykonanie_komend_SIM900+0x262>
    JESLI_EEPROM_ZAJETY_WYKONAJ_POZNIEJ();
    23d8:	80 91 db 07 	lds	r24, 0x07DB	; 0x8007db <bufor_pomoc_liczba_znakow_do_zapisu>
    23dc:	81 11       	cpse	r24, r1
    23de:	0a c0       	rjmp	.+20     	; 0x23f4 <wykonanie_komend_SIM900+0x43c>
    23e0:	80 91 41 02 	lds	r24, 0x0241	; 0x800241 <liczba_znakow_do_zapisu>
    23e4:	81 11       	cpse	r24, r1
    23e6:	06 c0       	rjmp	.+12     	; 0x23f4 <wykonanie_komend_SIM900+0x43c>
    23e8:	80 91 dc 07 	lds	r24, 0x07DC	; 0x8007dc <czy_zajety_bufor_eeprom>
    23ec:	81 11       	cpse	r24, r1
    23ee:	02 c0       	rjmp	.+4      	; 0x23f4 <wykonanie_komend_SIM900+0x43c>
    23f0:	f9 9b       	sbis	0x1f, 1	; 31
    23f2:	02 c0       	rjmp	.+4      	; 0x23f8 <wykonanie_komend_SIM900+0x440>
    23f4:	88 e9       	ldi	r24, 0x98	; 152
    23f6:	ac cf       	rjmp	.-168    	; 0x2350 <wykonanie_komend_SIM900+0x398>
    zapal_diode_led(10);
    23f8:	8b e0       	ldi	r24, 0x0B	; 11
    23fa:	80 93 6e 03 	sts	0x036E, r24	; 0x80036e <licznik_100ms_dioda_led>
    uchar status_ok =
    23fe:	0e 94 77 09 	call	0x12ee	; 0x12ee <sprawdz_przychodzaca_rozmowe>
    if (status_ok) {
    2402:	88 23       	and	r24, r24
    2404:	61 f0       	breq	.+24     	; 0x241e <wykonanie_komend_SIM900+0x466>
      if (tryb_clip) {
    2406:	80 91 01 01 	lds	r24, 0x0101	; 0x800101 <tryb_clip>
    240a:	88 23       	and	r24, r24
    240c:	79 f0       	breq	.+30     	; 0x242c <wykonanie_komend_SIM900+0x474>
        if (polozenie_polecenia_SIM900(PSTR("+CMTI:")) == NULL) {
    240e:	84 ee       	ldi	r24, 0xE4	; 228
    2410:	91 e0       	ldi	r25, 0x01	; 1
    2412:	0e 94 79 03 	call	0x6f2	; 0x6f2 <polozenie_polecenia_SIM900>
    2416:	89 2b       	or	r24, r25
    2418:	11 f4       	brne	.+4      	; 0x241e <wykonanie_komend_SIM900+0x466>
          ustaw_wyjscie_clip();
    241a:	0e 94 7c 06 	call	0xcf8	; 0xcf8 <ustaw_wyjscie_clip>
        dodaj_komende(KOMENDA_KOLEJKI_ODRZUC_ROZMOWE);
    241e:	87 e9       	ldi	r24, 0x97	; 151
        dodaj_komende(KOMENDA_KOLEJKI_ODBIERZ_ROZMOWE);
    2420:	0e 94 54 27 	call	0x4ea8	; 0x4ea8 <dodaj_komende>
    blokada_clip = TRUE;
    2424:	8f ef       	ldi	r24, 0xFF	; 255
    2426:	80 93 ff 01 	sts	0x01FF, r24	; 0x8001ff <blokada_clip>
    break;
    242a:	17 ce       	rjmp	.-978    	; 0x205a <wykonanie_komend_SIM900+0xa2>
        dodaj_komende(KOMENDA_KOLEJKI_ODBIERZ_ROZMOWE);
    242c:	86 e9       	ldi	r24, 0x96	; 150
    242e:	f8 cf       	rjmp	.-16     	; 0x2420 <wykonanie_komend_SIM900+0x468>
    POWTORZ_JESLI(
    2430:	80 91 0d 02 	lds	r24, 0x020D	; 0x80020d <flaga_wysylanie_smsa>
    2434:	81 11       	cpse	r24, r1
    2436:	18 c0       	rjmp	.+48     	; 0x2468 <wykonanie_komend_SIM900+0x4b0>
    2438:	80 91 b4 03 	lds	r24, 0x03B4	; 0x8003b4 <wykonywanie_rozmowy_telefonicznej>
    243c:	81 11       	cpse	r24, r1
    243e:	14 c0       	rjmp	.+40     	; 0x2468 <wykonanie_komend_SIM900+0x4b0>
    2440:	80 91 16 02 	lds	r24, 0x0216	; 0x800216 <aktualnie_wysylane_polecenie_SIM900>
    2444:	81 11       	cpse	r24, r1
    2446:	10 c0       	rjmp	.+32     	; 0x2468 <wykonanie_komend_SIM900+0x4b0>
    2448:	80 91 4c 05 	lds	r24, 0x054C	; 0x80054c <czekanie_na_odebranie_zachety>
    244c:	81 11       	cpse	r24, r1
    244e:	0c c0       	rjmp	.+24     	; 0x2468 <wykonanie_komend_SIM900+0x4b0>
    2450:	80 91 c1 00 	lds	r24, 0x00C1	; 0x8000c1 <__TEXT_REGION_LENGTH__+0x7e00c1>
    2454:	86 fd       	sbrc	r24, 6
    2456:	08 c0       	rjmp	.+16     	; 0x2468 <wykonanie_komend_SIM900+0x4b0>
    2458:	80 91 37 02 	lds	r24, 0x0237	; 0x800237 <podlaczony_modul_gsm_SIM900>
    245c:	88 23       	and	r24, r24
    245e:	21 f0       	breq	.+8      	; 0x2468 <wykonanie_komend_SIM900+0x4b0>
    2460:	80 91 38 02 	lds	r24, 0x0238	; 0x800238 <komenda_SIM900>
    2464:	88 23       	and	r24, r24
    2466:	11 f0       	breq	.+4      	; 0x246c <wykonanie_komend_SIM900+0x4b4>
    2468:	87 e9       	ldi	r24, 0x97	; 151
    246a:	72 cf       	rjmp	.-284    	; 0x2350 <wykonanie_komend_SIM900+0x398>
    wysylane_polecenie_SIM900 = wykonywana_komenda;
    246c:	10 92 15 02 	sts	0x0215, r1	; 0x800215 <licznik_wysylane_polecenie_SIM900+0x1>
    2470:	10 92 14 02 	sts	0x0214, r1	; 0x800214 <licznik_wysylane_polecenie_SIM900>
    2474:	87 e9       	ldi	r24, 0x97	; 151
    2476:	80 93 16 02 	sts	0x0216, r24	; 0x800216 <aktualnie_wysylane_polecenie_SIM900>
    wyslij_polecenie_ROM_SIM900(instrukcja_odrzuc_rozmowe);
    247a:	82 ee       	ldi	r24, 0xE2	; 226
    247c:	91 e0       	ldi	r25, 0x01	; 1
    wyslij_polecenie_ROM_SIM900(instrukcja_usun_wszystkie_smsy);
    247e:	0e 94 31 1e 	call	0x3c62	; 0x3c62 <wyslij_polecenie_ROM_SIM900>
    2482:	02 ce       	rjmp	.-1020   	; 0x2088 <wykonanie_komend_SIM900+0xd0>
    JESLI_SIM900_WYSYLA_DANE_WYKONAJ_POZNIEJ();
    2484:	86 e9       	ldi	r24, 0x96	; 150
    2486:	00 23       	and	r16, r16
    2488:	09 f4       	brne	.+2      	; 0x248c <wykonanie_komend_SIM900+0x4d4>
    248a:	62 cf       	rjmp	.-316    	; 0x2350 <wykonanie_komend_SIM900+0x398>
    248c:	10 92 15 02 	sts	0x0215, r1	; 0x800215 <licznik_wysylane_polecenie_SIM900+0x1>
    2490:	10 92 14 02 	sts	0x0214, r1	; 0x800214 <licznik_wysylane_polecenie_SIM900>
    2494:	86 e9       	ldi	r24, 0x96	; 150
    2496:	80 93 16 02 	sts	0x0216, r24	; 0x800216 <aktualnie_wysylane_polecenie_SIM900>
    wyslij_polecenie_ROM_SIM900(instrukcja_odbierz_rozmowe);
    249a:	80 ee       	ldi	r24, 0xE0	; 224
    249c:	91 e0       	ldi	r25, 0x01	; 1
    249e:	ef cf       	rjmp	.-34     	; 0x247e <wykonanie_komend_SIM900+0x4c6>
    POWTORZ_JESLI(opoznienie_SIM900_100MS);
    24a0:	80 91 18 02 	lds	r24, 0x0218	; 0x800218 <opoznienie_SIM900_100MS>
    24a4:	88 23       	and	r24, r24
    24a6:	11 f0       	breq	.+4      	; 0x24ac <wykonanie_komend_SIM900+0x4f4>
    24a8:	85 ea       	ldi	r24, 0xA5	; 165
    24aa:	52 cf       	rjmp	.-348    	; 0x2350 <wykonanie_komend_SIM900+0x398>
    if (!CZY_MOZNA_WYSYLAC_DANE_SIM900() || !czy_jest_bezczynny_SIM900() ||
    24ac:	80 91 c1 00 	lds	r24, 0x00C1	; 0x8000c1 <__TEXT_REGION_LENGTH__+0x7e00c1>
    24b0:	86 fd       	sbrc	r24, 6
    24b2:	fa cf       	rjmp	.-12     	; 0x24a8 <wykonanie_komend_SIM900+0x4f0>
    24b4:	80 91 37 02 	lds	r24, 0x0237	; 0x800237 <podlaczony_modul_gsm_SIM900>
    24b8:	88 23       	and	r24, r24
    24ba:	b1 f3       	breq	.-20     	; 0x24a8 <wykonanie_komend_SIM900+0x4f0>
    24bc:	80 91 38 02 	lds	r24, 0x0238	; 0x800238 <komenda_SIM900>
    24c0:	81 11       	cpse	r24, r1
    24c2:	f2 cf       	rjmp	.-28     	; 0x24a8 <wykonanie_komend_SIM900+0x4f0>
    24c4:	80 91 16 02 	lds	r24, 0x0216	; 0x800216 <aktualnie_wysylane_polecenie_SIM900>
    24c8:	81 11       	cpse	r24, r1
    24ca:	ee cf       	rjmp	.-36     	; 0x24a8 <wykonanie_komend_SIM900+0x4f0>
    wysylane_polecenie_SIM900 = wykonywana_komenda;
    24cc:	10 92 15 02 	sts	0x0215, r1	; 0x800215 <licznik_wysylane_polecenie_SIM900+0x1>
    24d0:	10 92 14 02 	sts	0x0214, r1	; 0x800214 <licznik_wysylane_polecenie_SIM900>
    24d4:	85 ea       	ldi	r24, 0xA5	; 165
    24d6:	80 93 16 02 	sts	0x0216, r24	; 0x800216 <aktualnie_wysylane_polecenie_SIM900>
    wyslij_polecenie_ROM_SIM900(instrukcja_vts);
    24da:	89 ed       	ldi	r24, 0xD9	; 217
    24dc:	91 e0       	ldi	r25, 0x01	; 1
    24de:	cf cf       	rjmp	.-98     	; 0x247e <wykonanie_komend_SIM900+0x4c6>
    if (wykonywanie_rozmowy_telefonicznej)
    24e0:	80 91 b4 03 	lds	r24, 0x03B4	; 0x8003b4 <wykonywanie_rozmowy_telefonicznej>
    24e4:	81 11       	cpse	r24, r1
    24e6:	d0 cd       	rjmp	.-1120   	; 0x2088 <wykonanie_komend_SIM900+0xd0>
    JESLI_SIM900_WYSYLA_DANE_WYKONAJ_POZNIEJ();
    24e8:	00 23       	and	r16, r16
    24ea:	09 f4       	brne	.+2      	; 0x24ee <wykonanie_komend_SIM900+0x536>
    24ec:	c1 ce       	rjmp	.-638    	; 0x2270 <wykonanie_komend_SIM900+0x2b8>
    24ee:	10 92 15 02 	sts	0x0215, r1	; 0x800215 <licznik_wysylane_polecenie_SIM900+0x1>
    24f2:	10 92 14 02 	sts	0x0214, r1	; 0x800214 <licznik_wysylane_polecenie_SIM900>
    24f6:	86 ed       	ldi	r24, 0xD6	; 214
    24f8:	80 93 16 02 	sts	0x0216, r24	; 0x800216 <aktualnie_wysylane_polecenie_SIM900>
    zapal_diode_led(20);
    24fc:	85 e1       	ldi	r24, 0x15	; 21
    24fe:	80 93 6e 03 	sts	0x036E, r24	; 0x80036e <licznik_100ms_dioda_led>
    wysylane_dane_RAM_SIM900[0] = 'd';
    2502:	84 e6       	ldi	r24, 0x64	; 100
    2504:	80 93 0c 06 	sts	0x060C, r24	; 0x80060c <wysylany_blok_SIM900+0x2>
    strcpy(wysylane_dane_RAM_SIM900 + 1, numer_telefonu_do_ktorego_dzwonic);
    2508:	6b e4       	ldi	r22, 0x4B	; 75
    250a:	73 e0       	ldi	r23, 0x03	; 3
    250c:	8d e0       	ldi	r24, 0x0D	; 13
    250e:	96 e0       	ldi	r25, 0x06	; 6
    2510:	0e 94 63 2f 	call	0x5ec6	; 0x5ec6 <strcpy>
    uchar l = strlen(numer_telefonu_do_ktorego_dzwonic) + 1;
    2514:	8b e4       	ldi	r24, 0x4B	; 75
    2516:	93 e0       	ldi	r25, 0x03	; 3
    2518:	fc 01       	movw	r30, r24
    251a:	01 90       	ld	r0, Z+
    251c:	00 20       	and	r0, r0
    251e:	e9 f7       	brne	.-6      	; 0x251a <wykonanie_komend_SIM900+0x562>
    2520:	cf 01       	movw	r24, r30
    2522:	8c 54       	subi	r24, 0x4C	; 76
    2524:	93 40       	sbci	r25, 0x03	; 3
    2526:	8f 5f       	subi	r24, 0xFF	; 255
    wysylane_dane_RAM_SIM900[l] = ';';
    2528:	90 e0       	ldi	r25, 0x00	; 0
    252a:	fc 01       	movw	r30, r24
    252c:	e4 5f       	subi	r30, 0xF4	; 244
    252e:	f9 4f       	sbci	r31, 0xF9	; 249
    2530:	2b e3       	ldi	r18, 0x3B	; 59
    2532:	20 83       	st	Z, r18
    wysylane_dane_RAM_SIM900[l + 1] = '\0';
    2534:	83 5f       	subi	r24, 0xF3	; 243
    2536:	99 4f       	sbci	r25, 0xF9	; 249
    2538:	fc 01       	movw	r30, r24
    253a:	10 82       	st	Z, r1
    wyslij_polecenie_RAM_SIM900();
    253c:	0e 94 4d 1e 	call	0x3c9a	; 0x3c9a <wyslij_polecenie_RAM_SIM900>
    licznik_bezpieczenstwa_wykonywana_rozmowa = 300;
    2540:	8c e2       	ldi	r24, 0x2C	; 44
    2542:	91 e0       	ldi	r25, 0x01	; 1
    2544:	90 93 11 02 	sts	0x0211, r25	; 0x800211 <licznik_bezpieczenstwa_wykonywana_rozmowa+0x1>
    2548:	80 93 10 02 	sts	0x0210, r24	; 0x800210 <licznik_bezpieczenstwa_wykonywana_rozmowa>
    254c:	9d cd       	rjmp	.-1222   	; 0x2088 <wykonanie_komend_SIM900+0xd0>
    JESLI_SIM900_WYSYLA_DANE_WYKONAJ_POZNIEJ();
    254e:	8b e9       	ldi	r24, 0x9B	; 155
    2550:	00 23       	and	r16, r16
    2552:	09 f4       	brne	.+2      	; 0x2556 <wykonanie_komend_SIM900+0x59e>
    2554:	fd ce       	rjmp	.-518    	; 0x2350 <wykonanie_komend_SIM900+0x398>
    2556:	10 92 15 02 	sts	0x0215, r1	; 0x800215 <licznik_wysylane_polecenie_SIM900+0x1>
    255a:	10 92 14 02 	sts	0x0214, r1	; 0x800214 <licznik_wysylane_polecenie_SIM900>
    255e:	8b e9       	ldi	r24, 0x9B	; 155
    2560:	80 93 16 02 	sts	0x0216, r24	; 0x800216 <aktualnie_wysylane_polecenie_SIM900>
    wyslij_polecenie_ROM_SIM900(instrukcja_poziom_sieci);
    2564:	84 ed       	ldi	r24, 0xD4	; 212
    2566:	91 e0       	ldi	r25, 0x01	; 1
    2568:	8a cf       	rjmp	.-236    	; 0x247e <wykonanie_komend_SIM900+0x4c6>
    if (flaga_trwa_rozmowa_wychodzaca ||
    256a:	90 91 b4 03 	lds	r25, 0x03B4	; 0x8003b4 <wykonywanie_rozmowy_telefonicznej>
    256e:	91 11       	cpse	r25, r1
    2570:	8b cd       	rjmp	.-1258   	; 0x2088 <wykonanie_komend_SIM900+0xd0>
    2572:	20 91 10 02 	lds	r18, 0x0210	; 0x800210 <licznik_bezpieczenstwa_wykonywana_rozmowa>
    2576:	30 91 11 02 	lds	r19, 0x0211	; 0x800211 <licznik_bezpieczenstwa_wykonywana_rozmowa+0x1>
    257a:	23 2b       	or	r18, r19
    257c:	09 f0       	breq	.+2      	; 0x2580 <wykonanie_komend_SIM900+0x5c8>
    257e:	84 cd       	rjmp	.-1272   	; 0x2088 <wykonanie_komend_SIM900+0xd0>
    2580:	90 91 43 02 	lds	r25, 0x0243	; 0x800243 <opoznienie_zatrzymaj_odpytywanie_urzadzenia>
    2584:	91 11       	cpse	r25, r1
    2586:	80 cd       	rjmp	.-1280   	; 0x2088 <wykonanie_komend_SIM900+0xd0>
        opoznienie_zatrzymaj_odpytywanie_urzadzenia ||
    2588:	90 91 4c 05 	lds	r25, 0x054C	; 0x80054c <czekanie_na_odebranie_zachety>
    258c:	91 11       	cpse	r25, r1
    258e:	7c cd       	rjmp	.-1288   	; 0x2088 <wykonanie_komend_SIM900+0xd0>
        czekanie_na_odebranie_zachety || czy_gsm_zajety ||
    2590:	81 11       	cpse	r24, r1
    2592:	7a cd       	rjmp	.-1292   	; 0x2088 <wykonanie_komend_SIM900+0xd0>
    2594:	80 91 e0 01 	lds	r24, 0x01E0	; 0x8001e0 <wysylanie_smsa_clipa>
    2598:	81 11       	cpse	r24, r1
    259a:	76 cd       	rjmp	.-1300   	; 0x2088 <wykonanie_komend_SIM900+0xd0>
    JESLI_SIM900_WYSYLA_DANE_WYKONAJ_POZNIEJ();
    259c:	8d e9       	ldi	r24, 0x9D	; 157
    259e:	00 23       	and	r16, r16
    25a0:	09 f4       	brne	.+2      	; 0x25a4 <wykonanie_komend_SIM900+0x5ec>
    25a2:	d6 ce       	rjmp	.-596    	; 0x2350 <wykonanie_komend_SIM900+0x398>
    25a4:	10 92 15 02 	sts	0x0215, r1	; 0x800215 <licznik_wysylane_polecenie_SIM900+0x1>
    25a8:	10 92 14 02 	sts	0x0214, r1	; 0x800214 <licznik_wysylane_polecenie_SIM900>
    25ac:	10 93 16 02 	sts	0x0216, r17	; 0x800216 <aktualnie_wysylane_polecenie_SIM900>
    wyslij_polecenie_ROM_SIM900(instrukcja_creg);
    25b0:	8d ec       	ldi	r24, 0xCD	; 205
    25b2:	91 e0       	ldi	r25, 0x01	; 1
    25b4:	64 cf       	rjmp	.-312    	; 0x247e <wykonanie_komend_SIM900+0x4c6>
    if (flaga_trwa_rozmowa_wychodzaca ||
    25b6:	90 91 b4 03 	lds	r25, 0x03B4	; 0x8003b4 <wykonywanie_rozmowy_telefonicznej>
    25ba:	91 11       	cpse	r25, r1
    25bc:	14 c0       	rjmp	.+40     	; 0x25e6 <wykonanie_komend_SIM900+0x62e>
    25be:	20 91 10 02 	lds	r18, 0x0210	; 0x800210 <licznik_bezpieczenstwa_wykonywana_rozmowa>
    25c2:	30 91 11 02 	lds	r19, 0x0211	; 0x800211 <licznik_bezpieczenstwa_wykonywana_rozmowa+0x1>
    25c6:	23 2b       	or	r18, r19
    25c8:	71 f4       	brne	.+28     	; 0x25e6 <wykonanie_komend_SIM900+0x62e>
    25ca:	90 91 43 02 	lds	r25, 0x0243	; 0x800243 <opoznienie_zatrzymaj_odpytywanie_urzadzenia>
    25ce:	91 11       	cpse	r25, r1
    25d0:	0a c0       	rjmp	.+20     	; 0x25e6 <wykonanie_komend_SIM900+0x62e>
        opoznienie_zatrzymaj_odpytywanie_urzadzenia ||
    25d2:	90 91 4c 05 	lds	r25, 0x054C	; 0x80054c <czekanie_na_odebranie_zachety>
    25d6:	91 11       	cpse	r25, r1
    25d8:	06 c0       	rjmp	.+12     	; 0x25e6 <wykonanie_komend_SIM900+0x62e>
        czekanie_na_odebranie_zachety || czy_gsm_zajety ||
    25da:	81 11       	cpse	r24, r1
    25dc:	04 c0       	rjmp	.+8      	; 0x25e6 <wykonanie_komend_SIM900+0x62e>
    25de:	80 91 e0 01 	lds	r24, 0x01E0	; 0x8001e0 <wysylanie_smsa_clipa>
    25e2:	88 23       	and	r24, r24
    25e4:	19 f0       	breq	.+6      	; 0x25ec <wykonanie_komend_SIM900+0x634>
      licznik_blad_stanu_karty_SIM = 0;
    25e6:	10 92 06 02 	sts	0x0206, r1	; 0x800206 <licznik_blad_stanu_karty_SIM>
    25ea:	4e cd       	rjmp	.-1380   	; 0x2088 <wykonanie_komend_SIM900+0xd0>
    JESLI_SIM900_WYSYLA_DANE_WYKONAJ_POZNIEJ();
    25ec:	89 e9       	ldi	r24, 0x99	; 153
    25ee:	00 23       	and	r16, r16
    25f0:	09 f4       	brne	.+2      	; 0x25f4 <wykonanie_komend_SIM900+0x63c>
    25f2:	ae ce       	rjmp	.-676    	; 0x2350 <wykonanie_komend_SIM900+0x398>
    25f4:	10 92 15 02 	sts	0x0215, r1	; 0x800215 <licznik_wysylane_polecenie_SIM900+0x1>
    25f8:	10 92 14 02 	sts	0x0214, r1	; 0x800214 <licznik_wysylane_polecenie_SIM900>
    25fc:	89 e9       	ldi	r24, 0x99	; 153
    25fe:	80 93 16 02 	sts	0x0216, r24	; 0x800216 <aktualnie_wysylane_polecenie_SIM900>
    wyslij_polecenie_ROM_SIM900(instrukcja_odczyt_ksiazki);
    2602:	84 ec       	ldi	r24, 0xC4	; 196
    2604:	91 e0       	ldi	r25, 0x01	; 1
    2606:	3b cf       	rjmp	.-394    	; 0x247e <wykonanie_komend_SIM900+0x4c6>
    if (flaga_trwa_rozmowa_wychodzaca ||
    2608:	90 91 b4 03 	lds	r25, 0x03B4	; 0x8003b4 <wykonywanie_rozmowy_telefonicznej>
    260c:	91 11       	cpse	r25, r1
    260e:	14 c0       	rjmp	.+40     	; 0x2638 <wykonanie_komend_SIM900+0x680>
    2610:	20 91 10 02 	lds	r18, 0x0210	; 0x800210 <licznik_bezpieczenstwa_wykonywana_rozmowa>
    2614:	30 91 11 02 	lds	r19, 0x0211	; 0x800211 <licznik_bezpieczenstwa_wykonywana_rozmowa+0x1>
    2618:	23 2b       	or	r18, r19
    261a:	71 f4       	brne	.+28     	; 0x2638 <wykonanie_komend_SIM900+0x680>
    261c:	90 91 43 02 	lds	r25, 0x0243	; 0x800243 <opoznienie_zatrzymaj_odpytywanie_urzadzenia>
    2620:	91 11       	cpse	r25, r1
    2622:	0a c0       	rjmp	.+20     	; 0x2638 <wykonanie_komend_SIM900+0x680>
        opoznienie_zatrzymaj_odpytywanie_urzadzenia ||
    2624:	90 91 4c 05 	lds	r25, 0x054C	; 0x80054c <czekanie_na_odebranie_zachety>
    2628:	91 11       	cpse	r25, r1
    262a:	06 c0       	rjmp	.+12     	; 0x2638 <wykonanie_komend_SIM900+0x680>
        czekanie_na_odebranie_zachety || czy_gsm_zajety ||
    262c:	81 11       	cpse	r24, r1
    262e:	04 c0       	rjmp	.+8      	; 0x2638 <wykonanie_komend_SIM900+0x680>
    2630:	80 91 e0 01 	lds	r24, 0x01E0	; 0x8001e0 <wysylanie_smsa_clipa>
    2634:	88 23       	and	r24, r24
    2636:	19 f0       	breq	.+6      	; 0x263e <wykonanie_komend_SIM900+0x686>
      licznik_blad_zalogowania_u_operatora = 0;
    2638:	10 92 05 02 	sts	0x0205, r1	; 0x800205 <licznik_blad_zalogowania_u_operatora>
    263c:	25 cd       	rjmp	.-1462   	; 0x2088 <wykonanie_komend_SIM900+0xd0>
    JESLI_SIM900_WYSYLA_DANE_WYKONAJ_POZNIEJ();
    263e:	8a e9       	ldi	r24, 0x9A	; 154
    2640:	00 23       	and	r16, r16
    2642:	09 f4       	brne	.+2      	; 0x2646 <wykonanie_komend_SIM900+0x68e>
    2644:	85 ce       	rjmp	.-758    	; 0x2350 <wykonanie_komend_SIM900+0x398>
    2646:	10 92 15 02 	sts	0x0215, r1	; 0x800215 <licznik_wysylane_polecenie_SIM900+0x1>
    264a:	10 92 14 02 	sts	0x0214, r1	; 0x800214 <licznik_wysylane_polecenie_SIM900>
    264e:	8a e9       	ldi	r24, 0x9A	; 154
    2650:	80 93 16 02 	sts	0x0216, r24	; 0x800216 <aktualnie_wysylane_polecenie_SIM900>
    wyslij_polecenie_ROM_SIM900(instrukcja_sprawdz_operatora);
    2654:	8d eb       	ldi	r24, 0xBD	; 189
    2656:	91 e0       	ldi	r25, 0x01	; 1
    2658:	12 cf       	rjmp	.-476    	; 0x247e <wykonanie_komend_SIM900+0x4c6>
    if (flaga_trwa_rozmowa_wychodzaca ||
    265a:	90 91 b4 03 	lds	r25, 0x03B4	; 0x8003b4 <wykonywanie_rozmowy_telefonicznej>
    265e:	91 11       	cpse	r25, r1
    2660:	13 cd       	rjmp	.-1498   	; 0x2088 <wykonanie_komend_SIM900+0xd0>
    2662:	20 91 10 02 	lds	r18, 0x0210	; 0x800210 <licznik_bezpieczenstwa_wykonywana_rozmowa>
    2666:	30 91 11 02 	lds	r19, 0x0211	; 0x800211 <licznik_bezpieczenstwa_wykonywana_rozmowa+0x1>
    266a:	23 2b       	or	r18, r19
    266c:	09 f0       	breq	.+2      	; 0x2670 <wykonanie_komend_SIM900+0x6b8>
    266e:	0c cd       	rjmp	.-1512   	; 0x2088 <wykonanie_komend_SIM900+0xd0>
    2670:	90 91 43 02 	lds	r25, 0x0243	; 0x800243 <opoznienie_zatrzymaj_odpytywanie_urzadzenia>
    2674:	91 11       	cpse	r25, r1
    2676:	08 cd       	rjmp	.-1520   	; 0x2088 <wykonanie_komend_SIM900+0xd0>
        opoznienie_zatrzymaj_odpytywanie_urzadzenia ||
    2678:	90 91 4c 05 	lds	r25, 0x054C	; 0x80054c <czekanie_na_odebranie_zachety>
    267c:	91 11       	cpse	r25, r1
    267e:	04 cd       	rjmp	.-1528   	; 0x2088 <wykonanie_komend_SIM900+0xd0>
        czekanie_na_odebranie_zachety || czy_gsm_zajety ||
    2680:	81 11       	cpse	r24, r1
    2682:	02 cd       	rjmp	.-1532   	; 0x2088 <wykonanie_komend_SIM900+0xd0>
    2684:	80 91 e0 01 	lds	r24, 0x01E0	; 0x8001e0 <wysylanie_smsa_clipa>
    2688:	81 11       	cpse	r24, r1
    268a:	fe cc       	rjmp	.-1540   	; 0x2088 <wykonanie_komend_SIM900+0xd0>
    JESLI_SIM900_WYSYLA_DANE_WYKONAJ_POZNIEJ();
    268c:	8e e9       	ldi	r24, 0x9E	; 158
    268e:	00 23       	and	r16, r16
    2690:	09 f4       	brne	.+2      	; 0x2694 <wykonanie_komend_SIM900+0x6dc>
    2692:	5e ce       	rjmp	.-836    	; 0x2350 <wykonanie_komend_SIM900+0x398>
    2694:	10 92 15 02 	sts	0x0215, r1	; 0x800215 <licznik_wysylane_polecenie_SIM900+0x1>
    2698:	10 92 14 02 	sts	0x0214, r1	; 0x800214 <licznik_wysylane_polecenie_SIM900>
    269c:	8e e9       	ldi	r24, 0x9E	; 158
    269e:	80 93 16 02 	sts	0x0216, r24	; 0x800216 <aktualnie_wysylane_polecenie_SIM900>
    wyslij_polecenie_ROM_SIM900(instrukcja_cclk);
    26a2:	86 eb       	ldi	r24, 0xB6	; 182
    26a4:	91 e0       	ldi	r25, 0x01	; 1
    26a6:	eb ce       	rjmp	.-554    	; 0x247e <wykonanie_komend_SIM900+0x4c6>
    JESLI_SIM900_WYSYLA_DANE_WYKONAJ_POZNIEJ();
    26a8:	85 e9       	ldi	r24, 0x95	; 149
    26aa:	00 23       	and	r16, r16
    26ac:	09 f4       	brne	.+2      	; 0x26b0 <wykonanie_komend_SIM900+0x6f8>
    26ae:	50 ce       	rjmp	.-864    	; 0x2350 <wykonanie_komend_SIM900+0x398>
    26b0:	10 92 15 02 	sts	0x0215, r1	; 0x800215 <licznik_wysylane_polecenie_SIM900+0x1>
    26b4:	10 92 14 02 	sts	0x0214, r1	; 0x800214 <licznik_wysylane_polecenie_SIM900>
    26b8:	10 93 16 02 	sts	0x0216, r17	; 0x800216 <aktualnie_wysylane_polecenie_SIM900>
    wyslij_polecenie_ROM_SIM900(instrukcja_ustawienie_pamieci);
    26bc:	8f ea       	ldi	r24, 0xAF	; 175
    26be:	91 e0       	ldi	r25, 0x01	; 1
    26c0:	de ce       	rjmp	.-580    	; 0x247e <wykonanie_komend_SIM900+0x4c6>
    JESLI_SIM900_WYSYLA_DANE_WYKONAJ_POZNIEJ();
    26c2:	8f e8       	ldi	r24, 0x8F	; 143
    26c4:	00 23       	and	r16, r16
    26c6:	09 f4       	brne	.+2      	; 0x26ca <wykonanie_komend_SIM900+0x712>
    26c8:	43 ce       	rjmp	.-890    	; 0x2350 <wykonanie_komend_SIM900+0x398>
    26ca:	10 92 15 02 	sts	0x0215, r1	; 0x800215 <licznik_wysylane_polecenie_SIM900+0x1>
    26ce:	10 92 14 02 	sts	0x0214, r1	; 0x800214 <licznik_wysylane_polecenie_SIM900>
    26d2:	10 93 16 02 	sts	0x0216, r17	; 0x800216 <aktualnie_wysylane_polecenie_SIM900>
    nastepne_wysylane_polecenie_SIM900 =
    26d6:	81 ea       	ldi	r24, 0xA1	; 161
    26d8:	80 93 13 02 	sts	0x0213, r24	; 0x800213 <nastepne_wysylane_polecenie_SIM900>
    wyslij_polecenie_ROM_SIM900(instrukcja_ustawienie_pamieci);
    26dc:	8a e9       	ldi	r24, 0x9A	; 154
    26de:	91 e0       	ldi	r25, 0x01	; 1
    26e0:	ce ce       	rjmp	.-612    	; 0x247e <wykonanie_komend_SIM900+0x4c6>
    dodaj_komende(KOMENDA_KOLEJKI_WYSLIJ_DO_SIM900_AT);
    26e2:	8c e8       	ldi	r24, 0x8C	; 140
    26e4:	0e 94 54 27 	call	0x4ea8	; 0x4ea8 <dodaj_komende>
    opoznienie_zatrzymaj_odpytywanie_urzadzenia = 20;
    26e8:	84 e1       	ldi	r24, 0x14	; 20
    26ea:	80 93 43 02 	sts	0x0243, r24	; 0x800243 <opoznienie_zatrzymaj_odpytywanie_urzadzenia>
    ustaw_odbior_SIM900();
    26ee:	10 92 4e 05 	sts	0x054E, r1	; 0x80054e <liczba_odebranych_znakow_SIM900+0x1>
    26f2:	10 92 4d 05 	sts	0x054D, r1	; 0x80054d <liczba_odebranych_znakow_SIM900>
    26f6:	10 92 5d 05 	sts	0x055D, r1	; 0x80055d <licznik_opoznienie_oczekiwania_na_bajt_SIM900>
    26fa:	80 b7       	in	r24, 0x30	; 48
    26fc:	82 60       	ori	r24, 0x02	; 2
    26fe:	80 bf       	out	0x30, r24	; 48
    2700:	f8 94       	cli
    2702:	80 91 c1 00 	lds	r24, 0x00C1	; 0x8000c1 <__TEXT_REGION_LENGTH__+0x7e00c1>
    2706:	80 68       	ori	r24, 0x80	; 128
    2708:	80 93 c1 00 	sts	0x00C1, r24	; 0x8000c1 <__TEXT_REGION_LENGTH__+0x7e00c1>
    270c:	78 94       	sei
    270e:	00 00       	nop
    2710:	45 98       	cbi	0x08, 5	; 8
    2712:	ba cc       	rjmp	.-1676   	; 0x2088 <wykonanie_komend_SIM900+0xd0>
    if (max_oczekiwanie_na_odpowiedz_at)
    2714:	80 91 00 02 	lds	r24, 0x0200	; 0x800200 <max_oczekiwanie_na_odpowiedz_at>
    2718:	81 11       	cpse	r24, r1
    271a:	b6 cc       	rjmp	.-1684   	; 0x2088 <wykonanie_komend_SIM900+0xd0>
    if (opoznienie_zatrzymaj_odpytywanie_urzadzenia) {
    271c:	80 91 43 02 	lds	r24, 0x0243	; 0x800243 <opoznienie_zatrzymaj_odpytywanie_urzadzenia>
    2720:	88 23       	and	r24, r24
    2722:	11 f0       	breq	.+4      	; 0x2728 <wykonanie_komend_SIM900+0x770>
      dodaj_komende(wykonywana_komenda);
    2724:	8c e8       	ldi	r24, 0x8C	; 140
    2726:	14 ce       	rjmp	.-984    	; 0x2350 <wykonanie_komend_SIM900+0x398>
    if (CZY_WYSYLANIE_DANYCH_SIM900()) {
    2728:	80 91 c1 00 	lds	r24, 0x00C1	; 0x8000c1 <__TEXT_REGION_LENGTH__+0x7e00c1>
    272c:	86 fd       	sbrc	r24, 6
    272e:	fa cf       	rjmp	.-12     	; 0x2724 <wykonanie_komend_SIM900+0x76c>
    ustaw_odbior_SIM900();
    2730:	10 92 4e 05 	sts	0x054E, r1	; 0x80054e <liczba_odebranych_znakow_SIM900+0x1>
    2734:	10 92 4d 05 	sts	0x054D, r1	; 0x80054d <liczba_odebranych_znakow_SIM900>
    2738:	10 92 5d 05 	sts	0x055D, r1	; 0x80055d <licznik_opoznienie_oczekiwania_na_bajt_SIM900>
    273c:	80 b7       	in	r24, 0x30	; 48
    273e:	82 60       	ori	r24, 0x02	; 2
    2740:	80 bf       	out	0x30, r24	; 48
    2742:	f8 94       	cli
    2744:	80 91 c1 00 	lds	r24, 0x00C1	; 0x8000c1 <__TEXT_REGION_LENGTH__+0x7e00c1>
    2748:	80 68       	ori	r24, 0x80	; 128
    274a:	80 93 c1 00 	sts	0x00C1, r24	; 0x8000c1 <__TEXT_REGION_LENGTH__+0x7e00c1>
    274e:	78 94       	sei
    2750:	00 00       	nop
    2752:	45 98       	cbi	0x08, 5	; 8
    wysylane_polecenie_SIM900 = wykonywana_komenda;
    2754:	10 92 15 02 	sts	0x0215, r1	; 0x800215 <licznik_wysylane_polecenie_SIM900+0x1>
    2758:	10 92 14 02 	sts	0x0214, r1	; 0x800214 <licznik_wysylane_polecenie_SIM900>
    275c:	8c e8       	ldi	r24, 0x8C	; 140
    275e:	80 93 16 02 	sts	0x0216, r24	; 0x800216 <aktualnie_wysylane_polecenie_SIM900>
    max_oczekiwanie_na_odpowiedz_at = 20;
    2762:	84 e1       	ldi	r24, 0x14	; 20
    2764:	80 93 00 02 	sts	0x0200, r24	; 0x800200 <max_oczekiwanie_na_odpowiedz_at>
    wyslij_polecenie_ROM_SIM900(instrukcja_at);
    2768:	81 e9       	ldi	r24, 0x91	; 145
    276a:	91 e0       	ldi	r25, 0x01	; 1
    276c:	88 ce       	rjmp	.-752    	; 0x247e <wykonanie_komend_SIM900+0x4c6>
    podlaczony_modul_gsm_SIM900 = TRUE;
    276e:	8f ef       	ldi	r24, 0xFF	; 255
    2770:	80 93 37 02 	sts	0x0237, r24	; 0x800237 <podlaczony_modul_gsm_SIM900>
    dodaj_komende(KOMENDA_KOLEJKI_SPRAWDZ_PIN);
    2774:	8f e9       	ldi	r24, 0x9F	; 159
    2776:	0e 94 54 27 	call	0x4ea8	; 0x4ea8 <dodaj_komende>
    opoznienie_SIM900_100MS = 40;
    277a:	88 e2       	ldi	r24, 0x28	; 40
    277c:	80 93 18 02 	sts	0x0218, r24	; 0x800218 <opoznienie_SIM900_100MS>
    2780:	83 cc       	rjmp	.-1786   	; 0x2088 <wykonanie_komend_SIM900+0xd0>
    JESLI_SIM900_WYSYLA_DANE_WYKONAJ_POZNIEJ();
    2782:	8e e8       	ldi	r24, 0x8E	; 142
    2784:	00 23       	and	r16, r16
    2786:	09 f4       	brne	.+2      	; 0x278a <wykonanie_komend_SIM900+0x7d2>
    2788:	e3 cd       	rjmp	.-1082   	; 0x2350 <wykonanie_komend_SIM900+0x398>
    278a:	10 92 15 02 	sts	0x0215, r1	; 0x800215 <licznik_wysylane_polecenie_SIM900+0x1>
    278e:	10 92 14 02 	sts	0x0214, r1	; 0x800214 <licznik_wysylane_polecenie_SIM900>
    2792:	8e e8       	ldi	r24, 0x8E	; 142
    2794:	80 93 16 02 	sts	0x0216, r24	; 0x800216 <aktualnie_wysylane_polecenie_SIM900>
    strcpy_P(wysylane_dane_RAM_SIM900, instrukcja_podaj_pin);
    2798:	64 e8       	ldi	r22, 0x84	; 132
    279a:	71 e0       	ldi	r23, 0x01	; 1
    279c:	8c e0       	ldi	r24, 0x0C	; 12
    279e:	96 e0       	ldi	r25, 0x06	; 6
    27a0:	0e 94 e9 2e 	call	0x5dd2	; 0x5dd2 <strcpy_P>
    27a4:	3c cd       	rjmp	.-1416   	; 0x221e <wykonanie_komend_SIM900+0x266>
    if (drugi_raz) {
    27a6:	80 91 24 02 	lds	r24, 0x0224	; 0x800224 <drugi_raz.3450>
    27aa:	88 23       	and	r24, r24
    27ac:	11 f0       	breq	.+4      	; 0x27b2 <wykonanie_komend_SIM900+0x7fa>
      dodaj_komende(KOMENDA_KOLEJKI_USTAW_ODBIERANIE_SMSOW);
    27ae:	80 ea       	ldi	r24, 0xA0	; 160
    27b0:	cf cd       	rjmp	.-1122   	; 0x2350 <wykonanie_komend_SIM900+0x398>
    drugi_raz = TRUE;
    27b2:	8f ef       	ldi	r24, 0xFF	; 255
    27b4:	80 93 24 02 	sts	0x0224, r24	; 0x800224 <drugi_raz.3450>
    JESLI_SIM900_WYSYLA_DANE_WYKONAJ_POZNIEJ();
    27b8:	82 e9       	ldi	r24, 0x92	; 146
    27ba:	00 23       	and	r16, r16
    27bc:	09 f4       	brne	.+2      	; 0x27c0 <wykonanie_komend_SIM900+0x808>
    27be:	c8 cd       	rjmp	.-1136   	; 0x2350 <wykonanie_komend_SIM900+0x398>
    27c0:	10 92 15 02 	sts	0x0215, r1	; 0x800215 <licznik_wysylane_polecenie_SIM900+0x1>
    27c4:	10 92 14 02 	sts	0x0214, r1	; 0x800214 <licznik_wysylane_polecenie_SIM900>
    27c8:	10 93 16 02 	sts	0x0216, r17	; 0x800216 <aktualnie_wysylane_polecenie_SIM900>
    wyslij_polecenie_ROM_SIM900(instrukcja_usun_wszystkie_smsy);
    27cc:	8b e7       	ldi	r24, 0x7B	; 123
    27ce:	91 e0       	ldi	r25, 0x01	; 1
    27d0:	56 ce       	rjmp	.-852    	; 0x247e <wykonanie_komend_SIM900+0x4c6>
    obsluga_komendy_SIM900();
    27d2:	0e 94 f8 0d 	call	0x1bf0	; 0x1bf0 <obsluga_komendy_SIM900>
    if (komenda_SIM900 != KOMENDA_SIM900_WYSLANE_POLECENIE)
    27d6:	80 91 38 02 	lds	r24, 0x0238	; 0x800238 <komenda_SIM900>
    27da:	81 38       	cpi	r24, 0x81	; 129
    27dc:	19 f0       	breq	.+6      	; 0x27e4 <wykonanie_komend_SIM900+0x82c>
      max_oczekiwanie_na_odpowiedz = 20;
    27de:	84 e1       	ldi	r24, 0x14	; 20
    27e0:	80 93 04 01 	sts	0x0104, r24	; 0x800104 <max_oczekiwanie_na_odpowiedz>
    resetuj_komende_SIM900();
    27e4:	10 92 38 02 	sts	0x0238, r1	; 0x800238 <komenda_SIM900>
    27e8:	4f cc       	rjmp	.-1890   	; 0x2088 <wykonanie_komend_SIM900+0xd0>
    JESLI_SIM900_WYSYLA_DANE_WYKONAJ_POZNIEJ();
    27ea:	00 23       	and	r16, r16
    27ec:	09 f4       	brne	.+2      	; 0x27f0 <wykonanie_komend_SIM900+0x838>
    27ee:	67 cc       	rjmp	.-1842   	; 0x20be <wykonanie_komend_SIM900+0x106>
    27f0:	10 92 15 02 	sts	0x0215, r1	; 0x800215 <licznik_wysylane_polecenie_SIM900+0x1>
    27f4:	10 92 14 02 	sts	0x0214, r1	; 0x800214 <licznik_wysylane_polecenie_SIM900>
    27f8:	84 e9       	ldi	r24, 0x94	; 148
    27fa:	80 93 16 02 	sts	0x0216, r24	; 0x800216 <aktualnie_wysylane_polecenie_SIM900>
    strcpy_P(wysylane_dane_RAM_SIM900, instrukcja);
    27fe:	60 e7       	ldi	r22, 0x70	; 112
    2800:	71 e0       	ldi	r23, 0x01	; 1
    2802:	8c e0       	ldi	r24, 0x0C	; 12
    2804:	96 e0       	ldi	r25, 0x06	; 6
    2806:	0e 94 e9 2e 	call	0x5dd2	; 0x5dd2 <strcpy_P>
    nastepne_wysylane_polecenie_SIM900 = KOMENDA_KOLEJKI_ROZPOCZNIJ_PRACE;
    280a:	80 e9       	ldi	r24, 0x90	; 144
    280c:	80 93 13 02 	sts	0x0213, r24	; 0x800213 <nastepne_wysylane_polecenie_SIM900>
    2810:	06 cd       	rjmp	.-1524   	; 0x221e <wykonanie_komend_SIM900+0x266>
    if (podlaczona_karta_SIM_SIM900) {
    2812:	80 91 36 02 	lds	r24, 0x0236	; 0x800236 <podlaczona_karta_SIM_SIM900>
    2816:	88 23       	and	r24, r24
    2818:	09 f4       	brne	.+2      	; 0x281c <wykonanie_komend_SIM900+0x864>
    281a:	36 cc       	rjmp	.-1940   	; 0x2088 <wykonanie_komend_SIM900+0xd0>
      dodaj_komende(KOMENDA_KOLEJKI_RESETUJ_CELL_BROADCAST_SMS);
    281c:	85 e9       	ldi	r24, 0x95	; 149
    281e:	0e 94 54 27 	call	0x4ea8	; 0x4ea8 <dodaj_komende>
      dodaj_komende(KOMENDA_KOLEJKI_MODUL_ZALOGOWANY);
    2822:	81 e9       	ldi	r24, 0x91	; 145
    2824:	95 cd       	rjmp	.-1238   	; 0x2350 <wykonanie_komend_SIM900+0x398>
    JESLI_EEPROM_ZAJETY_WYKONAJ_POZNIEJ();
    2826:	80 91 db 07 	lds	r24, 0x07DB	; 0x8007db <bufor_pomoc_liczba_znakow_do_zapisu>
    282a:	81 11       	cpse	r24, r1
    282c:	0a c0       	rjmp	.+20     	; 0x2842 <wykonanie_komend_SIM900+0x88a>
    282e:	80 91 41 02 	lds	r24, 0x0241	; 0x800241 <liczba_znakow_do_zapisu>
    2832:	81 11       	cpse	r24, r1
    2834:	06 c0       	rjmp	.+12     	; 0x2842 <wykonanie_komend_SIM900+0x88a>
    2836:	80 91 dc 07 	lds	r24, 0x07DC	; 0x8007dc <czy_zajety_bufor_eeprom>
    283a:	81 11       	cpse	r24, r1
    283c:	02 c0       	rjmp	.+4      	; 0x2842 <wykonanie_komend_SIM900+0x88a>
    283e:	f9 9b       	sbis	0x1f, 1	; 31
    2840:	02 c0       	rjmp	.+4      	; 0x2846 <wykonanie_komend_SIM900+0x88e>
    2842:	8e ef       	ldi	r24, 0xFE	; 254
    2844:	85 cd       	rjmp	.-1270   	; 0x2350 <wykonanie_komend_SIM900+0x398>
    JESLI_SIM900_WYSYLA_DANE_WYKONAJ_POZNIEJ();
    2846:	00 23       	and	r16, r16
    2848:	e1 f3       	breq	.-8      	; 0x2842 <wykonanie_komend_SIM900+0x88a>
    284a:	10 92 15 02 	sts	0x0215, r1	; 0x800215 <licznik_wysylane_polecenie_SIM900+0x1>
    284e:	10 92 14 02 	sts	0x0214, r1	; 0x800214 <licznik_wysylane_polecenie_SIM900>
    2852:	8e ef       	ldi	r24, 0xFE	; 254
    2854:	80 93 16 02 	sts	0x0216, r24	; 0x800216 <aktualnie_wysylane_polecenie_SIM900>
    strcpy(wysylane_dane_RAM_SIM900, bufor_ustaw_czas);
    2858:	69 eb       	ldi	r22, 0xB9	; 185
    285a:	77 e0       	ldi	r23, 0x07	; 7
    285c:	8c e0       	ldi	r24, 0x0C	; 12
    285e:	96 e0       	ldi	r25, 0x06	; 6
    2860:	0e 94 63 2f 	call	0x5ec6	; 0x5ec6 <strcpy>
    2864:	dc cc       	rjmp	.-1608   	; 0x221e <wykonanie_komend_SIM900+0x266>

00002866 <steruj_SIM900_100MS>:

void steruj_SIM900_100MS(void) {
  if (opoznienie_SIM900_100MS && --opoznienie_SIM900_100MS == 0)
    2866:	80 91 18 02 	lds	r24, 0x0218	; 0x800218 <opoznienie_SIM900_100MS>
    286a:	88 23       	and	r24, r24
    286c:	39 f0       	breq	.+14     	; 0x287c <steruj_SIM900_100MS+0x16>
    286e:	81 50       	subi	r24, 0x01	; 1
    2870:	80 93 18 02 	sts	0x0218, r24	; 0x800218 <opoznienie_SIM900_100MS>
    2874:	81 11       	cpse	r24, r1
    2876:	02 c0       	rjmp	.+4      	; 0x287c <steruj_SIM900_100MS+0x16>
    oproznij_bufor_SIM900_po_bledzie = FALSE;
    2878:	10 92 17 02 	sts	0x0217, r1	; 0x800217 <oproznij_bufor_SIM900_po_bledzie>

  if (opoznienie_wysylania_clipow_100MS)
    287c:	80 91 e3 01 	lds	r24, 0x01E3	; 0x8001e3 <opoznienie_wysylania_clipow_100MS>
    2880:	90 91 e4 01 	lds	r25, 0x01E4	; 0x8001e4 <opoznienie_wysylania_clipow_100MS+0x1>
    2884:	00 97       	sbiw	r24, 0x00	; 0
    2886:	29 f0       	breq	.+10     	; 0x2892 <steruj_SIM900_100MS+0x2c>
    --opoznienie_wysylania_clipow_100MS;
    2888:	01 97       	sbiw	r24, 0x01	; 1
    288a:	90 93 e4 01 	sts	0x01E4, r25	; 0x8001e4 <opoznienie_wysylania_clipow_100MS+0x1>
    288e:	80 93 e3 01 	sts	0x01E3, r24	; 0x8001e3 <opoznienie_wysylania_clipow_100MS>

  // Timeout rozmowy - automatyczne rozlaczenie po 30 sekundach
  if (licznik_timeout_rozmowy_100ms) {
    2892:	80 91 f2 01 	lds	r24, 0x01F2	; 0x8001f2 <licznik_timeout_rozmowy_100ms>
    2896:	90 91 f3 01 	lds	r25, 0x01F3	; 0x8001f3 <licznik_timeout_rozmowy_100ms+0x1>
    289a:	00 97       	sbiw	r24, 0x00	; 0
    289c:	71 f0       	breq	.+28     	; 0x28ba <steruj_SIM900_100MS+0x54>
    if (--licznik_timeout_rozmowy_100ms == 0 &&
    289e:	01 97       	sbiw	r24, 0x01	; 1
    28a0:	90 93 f3 01 	sts	0x01F3, r25	; 0x8001f3 <licznik_timeout_rozmowy_100ms+0x1>
    28a4:	80 93 f2 01 	sts	0x01F2, r24	; 0x8001f2 <licznik_timeout_rozmowy_100ms>
    28a8:	89 2b       	or	r24, r25
    28aa:	39 f4       	brne	.+14     	; 0x28ba <steruj_SIM900_100MS+0x54>
    28ac:	80 91 12 02 	lds	r24, 0x0212	; 0x800212 <trwa_rozmowa_przychodzaca_od_uzytkownika>
    28b0:	88 23       	and	r24, r24
    28b2:	19 f0       	breq	.+6      	; 0x28ba <steruj_SIM900_100MS+0x54>
        trwa_rozmowa_przychodzaca_od_uzytkownika) {
      dodaj_komende(KOMENDA_KOLEJKI_ODRZUC_ROZMOWE);
    28b4:	87 e9       	ldi	r24, 0x97	; 151
    28b6:	0e 94 54 27 	call	0x4ea8	; 0x4ea8 <dodaj_komende>
      POMOC_DODAJ2('#', 'X'); // Timeout marker
    }
  }

  if (max_oczekiwanie_na_odpowiedz_at) {
    28ba:	80 91 00 02 	lds	r24, 0x0200	; 0x800200 <max_oczekiwanie_na_odpowiedz_at>
    28be:	88 23       	and	r24, r24
    28c0:	c1 f0       	breq	.+48     	; 0x28f2 <steruj_SIM900_100MS+0x8c>
    if (--max_oczekiwanie_na_odpowiedz_at == 0) {
    28c2:	81 50       	subi	r24, 0x01	; 1
    28c4:	80 93 00 02 	sts	0x0200, r24	; 0x800200 <max_oczekiwanie_na_odpowiedz_at>
    28c8:	81 11       	cpse	r24, r1
    28ca:	13 c0       	rjmp	.+38     	; 0x28f2 <steruj_SIM900_100MS+0x8c>
      wysylane_polecenie_SIM900 = KOMENDA_KOLEJKI_BRAK_KOMENDY;
    28cc:	10 92 15 02 	sts	0x0215, r1	; 0x800215 <licznik_wysylane_polecenie_SIM900+0x1>
    28d0:	10 92 14 02 	sts	0x0214, r1	; 0x800214 <licznik_wysylane_polecenie_SIM900>
    28d4:	10 92 16 02 	sts	0x0216, r1	; 0x800216 <aktualnie_wysylane_polecenie_SIM900>
      dodaj_komende(KOMENDA_KOLEJKI_WYSLIJ_DO_SIM900_AT);
    28d8:	8c e8       	ldi	r24, 0x8C	; 140
    28da:	0e 94 54 27 	call	0x4ea8	; 0x4ea8 <dodaj_komende>
      sprawdzaj_wejscie_CTS_SIM900 = FALSE;
    28de:	10 92 39 02 	sts	0x0239, r1	; 0x800239 <sprawdzaj_wejscie_CTS_SIM900>
      zakoncz_wysylanie_SIM900();
    28e2:	f8 94       	cli
    28e4:	80 91 c1 00 	lds	r24, 0x00C1	; 0x8000c1 <__TEXT_REGION_LENGTH__+0x7e00c1>
    28e8:	8f 7b       	andi	r24, 0xBF	; 191
    28ea:	80 93 c1 00 	sts	0x00C1, r24	; 0x8000c1 <__TEXT_REGION_LENGTH__+0x7e00c1>
    28ee:	78 94       	sei
    28f0:	00 00       	nop
    }
  }

  if (procedura_inicjalizacyjna_SIM900_100MS())
    28f2:	0e 94 ec 1f 	call	0x3fd8	; 0x3fd8 <procedura_inicjalizacyjna_SIM900_100MS>
    28f6:	88 23       	and	r24, r24
    28f8:	19 f0       	breq	.+6      	; 0x2900 <steruj_SIM900_100MS+0x9a>
    dodaj_komende(KOMENDA_KOLEJKI_PODLACZONY_MODUL_GSM);
    28fa:	8b e8       	ldi	r24, 0x8B	; 139
    28fc:	0e 94 54 27 	call	0x4ea8	; 0x4ea8 <dodaj_komende>

  if (maksymalny_czas_dzwonienia) {
    2900:	80 91 0b 02 	lds	r24, 0x020B	; 0x80020b <maksymalny_czas_dzwonienia>
    2904:	88 23       	and	r24, r24
    2906:	41 f0       	breq	.+16     	; 0x2918 <steruj_SIM900_100MS+0xb2>
    if (--maksymalny_czas_dzwonienia == 0) {
    2908:	81 50       	subi	r24, 0x01	; 1
    290a:	80 93 0b 02 	sts	0x020B, r24	; 0x80020b <maksymalny_czas_dzwonienia>
    290e:	81 11       	cpse	r24, r1
    2910:	03 c0       	rjmp	.+6      	; 0x2918 <steruj_SIM900_100MS+0xb2>
      POMOC_DODAJ2('#', 'i');
      dodaj_komende(KOMENDA_KOLEJKI_ODRZUC_ROZMOWE);
    2912:	87 e9       	ldi	r24, 0x97	; 151
    2914:	0e 94 54 27 	call	0x4ea8	; 0x4ea8 <dodaj_komende>
    }
  }

  if (licznik_bezpieczenstwa_wykonywana_rozmowa) {
    2918:	80 91 10 02 	lds	r24, 0x0210	; 0x800210 <licznik_bezpieczenstwa_wykonywana_rozmowa>
    291c:	90 91 11 02 	lds	r25, 0x0211	; 0x800211 <licznik_bezpieczenstwa_wykonywana_rozmowa+0x1>
    2920:	00 97       	sbiw	r24, 0x00	; 0
    2922:	71 f0       	breq	.+28     	; 0x2940 <steruj_SIM900_100MS+0xda>
    if (--licznik_bezpieczenstwa_wykonywana_rozmowa == 0) {
    2924:	01 97       	sbiw	r24, 0x01	; 1
    2926:	90 93 11 02 	sts	0x0211, r25	; 0x800211 <licznik_bezpieczenstwa_wykonywana_rozmowa+0x1>
    292a:	80 93 10 02 	sts	0x0210, r24	; 0x800210 <licznik_bezpieczenstwa_wykonywana_rozmowa>
    292e:	89 2b       	or	r24, r25
    2930:	39 f4       	brne	.+14     	; 0x2940 <steruj_SIM900_100MS+0xda>
      POMOC_DODAJ2('#', 'j');
      zakonczono_rozmowe_telefoniczna(
    2932:	82 e0       	ldi	r24, 0x02	; 2
    2934:	0e 94 c9 09 	call	0x1392	; 0x1392 <zakonczono_rozmowe_telefoniczna>
          powod_zakonczenia_rozmowy_przekroczony_czas);
      trwa_rozmowa_przychodzaca_od_uzytkownika = FALSE;
    2938:	10 92 12 02 	sts	0x0212, r1	; 0x800212 <trwa_rozmowa_przychodzaca_od_uzytkownika>
      wykonywanie_rozmowy_telefonicznej = FALSE;
    293c:	10 92 b4 03 	sts	0x03B4, r1	; 0x8003b4 <wykonywanie_rozmowy_telefonicznej>

#ifndef WYLACZ_AUTOMATYCZNE_KONTROLOWANIE_SIMCOM

  { // poziom sieci i zalogowanie u operatora
    static uchar licznik_cyklu_8_sek = 0;
    if (++licznik_cyklu_8_sek == 48)
    2940:	80 91 23 02 	lds	r24, 0x0223	; 0x800223 <licznik_cyklu_8_sek.3478>
    2944:	8f 5f       	subi	r24, 0xFF	; 255
    2946:	80 93 23 02 	sts	0x0223, r24	; 0x800223 <licznik_cyklu_8_sek.3478>
    294a:	80 33       	cpi	r24, 0x30	; 48
    294c:	09 f0       	breq	.+2      	; 0x2950 <steruj_SIM900_100MS+0xea>
    294e:	4e c0       	rjmp	.+156    	; 0x29ec <steruj_SIM900_100MS+0x186>
      filtruj_i_dodaj_komende(KOMENDA_KOLEJKI_SPRAWDZ_POZIOM_SIECI);
    2950:	8b e9       	ldi	r24, 0x9B	; 155
    else if (licznik_cyklu_8_sek == 60) {
      filtruj_i_dodaj_komende(KOMENDA_KOLEJKI_SPRAWDZ_STAN_KARTY_SIM);
    } else if (licznik_cyklu_8_sek >= 80) {
      licznik_cyklu_8_sek = 0;
      if (modul_zalogowany_w_sieci)
        filtruj_i_dodaj_komende(
    2952:	0e 94 66 27 	call	0x4ecc	; 0x4ecc <filtruj_i_dodaj_komende>
            KOMENDA_KOLEJKI_WYSLIJ_DO_SIM900_ODCZYTAJ_GODZINE);
    }
  }

  if (opoznienie_zatrzymaj_odpytywanie_urzadzenia)
    2956:	80 91 43 02 	lds	r24, 0x0243	; 0x800243 <opoznienie_zatrzymaj_odpytywanie_urzadzenia>
    295a:	88 23       	and	r24, r24
    295c:	19 f0       	breq	.+6      	; 0x2964 <steruj_SIM900_100MS+0xfe>
    --opoznienie_zatrzymaj_odpytywanie_urzadzenia;
    295e:	81 50       	subi	r24, 0x01	; 1
    2960:	80 93 43 02 	sts	0x0243, r24	; 0x800243 <opoznienie_zatrzymaj_odpytywanie_urzadzenia>

  if (modul_zalogowany_w_sieci &&
    2964:	80 91 e7 01 	lds	r24, 0x01E7	; 0x8001e7 <modul_zalogowany_w_sieci>
    2968:	88 23       	and	r24, r24
    296a:	09 f4       	brne	.+2      	; 0x296e <steruj_SIM900_100MS+0x108>
    296c:	5e c0       	rjmp	.+188    	; 0x2a2a <steruj_SIM900_100MS+0x1c4>
      (poziom_sieci_gsm == POZIOM_SIECI_BLAD || poziom_sieci_gsm == 0)) {
    296e:	80 91 06 01 	lds	r24, 0x0106	; 0x800106 <poziom_sieci_gsm>
  if (modul_zalogowany_w_sieci &&
    2972:	83 36       	cpi	r24, 0x63	; 99
    2974:	11 f0       	breq	.+4      	; 0x297a <steruj_SIM900_100MS+0x114>
      (poziom_sieci_gsm == POZIOM_SIECI_BLAD || poziom_sieci_gsm == 0)) {
    2976:	81 11       	cpse	r24, r1
    2978:	58 c0       	rjmp	.+176    	; 0x2a2a <steruj_SIM900_100MS+0x1c4>
    if (licznik_awaria_brak_zasiegu < MAX_LICZNIK_AWARIA_BRAK_ZASIEGU) {
    297a:	80 91 07 02 	lds	r24, 0x0207	; 0x800207 <licznik_awaria_brak_zasiegu>
    297e:	90 91 08 02 	lds	r25, 0x0208	; 0x800208 <licznik_awaria_brak_zasiegu+0x1>
    2982:	88 35       	cpi	r24, 0x58	; 88
    2984:	22 e0       	ldi	r18, 0x02	; 2
    2986:	92 07       	cpc	r25, r18
    2988:	50 f4       	brcc	.+20     	; 0x299e <steruj_SIM900_100MS+0x138>
      if (++licznik_awaria_brak_zasiegu == MAX_LICZNIK_AWARIA_BRAK_ZASIEGU) {
    298a:	01 96       	adiw	r24, 0x01	; 1
    298c:	88 35       	cpi	r24, 0x58	; 88
    298e:	22 e0       	ldi	r18, 0x02	; 2
    2990:	92 07       	cpc	r25, r18
    2992:	09 f4       	brne	.+2      	; 0x2996 <steruj_SIM900_100MS+0x130>
    2994:	43 c0       	rjmp	.+134    	; 0x2a1c <steruj_SIM900_100MS+0x1b6>
    2996:	90 93 08 02 	sts	0x0208, r25	; 0x800208 <licznik_awaria_brak_zasiegu+0x1>
    299a:	80 93 07 02 	sts	0x0207, r24	; 0x800207 <licznik_awaria_brak_zasiegu>
      }
    }
  } else
    licznik_awaria_brak_zasiegu = 0;

  if (CZY_BLAD_KARTY_SIM() || CZY_BLAD_ZALOGOWANIA_U_OPERATORA()) {
    299e:	80 91 06 02 	lds	r24, 0x0206	; 0x800206 <licznik_blad_stanu_karty_SIM>
    29a2:	86 30       	cpi	r24, 0x06	; 6
    29a4:	20 f4       	brcc	.+8      	; 0x29ae <steruj_SIM900_100MS+0x148>
    29a6:	80 91 05 02 	lds	r24, 0x0205	; 0x800205 <licznik_blad_zalogowania_u_operatora>
    29aa:	84 31       	cpi	r24, 0x14	; 20
    29ac:	10 f0       	brcs	.+4      	; 0x29b2 <steruj_SIM900_100MS+0x14c>
    POMOC_DODAJ2('*', 'k');
    reset_modulu_SIM900();
    29ae:	0e 94 08 0a 	call	0x1410	; 0x1410 <reset_modulu_SIM900>
  }
#endif

  if (licznik_reset_modulu_SIM900) {
    29b2:	80 91 e6 01 	lds	r24, 0x01E6	; 0x8001e6 <licznik_reset_modulu_SIM900>
    29b6:	88 23       	and	r24, r24
    29b8:	39 f0       	breq	.+14     	; 0x29c8 <steruj_SIM900_100MS+0x162>
    if (--licznik_reset_modulu_SIM900 == 0) {
    29ba:	81 50       	subi	r24, 0x01	; 1
    29bc:	80 93 e6 01 	sts	0x01E6, r24	; 0x8001e6 <licznik_reset_modulu_SIM900>
    29c0:	81 11       	cpse	r24, r1
    29c2:	02 c0       	rjmp	.+4      	; 0x29c8 <steruj_SIM900_100MS+0x162>
      POMOC_DODAJ2('*', 'l');
      reset_modulu_SIM900();
    29c4:	0e 94 08 0a 	call	0x1410	; 0x1410 <reset_modulu_SIM900>
    }
  }

  if (!modul_zalogowany_w_sieci) {
    29c8:	80 91 e7 01 	lds	r24, 0x01E7	; 0x8001e7 <modul_zalogowany_w_sieci>
    29cc:	81 11       	cpse	r24, r1
    29ce:	32 c0       	rjmp	.+100    	; 0x2a34 <steruj_SIM900_100MS+0x1ce>
    if (++licznik_ogolny_blad_zalogowania > MAX_LICZNIK_OGOLNY_BLAD_ZALOGOWANIA)
    29d0:	80 91 03 02 	lds	r24, 0x0203	; 0x800203 <licznik_ogolny_blad_zalogowania>
    29d4:	90 91 04 02 	lds	r25, 0x0204	; 0x800204 <licznik_ogolny_blad_zalogowania+0x1>
    29d8:	01 96       	adiw	r24, 0x01	; 1
    29da:	90 93 04 02 	sts	0x0204, r25	; 0x800204 <licznik_ogolny_blad_zalogowania+0x1>
    29de:	80 93 03 02 	sts	0x0203, r24	; 0x800203 <licznik_ogolny_blad_zalogowania>
    29e2:	81 3b       	cpi	r24, 0xB1	; 177
    29e4:	94 40       	sbci	r25, 0x04	; 4
    29e6:	50 f1       	brcs	.+84     	; 0x2a3c <steruj_SIM900_100MS+0x1d6>
      reset_modulu_SIM900();
    29e8:	0c 94 08 0a 	jmp	0x1410	; 0x1410 <reset_modulu_SIM900>
    else if (licznik_cyklu_8_sek == 52)
    29ec:	84 33       	cpi	r24, 0x34	; 52
    29ee:	11 f4       	brne	.+4      	; 0x29f4 <steruj_SIM900_100MS+0x18e>
      filtruj_i_dodaj_komende(KOMENDA_KOLEJKI_SPRAWDZ_ZAREJESTROWANIE);
    29f0:	8d e9       	ldi	r24, 0x9D	; 157
    29f2:	af cf       	rjmp	.-162    	; 0x2952 <steruj_SIM900_100MS+0xec>
    else if (licznik_cyklu_8_sek == 56)
    29f4:	88 33       	cpi	r24, 0x38	; 56
    29f6:	11 f4       	brne	.+4      	; 0x29fc <steruj_SIM900_100MS+0x196>
      filtruj_i_dodaj_komende(KOMENDA_KOLEJKI_SPRAWDZ_ZALOGOWANIE_U_OPERATORA);
    29f8:	8a e9       	ldi	r24, 0x9A	; 154
    29fa:	ab cf       	rjmp	.-170    	; 0x2952 <steruj_SIM900_100MS+0xec>
    else if (licznik_cyklu_8_sek == 60) {
    29fc:	8c 33       	cpi	r24, 0x3C	; 60
    29fe:	11 f4       	brne	.+4      	; 0x2a04 <steruj_SIM900_100MS+0x19e>
      filtruj_i_dodaj_komende(KOMENDA_KOLEJKI_SPRAWDZ_STAN_KARTY_SIM);
    2a00:	89 e9       	ldi	r24, 0x99	; 153
    2a02:	a7 cf       	rjmp	.-178    	; 0x2952 <steruj_SIM900_100MS+0xec>
    } else if (licznik_cyklu_8_sek >= 80) {
    2a04:	80 35       	cpi	r24, 0x50	; 80
    2a06:	08 f4       	brcc	.+2      	; 0x2a0a <steruj_SIM900_100MS+0x1a4>
    2a08:	a6 cf       	rjmp	.-180    	; 0x2956 <steruj_SIM900_100MS+0xf0>
    2a0a:	80 91 e7 01 	lds	r24, 0x01E7	; 0x8001e7 <modul_zalogowany_w_sieci>
      licznik_cyklu_8_sek = 0;
    2a0e:	10 92 23 02 	sts	0x0223, r1	; 0x800223 <licznik_cyklu_8_sek.3478>
      if (modul_zalogowany_w_sieci)
    2a12:	88 23       	and	r24, r24
    2a14:	09 f4       	brne	.+2      	; 0x2a18 <steruj_SIM900_100MS+0x1b2>
    2a16:	9f cf       	rjmp	.-194    	; 0x2956 <steruj_SIM900_100MS+0xf0>
        filtruj_i_dodaj_komende(
    2a18:	8e e9       	ldi	r24, 0x9E	; 158
    2a1a:	9b cf       	rjmp	.-202    	; 0x2952 <steruj_SIM900_100MS+0xec>
        licznik_awaria_brak_zasiegu = 0;
    2a1c:	10 92 08 02 	sts	0x0208, r1	; 0x800208 <licznik_awaria_brak_zasiegu+0x1>
    2a20:	10 92 07 02 	sts	0x0207, r1	; 0x800207 <licznik_awaria_brak_zasiegu>
        reset_modulu_SIM900();
    2a24:	0e 94 08 0a 	call	0x1410	; 0x1410 <reset_modulu_SIM900>
    2a28:	ba cf       	rjmp	.-140    	; 0x299e <steruj_SIM900_100MS+0x138>
    licznik_awaria_brak_zasiegu = 0;
    2a2a:	10 92 08 02 	sts	0x0208, r1	; 0x800208 <licznik_awaria_brak_zasiegu+0x1>
    2a2e:	10 92 07 02 	sts	0x0207, r1	; 0x800207 <licznik_awaria_brak_zasiegu>
    2a32:	b5 cf       	rjmp	.-150    	; 0x299e <steruj_SIM900_100MS+0x138>
  } else
    licznik_ogolny_blad_zalogowania = 0;
    2a34:	10 92 04 02 	sts	0x0204, r1	; 0x800204 <licznik_ogolny_blad_zalogowania+0x1>
    2a38:	10 92 03 02 	sts	0x0203, r1	; 0x800203 <licznik_ogolny_blad_zalogowania>
}
    2a3c:	08 95       	ret

00002a3e <steruj_SIM900_10MS>:

void steruj_SIM900_10MS(void) {
  if (czy_jest_komenda_SIM900())
    2a3e:	80 91 38 02 	lds	r24, 0x0238	; 0x800238 <komenda_SIM900>
    2a42:	88 23       	and	r24, r24
    2a44:	09 f4       	brne	.+2      	; 0x2a48 <steruj_SIM900_10MS+0xa>
    2a46:	57 c0       	rjmp	.+174    	; 0x2af6 <steruj_SIM900_10MS+0xb8>
    dodaj_komende(KOMENDA_KOLEJKI_KOMENDA_SIM900);
    2a48:	8a e8       	ldi	r24, 0x8A	; 138
    2a4a:	0e 94 54 27 	call	0x4ea8	; 0x4ea8 <dodaj_komende>

  if (flaga_odebrany_znak_zachety) {
    2a4e:	80 91 b3 03 	lds	r24, 0x03B3	; 0x8003b3 <flaga_odebrany_znak_zachety>
    2a52:	88 23       	and	r24, r24
    2a54:	29 f0       	breq	.+10     	; 0x2a60 <steruj_SIM900_10MS+0x22>
    dodaj_komende(KOMENDA_KOLEJKI_WYSLIJ_PDU);
    2a56:	85 ed       	ldi	r24, 0xD5	; 213
    2a58:	0e 94 54 27 	call	0x4ea8	; 0x4ea8 <dodaj_komende>
    // czekanie_na_odebranie_zachety = FALSE;	// byo
    flaga_odebrany_znak_zachety = FALSE;
    2a5c:	10 92 b3 03 	sts	0x03B3, r1	; 0x8003b3 <flaga_odebrany_znak_zachety>
    POMOC_DODAJ2('#', 'm');
  }

  { // kontrola wysyania sms-w i clipw
    static uint licznik_bezpieczenstwa = 0;
    if (modul_zalogowany_w_sieci && flaga_wysylanie_smsa) {
    2a60:	80 91 e7 01 	lds	r24, 0x01E7	; 0x8001e7 <modul_zalogowany_w_sieci>
    2a64:	88 23       	and	r24, r24
    2a66:	09 f4       	brne	.+2      	; 0x2a6a <steruj_SIM900_10MS+0x2c>
    2a68:	55 c0       	rjmp	.+170    	; 0x2b14 <steruj_SIM900_10MS+0xd6>
    2a6a:	80 91 0d 02 	lds	r24, 0x020D	; 0x80020d <flaga_wysylanie_smsa>
    2a6e:	88 23       	and	r24, r24
    2a70:	09 f4       	brne	.+2      	; 0x2a74 <steruj_SIM900_10MS+0x36>
    2a72:	50 c0       	rjmp	.+160    	; 0x2b14 <steruj_SIM900_10MS+0xd6>
      if (++licznik_bezpieczenstwa >= 5000) // 50 sek
    2a74:	80 91 21 02 	lds	r24, 0x0221	; 0x800221 <licznik_bezpieczenstwa.3482>
    2a78:	90 91 22 02 	lds	r25, 0x0222	; 0x800222 <licznik_bezpieczenstwa.3482+0x1>
    2a7c:	01 96       	adiw	r24, 0x01	; 1
    2a7e:	88 38       	cpi	r24, 0x88	; 136
    2a80:	23 e1       	ldi	r18, 0x13	; 19
    2a82:	92 07       	cpc	r25, r18
    2a84:	08 f0       	brcs	.+2      	; 0x2a88 <steruj_SIM900_10MS+0x4a>
    2a86:	3c c0       	rjmp	.+120    	; 0x2b00 <steruj_SIM900_10MS+0xc2>
    2a88:	90 93 22 02 	sts	0x0222, r25	; 0x800222 <licznik_bezpieczenstwa.3482+0x1>
    2a8c:	80 93 21 02 	sts	0x0221, r24	; 0x800221 <licznik_bezpieczenstwa.3482>
  { // kontrola programu: zbyt dugi okres wykonywania polecenia do SIM900 lub
    // jego brak
    static komenda_typ poprzednia_komenda;
    static uint licznik_poprzednia_komenda;
    static uint licznik_odebranych_znakow;
    if (aktualnie_wysylane_polecenie_SIM900 != KOMENDA_KOLEJKI_BRAK_KOMENDY &&
    2a90:	80 91 16 02 	lds	r24, 0x0216	; 0x800216 <aktualnie_wysylane_polecenie_SIM900>
    2a94:	90 91 12 02 	lds	r25, 0x0212	; 0x800212 <trwa_rozmowa_przychodzaca_od_uzytkownika>
    2a98:	88 23       	and	r24, r24
    2a9a:	09 f4       	brne	.+2      	; 0x2a9e <steruj_SIM900_10MS+0x60>
    2a9c:	a8 c0       	rjmp	.+336    	; 0x2bee <steruj_SIM900_10MS+0x1b0>
    2a9e:	20 91 20 02 	lds	r18, 0x0220	; 0x800220 <poprzednia_komenda.3483>
    2aa2:	82 13       	cpse	r24, r18
    2aa4:	6a c0       	rjmp	.+212    	; 0x2b7a <steruj_SIM900_10MS+0x13c>
        aktualnie_wysylane_polecenie_SIM900 == poprzednia_komenda &&
    2aa6:	91 11       	cpse	r25, r1
    2aa8:	6a c0       	rjmp	.+212    	; 0x2b7e <steruj_SIM900_10MS+0x140>
        !trwa_rozmowa_przychodzaca_od_uzytkownika) {
      uint max_licznik_poprzednia_komenda = 5 * 100; // 5 sek;
      if (aktualnie_wysylane_polecenie_SIM900 ==
    2aaa:	8c 38       	cpi	r24, 0x8C	; 140
    2aac:	31 f0       	breq	.+12     	; 0x2aba <steruj_SIM900_10MS+0x7c>
              KOMENDA_KOLEJKI_WYSLIJ_DO_SIM900_AT ||
    2aae:	9b e2       	ldi	r25, 0x2B	; 43
    2ab0:	98 0f       	add	r25, r24
      uint max_licznik_poprzednia_komenda = 5 * 100; // 5 sek;
    2ab2:	44 ef       	ldi	r20, 0xF4	; 244
    2ab4:	51 e0       	ldi	r21, 0x01	; 1
              KOMENDA_KOLEJKI_WYSLIJ_DO_SIM900_AT ||
    2ab6:	92 30       	cpi	r25, 0x02	; 2
    2ab8:	10 f4       	brcc	.+4      	; 0x2abe <steruj_SIM900_10MS+0x80>
          aktualnie_wysylane_polecenie_SIM900 == KOMENDA_KOLEJKI_WYSLIJ_PDU ||
          aktualnie_wysylane_polecenie_SIM900 ==
              KOMENDA_KOLEJKI_WYKONAJ_ROZMOWE)
        max_licznik_poprzednia_komenda = 2 * 60 * 100; // 2 minuty
    2aba:	40 ee       	ldi	r20, 0xE0	; 224
    2abc:	5e e2       	ldi	r21, 0x2E	; 46

      if (aktualnie_wysylane_polecenie_SIM900 ==
              KOMENDA_KOLEJKI_WYSLIJ_SMSA_TEXT // zmienione (1)
          || aktualnie_wysylane_polecenie_SIM900 ==
    2abe:	9d e2       	ldi	r25, 0x2D	; 45
    2ac0:	98 0f       	add	r25, r24
      if (aktualnie_wysylane_polecenie_SIM900 ==
    2ac2:	92 30       	cpi	r25, 0x02	; 2
    2ac4:	10 f4       	brcc	.+4      	; 0x2aca <steruj_SIM900_10MS+0x8c>
                 KOMENDA_KOLEJKI_WYSLIJ_SMSA_PDU)
        max_licznik_poprzednia_komenda = 15 * 100;
    2ac6:	4c ed       	ldi	r20, 0xDC	; 220
    2ac8:	55 e0       	ldi	r21, 0x05	; 5

      if (++licznik_poprzednia_komenda >= max_licznik_poprzednia_komenda) {
    2aca:	20 91 1e 02 	lds	r18, 0x021E	; 0x80021e <licznik_poprzednia_komenda.3484>
    2ace:	30 91 1f 02 	lds	r19, 0x021F	; 0x80021f <licznik_poprzednia_komenda.3484+0x1>
    2ad2:	2f 5f       	subi	r18, 0xFF	; 255
    2ad4:	3f 4f       	sbci	r19, 0xFF	; 255
    2ad6:	24 17       	cp	r18, r20
    2ad8:	35 07       	cpc	r19, r21
    2ada:	08 f5       	brcc	.+66     	; 0x2b1e <steruj_SIM900_10MS+0xe0>
    2adc:	30 93 1f 02 	sts	0x021F, r19	; 0x80021f <licznik_poprzednia_komenda.3484+0x1>
    2ae0:	20 93 1e 02 	sts	0x021E, r18	; 0x80021e <licznik_poprzednia_komenda.3484>
          wysylane_dane_RAM_SIM900[0] = '\0';
          wyslij_polecenie_RAM_SIM900();
        } else
          reset_modulu_SIM900();
      }
      licznik_odebranych_znakow = 0;
    2ae4:	10 92 1d 02 	sts	0x021D, r1	; 0x80021d <licznik_odebranych_znakow.3485+0x1>
    2ae8:	10 92 1c 02 	sts	0x021C, r1	; 0x80021c <licznik_odebranych_znakow.3485>
      licznik_poprzednia_komenda = 0;
      if (!trwa_rozmowa_przychodzaca_od_uzytkownika)
        licznik_odebranych_znakow = 0;
    }

    poprzednia_komenda = aktualnie_wysylane_polecenie_SIM900;
    2aec:	80 91 16 02 	lds	r24, 0x0216	; 0x800216 <aktualnie_wysylane_polecenie_SIM900>
    2af0:	80 93 20 02 	sts	0x0220, r24	; 0x800220 <poprzednia_komenda.3483>
  }
}
    2af4:	08 95       	ret
  if (czy_jest_komenda_SIM900())
    2af6:	0e 94 41 22 	call	0x4482	; 0x4482 <czy_jest_nowa_komenda_SIM900>
    2afa:	81 11       	cpse	r24, r1
    2afc:	a5 cf       	rjmp	.-182    	; 0x2a48 <steruj_SIM900_10MS+0xa>
    2afe:	a7 cf       	rjmp	.-178    	; 0x2a4e <steruj_SIM900_10MS+0x10>
        licznik_bezpieczenstwa = 0;
    2b00:	10 92 22 02 	sts	0x0222, r1	; 0x800222 <licznik_bezpieczenstwa.3482+0x1>
    2b04:	10 92 21 02 	sts	0x0221, r1	; 0x800221 <licznik_bezpieczenstwa.3482>
        komenda_SIM900 = ERROR_KOMENDA_SIM900;
    2b08:	84 e0       	ldi	r24, 0x04	; 4
    2b0a:	80 93 38 02 	sts	0x0238, r24	; 0x800238 <komenda_SIM900>
        obsluga_wysylania_sms();
    2b0e:	0e 94 35 0a 	call	0x146a	; 0x146a <obsluga_wysylania_sms>
    2b12:	be cf       	rjmp	.-132    	; 0x2a90 <steruj_SIM900_10MS+0x52>
      licznik_bezpieczenstwa = 0;
    2b14:	10 92 22 02 	sts	0x0222, r1	; 0x800222 <licznik_bezpieczenstwa.3482+0x1>
    2b18:	10 92 21 02 	sts	0x0221, r1	; 0x800221 <licznik_bezpieczenstwa.3482>
    2b1c:	b9 cf       	rjmp	.-142    	; 0x2a90 <steruj_SIM900_10MS+0x52>
        licznik_poprzednia_komenda = 0;
    2b1e:	10 92 1f 02 	sts	0x021F, r1	; 0x80021f <licznik_poprzednia_komenda.3484+0x1>
    2b22:	10 92 1e 02 	sts	0x021E, r1	; 0x80021e <licznik_poprzednia_komenda.3484>
        if (aktualnie_wysylane_polecenie_SIM900 !=
    2b26:	8d 3f       	cpi	r24, 0xFD	; 253
    2b28:	29 f1       	breq	.+74     	; 0x2b74 <steruj_SIM900_10MS+0x136>
          if (aktualnie_wysylane_polecenie_SIM900 ==
    2b2a:	87 39       	cpi	r24, 0x97	; 151
    2b2c:	01 f1       	breq	.+64     	; 0x2b6e <steruj_SIM900_10MS+0x130>
                  KOMENDA_KOLEJKI_ODRZUC_ROZMOWE ||
    2b2e:	92 e7       	ldi	r25, 0x72	; 114
    2b30:	98 0f       	add	r25, r24
    2b32:	92 30       	cpi	r25, 0x02	; 2
    2b34:	e0 f0       	brcs	.+56     	; 0x2b6e <steruj_SIM900_10MS+0x130>
                  KOMENDA_KOLEJKI_USTAW_PAMIEC_SM_DLA_SMSOW ||
    2b36:	9c e6       	ldi	r25, 0x6C	; 108
    2b38:	98 0f       	add	r25, r24
    2b3a:	92 30       	cpi	r25, 0x02	; 2
    2b3c:	c0 f0       	brcs	.+48     	; 0x2b6e <steruj_SIM900_10MS+0x130>
                   KOMENDA_KOLEJKI_SPRAWDZ_PIN &&
    2b3e:	91 e6       	ldi	r25, 0x61	; 97
    2b40:	98 0f       	add	r25, r24
                  KOMENDA_KOLEJKI_RESETUJ_CELL_BROADCAST_SMS ||
    2b42:	9a 30       	cpi	r25, 0x0A	; 10
    2b44:	a0 f0       	brcs	.+40     	; 0x2b6e <steruj_SIM900_10MS+0x130>
                   KOMENDA_KOLEJKI_WPISZ_POZYCJE_1_W_KSIAZCE_TELEFONICZNEJ) ||
    2b46:	96 e5       	ldi	r25, 0x56	; 86
    2b48:	98 0f       	add	r25, r24
    2b4a:	98 32       	cpi	r25, 0x28	; 40
    2b4c:	80 f0       	brcs	.+32     	; 0x2b6e <steruj_SIM900_10MS+0x130>
            nastepne_wysylane_polecenie_SIM900 = KOMENDA_KOLEJKI_BRAK_KOMENDY;
    2b4e:	10 92 13 02 	sts	0x0213, r1	; 0x800213 <nastepne_wysylane_polecenie_SIM900>
          wyzerowanie_danych_SIM900();
    2b52:	0e 94 f1 09 	call	0x13e2	; 0x13e2 <wyzerowanie_danych_SIM900>
          wysylane_polecenie_SIM900 = KOMENDA_KOLEJKI_ODZYSKIWANIE_URZADZENIA_1;
    2b56:	10 92 15 02 	sts	0x0215, r1	; 0x800215 <licznik_wysylane_polecenie_SIM900+0x1>
    2b5a:	10 92 14 02 	sts	0x0214, r1	; 0x800214 <licznik_wysylane_polecenie_SIM900>
    2b5e:	8d ef       	ldi	r24, 0xFD	; 253
    2b60:	80 93 16 02 	sts	0x0216, r24	; 0x800216 <aktualnie_wysylane_polecenie_SIM900>
          wysylane_dane_RAM_SIM900[0] = '\0';
    2b64:	10 92 0c 06 	sts	0x060C, r1	; 0x80060c <wysylany_blok_SIM900+0x2>
          wyslij_polecenie_RAM_SIM900();
    2b68:	0e 94 4d 1e 	call	0x3c9a	; 0x3c9a <wyslij_polecenie_RAM_SIM900>
    2b6c:	bb cf       	rjmp	.-138    	; 0x2ae4 <steruj_SIM900_10MS+0xa6>
            nastepne_wysylane_polecenie_SIM900 =
    2b6e:	80 93 13 02 	sts	0x0213, r24	; 0x800213 <nastepne_wysylane_polecenie_SIM900>
    2b72:	ef cf       	rjmp	.-34     	; 0x2b52 <steruj_SIM900_10MS+0x114>
          reset_modulu_SIM900();
    2b74:	0e 94 08 0a 	call	0x1410	; 0x1410 <reset_modulu_SIM900>
    2b78:	b5 cf       	rjmp	.-150    	; 0x2ae4 <steruj_SIM900_10MS+0xa6>
                   KOMENDA_KOLEJKI_BRAK_KOMENDY &&
    2b7a:	99 23       	and	r25, r25
    2b7c:	c1 f1       	breq	.+112    	; 0x2bee <steruj_SIM900_10MS+0x1b0>
               czy_jest_bezczynny_SIM900()) {
    2b7e:	80 91 38 02 	lds	r24, 0x0238	; 0x800238 <komenda_SIM900>
               trwa_rozmowa_przychodzaca_od_uzytkownika &&
    2b82:	81 11       	cpse	r24, r1
    2b84:	34 c0       	rjmp	.+104    	; 0x2bee <steruj_SIM900_10MS+0x1b0>
        cli();
    2b86:	f8 94       	cli
        const uint l = liczba_odebranych_znakow_SIM900;
    2b88:	80 91 4d 05 	lds	r24, 0x054D	; 0x80054d <liczba_odebranych_znakow_SIM900>
    2b8c:	90 91 4e 05 	lds	r25, 0x054E	; 0x80054e <liczba_odebranych_znakow_SIM900+0x1>
        sei();
    2b90:	78 94       	sei
        if (licznik_odebranych_znakow < l)
    2b92:	20 91 1c 02 	lds	r18, 0x021C	; 0x80021c <licznik_odebranych_znakow.3485>
    2b96:	30 91 1d 02 	lds	r19, 0x021D	; 0x80021d <licznik_odebranych_znakow.3485+0x1>
    2b9a:	28 17       	cp	r18, r24
    2b9c:	39 07       	cpc	r19, r25
    2b9e:	20 f4       	brcc	.+8      	; 0x2ba8 <steruj_SIM900_10MS+0x16a>
          licznik_odebranych_znakow = l;
    2ba0:	90 93 1d 02 	sts	0x021D, r25	; 0x80021d <licznik_odebranych_znakow.3485+0x1>
    2ba4:	80 93 1c 02 	sts	0x021C, r24	; 0x80021c <licznik_odebranych_znakow.3485>
      if (licznik_odebranych_znakow >=
    2ba8:	80 91 1c 02 	lds	r24, 0x021C	; 0x80021c <licznik_odebranych_znakow.3485>
    2bac:	90 91 1d 02 	lds	r25, 0x021D	; 0x80021d <licznik_odebranych_znakow.3485+0x1>
    2bb0:	0a 97       	sbiw	r24, 0x0a	; 10
    2bb2:	08 f4       	brcc	.+2      	; 0x2bb6 <steruj_SIM900_10MS+0x178>
    2bb4:	9b cf       	rjmp	.-202    	; 0x2aec <steruj_SIM900_10MS+0xae>
        if (++licznik_poprzednia_komenda >= 5 * 100) // 5 sek
    2bb6:	80 91 1e 02 	lds	r24, 0x021E	; 0x80021e <licznik_poprzednia_komenda.3484>
    2bba:	90 91 1f 02 	lds	r25, 0x021F	; 0x80021f <licznik_poprzednia_komenda.3484+0x1>
    2bbe:	01 96       	adiw	r24, 0x01	; 1
    2bc0:	84 3f       	cpi	r24, 0xF4	; 244
    2bc2:	21 e0       	ldi	r18, 0x01	; 1
    2bc4:	92 07       	cpc	r25, r18
    2bc6:	28 f4       	brcc	.+10     	; 0x2bd2 <steruj_SIM900_10MS+0x194>
    2bc8:	90 93 1f 02 	sts	0x021F, r25	; 0x80021f <licznik_poprzednia_komenda.3484+0x1>
    2bcc:	80 93 1e 02 	sts	0x021E, r24	; 0x80021e <licznik_poprzednia_komenda.3484>
    2bd0:	8d cf       	rjmp	.-230    	; 0x2aec <steruj_SIM900_10MS+0xae>
          licznik_poprzednia_komenda = 0;
    2bd2:	10 92 1f 02 	sts	0x021F, r1	; 0x80021f <licznik_poprzednia_komenda.3484+0x1>
    2bd6:	10 92 1e 02 	sts	0x021E, r1	; 0x80021e <licznik_poprzednia_komenda.3484>
          zakonczono_rozmowe_telefoniczna(
    2bda:	81 e0       	ldi	r24, 0x01	; 1
    2bdc:	0e 94 c9 09 	call	0x1392	; 0x1392 <zakonczono_rozmowe_telefoniczna>
          licznik_odebranych_znakow = 0;
    2be0:	10 92 1d 02 	sts	0x021D, r1	; 0x80021d <licznik_odebranych_znakow.3485+0x1>
    2be4:	10 92 1c 02 	sts	0x021C, r1	; 0x80021c <licznik_odebranych_znakow.3485>
          reset_modulu_SIM900();
    2be8:	0e 94 08 0a 	call	0x1410	; 0x1410 <reset_modulu_SIM900>
    2bec:	7f cf       	rjmp	.-258    	; 0x2aec <steruj_SIM900_10MS+0xae>
      licznik_poprzednia_komenda = 0;
    2bee:	10 92 1f 02 	sts	0x021F, r1	; 0x80021f <licznik_poprzednia_komenda.3484+0x1>
    2bf2:	10 92 1e 02 	sts	0x021E, r1	; 0x80021e <licznik_poprzednia_komenda.3484>
      if (!trwa_rozmowa_przychodzaca_od_uzytkownika)
    2bf6:	99 23       	and	r25, r25
    2bf8:	09 f4       	brne	.+2      	; 0x2bfc <steruj_SIM900_10MS+0x1be>
    2bfa:	74 cf       	rjmp	.-280    	; 0x2ae4 <steruj_SIM900_10MS+0xa6>
    2bfc:	77 cf       	rjmp	.-274    	; 0x2aec <steruj_SIM900_10MS+0xae>

00002bfe <wykonanie_komend_powiadomien>:
uchar wykonanie_komend_powiadomien(void) {
    2bfe:	bf 92       	push	r11
    2c00:	cf 92       	push	r12
    2c02:	df 92       	push	r13
    2c04:	ef 92       	push	r14
    2c06:	ff 92       	push	r15
    2c08:	0f 93       	push	r16
    2c0a:	1f 93       	push	r17
    2c0c:	cf 93       	push	r28
    2c0e:	df 93       	push	r29
  const komenda_typ aktualnie_wykonywana_komenda = komendy_kolejka[0];
    2c10:	80 91 9b 07 	lds	r24, 0x079B	; 0x80079b <komendy_kolejka>
      opoznienie_SIM900_100MS || czekanie_na_odebranie_zachety;
    2c14:	90 91 0e 02 	lds	r25, 0x020E	; 0x80020e <flaga_odczytywanie_smsa>
    2c18:	91 11       	cpse	r25, r1
    2c1a:	2b c0       	rjmp	.+86     	; 0x2c72 <wykonanie_komend_powiadomien+0x74>
      flaga_odczytywanie_smsa || flaga_wysylanie_smsa ||
    2c1c:	90 91 0d 02 	lds	r25, 0x020D	; 0x80020d <flaga_wysylanie_smsa>
    2c20:	91 11       	cpse	r25, r1
    2c22:	27 c0       	rjmp	.+78     	; 0x2c72 <wykonanie_komend_powiadomien+0x74>
    2c24:	90 91 b4 03 	lds	r25, 0x03B4	; 0x8003b4 <wykonywanie_rozmowy_telefonicznej>
    2c28:	91 11       	cpse	r25, r1
    2c2a:	23 c0       	rjmp	.+70     	; 0x2c72 <wykonanie_komend_powiadomien+0x74>
      wykonywanie_rozmowy_telefonicznej ||
    2c2c:	90 91 12 02 	lds	r25, 0x0212	; 0x800212 <trwa_rozmowa_przychodzaca_od_uzytkownika>
    2c30:	91 11       	cpse	r25, r1
    2c32:	1f c0       	rjmp	.+62     	; 0x2c72 <wykonanie_komend_powiadomien+0x74>
      trwa_rozmowa_przychodzaca_od_uzytkownika ||
    2c34:	90 91 16 02 	lds	r25, 0x0216	; 0x800216 <aktualnie_wysylane_polecenie_SIM900>
    2c38:	91 11       	cpse	r25, r1
    2c3a:	1b c0       	rjmp	.+54     	; 0x2c72 <wykonanie_komend_powiadomien+0x74>
      aktualnie_wysylane_polecenie_SIM900 != KOMENDA_KOLEJKI_BRAK_KOMENDY ||
    2c3c:	90 91 18 02 	lds	r25, 0x0218	; 0x800218 <opoznienie_SIM900_100MS>
    2c40:	91 11       	cpse	r25, r1
    2c42:	17 c0       	rjmp	.+46     	; 0x2c72 <wykonanie_komend_powiadomien+0x74>
      opoznienie_SIM900_100MS || czekanie_na_odebranie_zachety;
    2c44:	90 91 4c 05 	lds	r25, 0x054C	; 0x80054c <czekanie_na_odebranie_zachety>
    2c48:	21 e0       	ldi	r18, 0x01	; 1
    2c4a:	30 e0       	ldi	r19, 0x00	; 0
    2c4c:	91 11       	cpse	r25, r1
    2c4e:	02 c0       	rjmp	.+4      	; 0x2c54 <wykonanie_komend_powiadomien+0x56>
    2c50:	30 e0       	ldi	r19, 0x00	; 0
    2c52:	20 e0       	ldi	r18, 0x00	; 0
      !czy_gsm_zajety && CZY_MOZNA_WYSYLAC_DANE_SIM900() &&
    2c54:	23 2b       	or	r18, r19
    2c56:	69 f4       	brne	.+26     	; 0x2c72 <wykonanie_komend_powiadomien+0x74>
    2c58:	90 91 c1 00 	lds	r25, 0x00C1	; 0x8000c1 <__TEXT_REGION_LENGTH__+0x7e00c1>
    2c5c:	96 fd       	sbrc	r25, 6
    2c5e:	09 c0       	rjmp	.+18     	; 0x2c72 <wykonanie_komend_powiadomien+0x74>
    2c60:	90 91 37 02 	lds	r25, 0x0237	; 0x800237 <podlaczony_modul_gsm_SIM900>
    2c64:	99 23       	and	r25, r25
    2c66:	29 f0       	breq	.+10     	; 0x2c72 <wykonanie_komend_powiadomien+0x74>
      czy_jest_bezczynny_SIM900();
    2c68:	90 91 38 02 	lds	r25, 0x0238	; 0x800238 <komenda_SIM900>
      !czy_gsm_zajety && CZY_MOZNA_WYSYLAC_DANE_SIM900() &&
    2c6c:	99 23       	and	r25, r25
    2c6e:	09 f4       	brne	.+2      	; 0x2c72 <wykonanie_komend_powiadomien+0x74>
    2c70:	78 c0       	rjmp	.+240    	; 0x2d62 <wykonanie_komend_powiadomien+0x164>
  switch (aktualnie_wykonywana_komenda) {
    2c72:	89 38       	cpi	r24, 0x89	; 137
    2c74:	09 f0       	breq	.+2      	; 0x2c78 <wykonanie_komend_powiadomien+0x7a>
    2c76:	77 c0       	rjmp	.+238    	; 0x2d66 <wykonanie_komend_powiadomien+0x168>
    2c78:	65 c0       	rjmp	.+202    	; 0x2d44 <wykonanie_komend_powiadomien+0x146>
    JESLI_EEPROM_ZAJETY_WYKONAJ_POZNIEJ();
    2c7a:	80 91 db 07 	lds	r24, 0x07DB	; 0x8007db <bufor_pomoc_liczba_znakow_do_zapisu>
    2c7e:	81 11       	cpse	r24, r1
    2c80:	61 c0       	rjmp	.+194    	; 0x2d44 <wykonanie_komend_powiadomien+0x146>
    2c82:	80 91 41 02 	lds	r24, 0x0241	; 0x800241 <liczba_znakow_do_zapisu>
    2c86:	81 11       	cpse	r24, r1
    2c88:	5d c0       	rjmp	.+186    	; 0x2d44 <wykonanie_komend_powiadomien+0x146>
    2c8a:	80 91 dc 07 	lds	r24, 0x07DC	; 0x8007dc <czy_zajety_bufor_eeprom>
    2c8e:	81 11       	cpse	r24, r1
    2c90:	59 c0       	rjmp	.+178    	; 0x2d44 <wykonanie_komend_powiadomien+0x146>
    2c92:	f9 99       	sbic	0x1f, 1	; 31
    2c94:	57 c0       	rjmp	.+174    	; 0x2d44 <wykonanie_komend_powiadomien+0x146>
    *sms++ = '*';
    2c96:	8a e2       	ldi	r24, 0x2A	; 42
    2c98:	80 93 69 05 	sts	0x0569, r24	; 0x800569 <tekst_wysylanego_smsa>
    2c9c:	0a e6       	ldi	r16, 0x6A	; 106
    2c9e:	15 e0       	ldi	r17, 0x05	; 5
      if (czy_aktywny_numer_telefonu_brama(
    2ca0:	85 e0       	ldi	r24, 0x05	; 5
    2ca2:	d8 2e       	mov	r13, r24
        *sms++ = '#';
    2ca4:	93 e2       	ldi	r25, 0x23	; 35
    2ca6:	c9 2e       	mov	r12, r25
        *sms++ = '\n';
    2ca8:	2a e0       	ldi	r18, 0x0A	; 10
    2caa:	b2 2e       	mov	r11, r18
      if (czy_aktywny_numer_telefonu_brama(
    2cac:	c0 91 39 03 	lds	r28, 0x0339	; 0x800339 <numer_skopiowanego_telefonu_do_raportu_uzytkownikow_brama>
    2cb0:	cd 9d       	mul	r28, r13
    2cb2:	70 01       	movw	r14, r0
    2cb4:	11 24       	eor	r1, r1
    2cb6:	88 e0       	ldi	r24, 0x08	; 8
    2cb8:	e8 0e       	add	r14, r24
    2cba:	f1 1c       	adc	r15, r1
    2cbc:	c7 01       	movw	r24, r14
    2cbe:	0e 94 7e 32 	call	0x64fc	; 0x64fc <eeprom_read_byte>
    2cc2:	8f 3f       	cpi	r24, 0xFF	; 255
    2cc4:	41 f1       	breq	.+80     	; 0x2d16 <wykonanie_komend_powiadomien+0x118>
        sms += kopiuj_blok_eeprom_na_telefon(
    2cc6:	4f ef       	ldi	r20, 0xFF	; 255
    2cc8:	b8 01       	movw	r22, r16
    2cca:	c7 01       	movw	r24, r14
    2ccc:	0e 94 70 28 	call	0x50e0	; 0x50e0 <kopiuj_blok_eeprom_na_telefon>
    2cd0:	e8 01       	movw	r28, r16
    2cd2:	c8 0f       	add	r28, r24
    2cd4:	d1 1d       	adc	r29, r1
        *sms++ = '#';
    2cd6:	c8 82       	st	Y, r12
        *sms++ = '\n';
    2cd8:	8e 01       	movw	r16, r28
    2cda:	0e 5f       	subi	r16, 0xFE	; 254
    2cdc:	1f 4f       	sbci	r17, 0xFF	; 255
    2cde:	b9 82       	std	Y+1, r11	; 0x01
        ++numer_skopiowanego_telefonu_do_raportu_uzytkownikow_brama;
    2ce0:	80 91 39 03 	lds	r24, 0x0339	; 0x800339 <numer_skopiowanego_telefonu_do_raportu_uzytkownikow_brama>
    2ce4:	8f 5f       	subi	r24, 0xFF	; 255
    2ce6:	80 93 39 03 	sts	0x0339, r24	; 0x800339 <numer_skopiowanego_telefonu_do_raportu_uzytkownikow_brama>
        if ((sms + MAX_LICZBA_ZNAKOW_TELEFON + 1 >=
    2cea:	9e 01       	movw	r18, r28
    2cec:	2d 5e       	subi	r18, 0xED	; 237
    2cee:	3f 4f       	sbci	r19, 0xFF	; 255
    2cf0:	29 50       	subi	r18, 0x09	; 9
    2cf2:	36 40       	sbci	r19, 0x06	; 6
    2cf4:	50 f4       	brcc	.+20     	; 0x2d0a <wykonanie_komend_powiadomien+0x10c>
             &tekst_wysylanego_smsa[MAX_LICZBA_ZNAKOW_SMS]) ||
    2cf6:	8f 3f       	cpi	r24, 0xFF	; 255
    2cf8:	c9 f6       	brne	.-78     	; 0x2cac <wykonanie_komend_powiadomien+0xae>
          *sms = '\0';
    2cfa:	1a 82       	std	Y+2, r1	; 0x02
          dodaj_komende(KOMENDA_KOLEJKI_WYSLIJ_SMSA_TEXT);
    2cfc:	83 ed       	ldi	r24, 0xD3	; 211
    2cfe:	0e 94 54 27 	call	0x4ea8	; 0x4ea8 <dodaj_komende>
          wysylanie_smsa_clipa = WYSYLANIE_SMSA_WYSYLANIE;
    2d02:	81 e0       	ldi	r24, 0x01	; 1
    2d04:	80 93 e0 01 	sts	0x01E0, r24	; 0x8001e0 <wysylanie_smsa_clipa>
    2d08:	20 c0       	rjmp	.+64     	; 0x2d4a <wykonanie_komend_powiadomien+0x14c>
          if ((numer_skopiowanego_telefonu_do_raportu_uzytkownikow_brama <
    2d0a:	8f 3f       	cpi	r24, 0xFF	; 255
    2d0c:	b1 f3       	breq	.-20     	; 0x2cfa <wykonanie_komend_powiadomien+0xfc>
            dodaj_komende(aktualnie_wykonywana_komenda);
    2d0e:	89 e8       	ldi	r24, 0x89	; 137
    2d10:	0e 94 54 27 	call	0x4ea8	; 0x4ea8 <dodaj_komende>
    2d14:	f2 cf       	rjmp	.-28     	; 0x2cfa <wykonanie_komend_powiadomien+0xfc>
        if (++numer_skopiowanego_telefonu_do_raportu_uzytkownikow_brama >=
    2d16:	cf 5f       	subi	r28, 0xFF	; 255
    2d18:	c0 93 39 03 	sts	0x0339, r28	; 0x800339 <numer_skopiowanego_telefonu_do_raportu_uzytkownikow_brama>
    2d1c:	cf 3f       	cpi	r28, 0xFF	; 255
    2d1e:	31 f6       	brne	.-116    	; 0x2cac <wykonanie_komend_powiadomien+0xae>
          if (sms != &tekst_wysylanego_smsa[0]) {
    2d20:	e5 e0       	ldi	r30, 0x05	; 5
    2d22:	09 36       	cpi	r16, 0x69	; 105
    2d24:	1e 07       	cpc	r17, r30
    2d26:	91 f0       	breq	.+36     	; 0x2d4c <wykonanie_komend_powiadomien+0x14e>
            *sms = '\0';
    2d28:	f8 01       	movw	r30, r16
    2d2a:	10 82       	st	Z, r1
            dodaj_komende(KOMENDA_KOLEJKI_WYSLIJ_SMSA_TEXT);
    2d2c:	83 ed       	ldi	r24, 0xD3	; 211
    2d2e:	0e 94 54 27 	call	0x4ea8	; 0x4ea8 <dodaj_komende>
            wysylanie_smsa_clipa = WYSYLANIE_SMSA_WYSYLANIE;
    2d32:	81 e0       	ldi	r24, 0x01	; 1
    2d34:	80 93 e0 01 	sts	0x01E0, r24	; 0x8001e0 <wysylanie_smsa_clipa>
    2d38:	09 c0       	rjmp	.+18     	; 0x2d4c <wykonanie_komend_powiadomien+0x14e>
    if (not czy_mozna_wysylac_dane_do_SIM900 ||
    2d3a:	80 91 e0 01 	lds	r24, 0x01E0	; 0x8001e0 <wysylanie_smsa_clipa>
    2d3e:	88 23       	and	r24, r24
    2d40:	09 f4       	brne	.+2      	; 0x2d44 <wykonanie_komend_powiadomien+0x146>
    2d42:	9b cf       	rjmp	.-202    	; 0x2c7a <wykonanie_komend_powiadomien+0x7c>
      dodaj_komende(aktualnie_wykonywana_komenda);
    2d44:	89 e8       	ldi	r24, 0x89	; 137
    2d46:	0e 94 54 27 	call	0x4ea8	; 0x4ea8 <dodaj_komende>
  return TRUE;
    2d4a:	cf ef       	ldi	r28, 0xFF	; 255
}
    2d4c:	8c 2f       	mov	r24, r28
    2d4e:	df 91       	pop	r29
    2d50:	cf 91       	pop	r28
    2d52:	1f 91       	pop	r17
    2d54:	0f 91       	pop	r16
    2d56:	ff 90       	pop	r15
    2d58:	ef 90       	pop	r14
    2d5a:	df 90       	pop	r13
    2d5c:	cf 90       	pop	r12
    2d5e:	bf 90       	pop	r11
    2d60:	08 95       	ret
  switch (aktualnie_wykonywana_komenda) {
    2d62:	89 38       	cpi	r24, 0x89	; 137
    2d64:	51 f3       	breq	.-44     	; 0x2d3a <wykonanie_komend_powiadomien+0x13c>
    return FALSE;
    2d66:	c0 e0       	ldi	r28, 0x00	; 0
    2d68:	f1 cf       	rjmp	.-30     	; 0x2d4c <wykonanie_komend_powiadomien+0x14e>

00002d6a <test_sms_clip_100ms>:
}
    2d6a:	08 95       	ret

00002d6c <steruj_wejscia_wyjscia_100ms>:
  aktualizuj_stan_wyzwolenia_wejsc_100ms();
    2d6c:	0e 94 1d 1d 	call	0x3a3a	; 0x3a3a <aktualizuj_stan_wyzwolenia_wejsc_100ms>
  steruj_wejsciem_reset_100ms();
    2d70:	0e 94 53 09 	call	0x12a6	; 0x12a6 <steruj_wejsciem_reset_100ms>
  steruj_wyjscia_100ms();
    2d74:	0c 94 c6 1d 	jmp	0x3b8c	; 0x3b8c <steruj_wyjscia_100ms>

00002d78 <zapis_w_eeprom_stanu_wyjsc>:
void zapis_w_eeprom_stanu_wyjsc(void) {
    2d78:	cf 93       	push	r28
    2d7a:	df 93       	push	r29
    2d7c:	1f 92       	push	r1
    2d7e:	cd b7       	in	r28, 0x3d	; 61
    2d80:	de b7       	in	r29, 0x3e	; 62
  if (not czy_wolny_eeprom())
    2d82:	80 91 db 07 	lds	r24, 0x07DB	; 0x8007db <bufor_pomoc_liczba_znakow_do_zapisu>
    2d86:	81 11       	cpse	r24, r1
    2d88:	31 c0       	rjmp	.+98     	; 0x2dec <zapis_w_eeprom_stanu_wyjsc+0x74>
    2d8a:	80 91 41 02 	lds	r24, 0x0241	; 0x800241 <liczba_znakow_do_zapisu>
    2d8e:	81 11       	cpse	r24, r1
    2d90:	2d c0       	rjmp	.+90     	; 0x2dec <zapis_w_eeprom_stanu_wyjsc+0x74>
    2d92:	80 91 dc 07 	lds	r24, 0x07DC	; 0x8007dc <czy_zajety_bufor_eeprom>
    2d96:	81 11       	cpse	r24, r1
    2d98:	29 c0       	rjmp	.+82     	; 0x2dec <zapis_w_eeprom_stanu_wyjsc+0x74>
    2d9a:	f9 99       	sbic	0x1f, 1	; 31
    2d9c:	27 c0       	rjmp	.+78     	; 0x2dec <zapis_w_eeprom_stanu_wyjsc+0x74>
  uchar par = 0;
    2d9e:	19 82       	std	Y+1, r1	; 0x01
  if ((stan_wyjscie[0] != 0) ^ (licznik_przelacznik_wyjscia[0] != 0))
    2da0:	91 e0       	ldi	r25, 0x01	; 1
    2da2:	80 91 42 02 	lds	r24, 0x0242	; 0x800242 <stan_wyjscie>
    2da6:	81 11       	cpse	r24, r1
    2da8:	01 c0       	rjmp	.+2      	; 0x2dac <zapis_w_eeprom_stanu_wyjsc+0x34>
    2daa:	90 e0       	ldi	r25, 0x00	; 0
    2dac:	81 e0       	ldi	r24, 0x01	; 1
    2dae:	40 91 a5 03 	lds	r20, 0x03A5	; 0x8003a5 <licznik_przelacznik_wyjscia>
    2db2:	50 91 a6 03 	lds	r21, 0x03A6	; 0x8003a6 <licznik_przelacznik_wyjscia+0x1>
    2db6:	60 91 a7 03 	lds	r22, 0x03A7	; 0x8003a7 <licznik_przelacznik_wyjscia+0x2>
    2dba:	70 91 a8 03 	lds	r23, 0x03A8	; 0x8003a8 <licznik_przelacznik_wyjscia+0x3>
    2dbe:	45 2b       	or	r20, r21
    2dc0:	46 2b       	or	r20, r22
    2dc2:	47 2b       	or	r20, r23
    2dc4:	09 f4       	brne	.+2      	; 0x2dc8 <zapis_w_eeprom_stanu_wyjsc+0x50>
    2dc6:	80 e0       	ldi	r24, 0x00	; 0
    2dc8:	98 17       	cp	r25, r24
    2dca:	11 f0       	breq	.+4      	; 0x2dd0 <zapis_w_eeprom_stanu_wyjsc+0x58>
    par |= BIT(0);
    2dcc:	81 e0       	ldi	r24, 0x01	; 1
    2dce:	89 83       	std	Y+1, r24	; 0x01
  if (par != eeprom_read_byte((void *)EEPROM_USTAWIENIE_STANOW_WYJSC))
    2dd0:	85 e0       	ldi	r24, 0x05	; 5
    2dd2:	90 e0       	ldi	r25, 0x00	; 0
    2dd4:	0e 94 7e 32 	call	0x64fc	; 0x64fc <eeprom_read_byte>
    2dd8:	99 81       	ldd	r25, Y+1	; 0x01
    2dda:	89 17       	cp	r24, r25
    2ddc:	39 f0       	breq	.+14     	; 0x2dec <zapis_w_eeprom_stanu_wyjsc+0x74>
    zapisz_znaki_w_eeprom(&par, (uint)EEPROM_USTAWIENIE_STANOW_WYJSC, 1);
    2dde:	41 e0       	ldi	r20, 0x01	; 1
    2de0:	65 e0       	ldi	r22, 0x05	; 5
    2de2:	70 e0       	ldi	r23, 0x00	; 0
    2de4:	ce 01       	movw	r24, r28
    2de6:	01 96       	adiw	r24, 0x01	; 1
    2de8:	0e 94 66 29 	call	0x52cc	; 0x52cc <zapisz_znaki_w_eeprom>
}
    2dec:	0f 90       	pop	r0
    2dee:	df 91       	pop	r29
    2df0:	cf 91       	pop	r28
    2df2:	08 95       	ret

00002df4 <steruj_urzadzeniem_100MS>:
  steruj_wejscia_wyjscia_100ms();
    2df4:	0e 94 b6 16 	call	0x2d6c	; 0x2d6c <steruj_wejscia_wyjscia_100ms>
  steruj_SIM900_100MS();
    2df8:	0e 94 33 14 	call	0x2866	; 0x2866 <steruj_SIM900_100MS>
  if (licznik_100ms_dioda_led) {
    2dfc:	80 91 6e 03 	lds	r24, 0x036E	; 0x80036e <licznik_100ms_dioda_led>
    2e00:	88 23       	and	r24, r24
    2e02:	31 f0       	breq	.+12     	; 0x2e10 <steruj_urzadzeniem_100MS+0x1c>
    if (--licznik_100ms_dioda_led == 0)
    2e04:	81 50       	subi	r24, 0x01	; 1
    2e06:	80 93 6e 03 	sts	0x036E, r24	; 0x80036e <licznik_100ms_dioda_led>
    2e0a:	81 11       	cpse	r24, r1
    2e0c:	6c c0       	rjmp	.+216    	; 0x2ee6 <steruj_urzadzeniem_100MS+0xf2>
      ustaw_stan_led(FALSE);
    2e0e:	40 9a       	sbi	0x08, 0	; 8
  if (timer_report_user_100ms > 0) {
    2e10:	80 91 33 02 	lds	r24, 0x0233	; 0x800233 <timer_report_user_100ms>
    2e14:	90 91 34 02 	lds	r25, 0x0234	; 0x800234 <timer_report_user_100ms+0x1>
    2e18:	00 97       	sbiw	r24, 0x00	; 0
    2e1a:	39 f0       	breq	.+14     	; 0x2e2a <steruj_urzadzeniem_100MS+0x36>
    --timer_report_user_100ms;
    2e1c:	01 97       	sbiw	r24, 0x01	; 1
    2e1e:	90 93 34 02 	sts	0x0234, r25	; 0x800234 <timer_report_user_100ms+0x1>
    2e22:	80 93 33 02 	sts	0x0233, r24	; 0x800233 <timer_report_user_100ms>
    if (timer_report_user_100ms == 0) {
    2e26:	89 2b       	or	r24, r25
    2e28:	11 f4       	brne	.+4      	; 0x2e2e <steruj_urzadzeniem_100MS+0x3a>
      licznik_report_user = 0;
    2e2a:	10 92 35 02 	sts	0x0235, r1	; 0x800235 <licznik_report_user>
  const komenda_typ pierwsza_komenda = komendy_kolejka[0];
    2e2e:	80 91 9b 07 	lds	r24, 0x079B	; 0x80079b <komendy_kolejka>
  if (pierwsza_komenda != KOMENDA_KOLEJKI_BRAK_KOMENDY) {
    2e32:	88 23       	and	r24, r24
    2e34:	09 f4       	brne	.+2      	; 0x2e38 <steruj_urzadzeniem_100MS+0x44>
    2e36:	82 c0       	rjmp	.+260    	; 0x2f3c <steruj_urzadzeniem_100MS+0x148>
    if (pierwsza_komenda >= KOMENDA_KOLEJKI_WYSLIJ_SMSA_TEXT &&
    2e38:	9d e2       	ldi	r25, 0x2D	; 45
    2e3a:	98 0f       	add	r25, r24
    2e3c:	92 30       	cpi	r25, 0x02	; 2
    2e3e:	08 f0       	brcs	.+2      	; 0x2e42 <steruj_urzadzeniem_100MS+0x4e>
    2e40:	76 c0       	rjmp	.+236    	; 0x2f2e <steruj_urzadzeniem_100MS+0x13a>
      if (pierwsza_komenda == ostatnia_pierwsza_komenda) {
    2e42:	90 91 32 02 	lds	r25, 0x0232	; 0x800232 <ostatnia_pierwsza_komenda>
    2e46:	98 13       	cpse	r25, r24
    2e48:	72 c0       	rjmp	.+228    	; 0x2f2e <steruj_urzadzeniem_100MS+0x13a>
        if (licznik_kolejka_stoi_100ms < MAX_CZAS_KOLEJKA_STOI_100MS)
    2e4a:	80 91 30 02 	lds	r24, 0x0230	; 0x800230 <licznik_kolejka_stoi_100ms>
    2e4e:	90 91 31 02 	lds	r25, 0x0231	; 0x800231 <licznik_kolejka_stoi_100ms+0x1>
    2e52:	86 39       	cpi	r24, 0x96	; 150
    2e54:	91 05       	cpc	r25, r1
    2e56:	08 f0       	brcs	.+2      	; 0x2e5a <steruj_urzadzeniem_100MS+0x66>
    2e58:	48 c0       	rjmp	.+144    	; 0x2eea <steruj_urzadzeniem_100MS+0xf6>
          ++licznik_kolejka_stoi_100ms;
    2e5a:	01 96       	adiw	r24, 0x01	; 1
    2e5c:	90 93 31 02 	sts	0x0231, r25	; 0x800231 <licznik_kolejka_stoi_100ms+0x1>
    2e60:	80 93 30 02 	sts	0x0230, r24	; 0x800230 <licznik_kolejka_stoi_100ms>
  if (flaga_wysylanie_smsa) {
    2e64:	80 91 0d 02 	lds	r24, 0x020D	; 0x80020d <flaga_wysylanie_smsa>
    2e68:	88 23       	and	r24, r24
    2e6a:	09 f4       	brne	.+2      	; 0x2e6e <steruj_urzadzeniem_100MS+0x7a>
    2e6c:	89 c0       	rjmp	.+274    	; 0x2f80 <steruj_urzadzeniem_100MS+0x18c>
    if (licznik_watchdog_wysylanie_smsa_100ms < WATCHDOG_WYSYLANIA_SMS_100MS) {
    2e6e:	80 91 2a 02 	lds	r24, 0x022A	; 0x80022a <licznik_watchdog_wysylanie_smsa_100ms>
    2e72:	90 91 2b 02 	lds	r25, 0x022B	; 0x80022b <licznik_watchdog_wysylanie_smsa_100ms+0x1>
    2e76:	8c 32       	cpi	r24, 0x2C	; 44
    2e78:	21 e0       	ldi	r18, 0x01	; 1
    2e7a:	92 07       	cpc	r25, r18
    2e7c:	08 f0       	brcs	.+2      	; 0x2e80 <steruj_urzadzeniem_100MS+0x8c>
    2e7e:	61 c0       	rjmp	.+194    	; 0x2f42 <steruj_urzadzeniem_100MS+0x14e>
      ++licznik_watchdog_wysylanie_smsa_100ms;
    2e80:	01 96       	adiw	r24, 0x01	; 1
    2e82:	90 93 2b 02 	sts	0x022B, r25	; 0x80022b <licznik_watchdog_wysylanie_smsa_100ms+0x1>
    2e86:	80 93 2a 02 	sts	0x022A, r24	; 0x80022a <licznik_watchdog_wysylanie_smsa_100ms>
  if (watchdog_sms_aktywny) {
    2e8a:	80 91 fe 01 	lds	r24, 0x01FE	; 0x8001fe <watchdog_sms_aktywny>
    2e8e:	88 23       	and	r24, r24
    2e90:	09 f4       	brne	.+2      	; 0x2e94 <steruj_urzadzeniem_100MS+0xa0>
    2e92:	8c c0       	rjmp	.+280    	; 0x2fac <steruj_urzadzeniem_100MS+0x1b8>
    if (watchdog_sms_licznik_100ms < WATCHDOG_SMS_TIMEOUT_100MS)
    2e94:	80 91 fc 01 	lds	r24, 0x01FC	; 0x8001fc <watchdog_sms_licznik_100ms>
    2e98:	90 91 fd 01 	lds	r25, 0x01FD	; 0x8001fd <watchdog_sms_licznik_100ms+0x1>
    2e9c:	84 36       	cpi	r24, 0x64	; 100
    2e9e:	91 05       	cpc	r25, r1
    2ea0:	08 f0       	brcs	.+2      	; 0x2ea4 <steruj_urzadzeniem_100MS+0xb0>
    2ea2:	75 c0       	rjmp	.+234    	; 0x2f8e <steruj_urzadzeniem_100MS+0x19a>
      ++watchdog_sms_licznik_100ms;
    2ea4:	80 91 fc 01 	lds	r24, 0x01FC	; 0x8001fc <watchdog_sms_licznik_100ms>
    2ea8:	90 91 fd 01 	lds	r25, 0x01FD	; 0x8001fd <watchdog_sms_licznik_100ms+0x1>
    2eac:	01 96       	adiw	r24, 0x01	; 1
    2eae:	90 93 fd 01 	sts	0x01FD, r25	; 0x8001fd <watchdog_sms_licznik_100ms+0x1>
    2eb2:	80 93 fc 01 	sts	0x01FC, r24	; 0x8001fc <watchdog_sms_licznik_100ms>
  if (liczba_blyskow_led > 0) {
    2eb6:	80 91 ed 01 	lds	r24, 0x01ED	; 0x8001ed <liczba_blyskow_led>
    2eba:	88 23       	and	r24, r24
    2ebc:	09 f4       	brne	.+2      	; 0x2ec0 <steruj_urzadzeniem_100MS+0xcc>
    2ebe:	89 c0       	rjmp	.+274    	; 0x2fd2 <steruj_urzadzeniem_100MS+0x1de>
    ++stan_cyklu_blysku;
    2ec0:	90 91 ec 01 	lds	r25, 0x01EC	; 0x8001ec <stan_cyklu_blysku>
    2ec4:	9f 5f       	subi	r25, 0xFF	; 255
    2ec6:	90 93 ec 01 	sts	0x01EC, r25	; 0x8001ec <stan_cyklu_blysku>
    if (stan_cyklu_blysku >= 6) {
    2eca:	96 30       	cpi	r25, 0x06	; 6
    2ecc:	28 f0       	brcs	.+10     	; 0x2ed8 <steruj_urzadzeniem_100MS+0xe4>
      stan_cyklu_blysku = 0;
    2ece:	10 92 ec 01 	sts	0x01EC, r1	; 0x8001ec <stan_cyklu_blysku>
      --liczba_blyskow_led;
    2ed2:	81 50       	subi	r24, 0x01	; 1
    2ed4:	80 93 ed 01 	sts	0x01ED, r24	; 0x8001ed <liczba_blyskow_led>
    ustaw_stan_led(stan_cyklu_blysku < 2);
    2ed8:	80 91 ec 01 	lds	r24, 0x01EC	; 0x8001ec <stan_cyklu_blysku>
    2edc:	82 30       	cpi	r24, 0x02	; 2
    2ede:	08 f4       	brcc	.+2      	; 0x2ee2 <steruj_urzadzeniem_100MS+0xee>
    2ee0:	76 c0       	rjmp	.+236    	; 0x2fce <steruj_urzadzeniem_100MS+0x1da>
    2ee2:	40 9a       	sbi	0x08, 0	; 8
    2ee4:	08 95       	ret
      ustaw_stan_led(TRUE);
    2ee6:	40 98       	cbi	0x08, 0	; 8
    2ee8:	93 cf       	rjmp	.-218    	; 0x2e10 <steruj_urzadzeniem_100MS+0x1c>
          filtruj_komendy_z_przedzialu(KOMENDA_KOLEJKI_WYSLIJ_SMSA_TEXT,
    2eea:	64 ed       	ldi	r22, 0xD4	; 212
    2eec:	83 ed       	ldi	r24, 0xD3	; 211
    2eee:	0e 94 7a 27 	call	0x4ef4	; 0x4ef4 <filtruj_komendy_z_przedzialu>
          if (licznik_awaryjnych_resetow_kolejki < 0xFFFF)
    2ef2:	80 91 2c 02 	lds	r24, 0x022C	; 0x80022c <licznik_awaryjnych_resetow_kolejki>
    2ef6:	90 91 2d 02 	lds	r25, 0x022D	; 0x80022d <licznik_awaryjnych_resetow_kolejki+0x1>
    2efa:	8f 3f       	cpi	r24, 0xFF	; 255
    2efc:	98 07       	cpc	r25, r24
    2efe:	29 f0       	breq	.+10     	; 0x2f0a <steruj_urzadzeniem_100MS+0x116>
            ++licznik_awaryjnych_resetow_kolejki;
    2f00:	01 96       	adiw	r24, 0x01	; 1
    2f02:	90 93 2d 02 	sts	0x022D, r25	; 0x80022d <licznik_awaryjnych_resetow_kolejki+0x1>
    2f06:	80 93 2c 02 	sts	0x022C, r24	; 0x80022c <licznik_awaryjnych_resetow_kolejki>
          filtruj_i_dodaj_komende(KOMENDA_KOLEJKI_USUN_WSZYSTKIE_SMSY);
    2f0a:	82 e9       	ldi	r24, 0x92	; 146
    2f0c:	0e 94 66 27 	call	0x4ecc	; 0x4ecc <filtruj_i_dodaj_komende>
          licznik_report_user = 0;
    2f10:	10 92 35 02 	sts	0x0235, r1	; 0x800235 <licznik_report_user>
          timer_report_user_100ms = 0;
    2f14:	10 92 34 02 	sts	0x0234, r1	; 0x800234 <timer_report_user_100ms+0x1>
    2f18:	10 92 33 02 	sts	0x0233, r1	; 0x800233 <timer_report_user_100ms>
          licznik_kolejka_stoi_100ms = 0;
    2f1c:	10 92 31 02 	sts	0x0231, r1	; 0x800231 <licznik_kolejka_stoi_100ms+0x1>
    2f20:	10 92 30 02 	sts	0x0230, r1	; 0x800230 <licznik_kolejka_stoi_100ms>
          ostatnia_pierwsza_komenda = KOMENDA_KOLEJKI_BRAK_KOMENDY;
    2f24:	10 92 32 02 	sts	0x0232, r1	; 0x800232 <ostatnia_pierwsza_komenda>
          flaga_wysylanie_smsa = 0;
    2f28:	10 92 0d 02 	sts	0x020D, r1	; 0x80020d <flaga_wysylanie_smsa>
    2f2c:	9b cf       	rjmp	.-202    	; 0x2e64 <steruj_urzadzeniem_100MS+0x70>
      ostatnia_pierwsza_komenda = pierwsza_komenda;
    2f2e:	80 93 32 02 	sts	0x0232, r24	; 0x800232 <ostatnia_pierwsza_komenda>
    licznik_kolejka_stoi_100ms = 0;
    2f32:	10 92 31 02 	sts	0x0231, r1	; 0x800231 <licznik_kolejka_stoi_100ms+0x1>
    2f36:	10 92 30 02 	sts	0x0230, r1	; 0x800230 <licznik_kolejka_stoi_100ms>
    2f3a:	94 cf       	rjmp	.-216    	; 0x2e64 <steruj_urzadzeniem_100MS+0x70>
    ostatnia_pierwsza_komenda = KOMENDA_KOLEJKI_BRAK_KOMENDY;
    2f3c:	10 92 32 02 	sts	0x0232, r1	; 0x800232 <ostatnia_pierwsza_komenda>
    2f40:	f8 cf       	rjmp	.-16     	; 0x2f32 <steruj_urzadzeniem_100MS+0x13e>
      licznik_watchdog_wysylanie_smsa_100ms = 0;
    2f42:	10 92 2b 02 	sts	0x022B, r1	; 0x80022b <licznik_watchdog_wysylanie_smsa_100ms+0x1>
    2f46:	10 92 2a 02 	sts	0x022A, r1	; 0x80022a <licznik_watchdog_wysylanie_smsa_100ms>
      watchdog_sms_disarm();
    2f4a:	0e 94 32 03 	call	0x664	; 0x664 <watchdog_sms_disarm>
      flaga_wysylanie_smsa = 0;
    2f4e:	10 92 0d 02 	sts	0x020D, r1	; 0x80020d <flaga_wysylanie_smsa>
      liczba_prob_wyslania_smsa = 0;
    2f52:	10 92 0c 02 	sts	0x020C, r1	; 0x80020c <liczba_prob_wyslania_smsa>
      czekanie_na_odebranie_zachety = FALSE;
    2f56:	10 92 4c 05 	sts	0x054C, r1	; 0x80054c <czekanie_na_odebranie_zachety>
      wysylanie_smsa_clipa = WYSYLANIE_SMSA_CLIPA_BRAK;
    2f5a:	10 92 e0 01 	sts	0x01E0, r1	; 0x8001e0 <wysylanie_smsa_clipa>
      if (liczba_kolejnych_watchdogow_wysylania < 255)
    2f5e:	80 91 29 02 	lds	r24, 0x0229	; 0x800229 <liczba_kolejnych_watchdogow_wysylania>
    2f62:	8f 3f       	cpi	r24, 0xFF	; 255
    2f64:	19 f0       	breq	.+6      	; 0x2f6c <steruj_urzadzeniem_100MS+0x178>
        ++liczba_kolejnych_watchdogow_wysylania;
    2f66:	8f 5f       	subi	r24, 0xFF	; 255
    2f68:	80 93 29 02 	sts	0x0229, r24	; 0x800229 <liczba_kolejnych_watchdogow_wysylania>
      if (liczba_kolejnych_watchdogow_wysylania >= 3) {
    2f6c:	80 91 29 02 	lds	r24, 0x0229	; 0x800229 <liczba_kolejnych_watchdogow_wysylania>
    2f70:	83 30       	cpi	r24, 0x03	; 3
    2f72:	08 f4       	brcc	.+2      	; 0x2f76 <steruj_urzadzeniem_100MS+0x182>
    2f74:	8a cf       	rjmp	.-236    	; 0x2e8a <steruj_urzadzeniem_100MS+0x96>
        liczba_kolejnych_watchdogow_wysylania = 0;
    2f76:	10 92 29 02 	sts	0x0229, r1	; 0x800229 <liczba_kolejnych_watchdogow_wysylania>
        reset_modulu_SIM900();
    2f7a:	0e 94 08 0a 	call	0x1410	; 0x1410 <reset_modulu_SIM900>
    2f7e:	85 cf       	rjmp	.-246    	; 0x2e8a <steruj_urzadzeniem_100MS+0x96>
    licznik_watchdog_wysylanie_smsa_100ms = 0;
    2f80:	10 92 2b 02 	sts	0x022B, r1	; 0x80022b <licznik_watchdog_wysylanie_smsa_100ms+0x1>
    2f84:	10 92 2a 02 	sts	0x022A, r1	; 0x80022a <licznik_watchdog_wysylanie_smsa_100ms>
    liczba_kolejnych_watchdogow_wysylania = 0;
    2f88:	10 92 29 02 	sts	0x0229, r1	; 0x800229 <liczba_kolejnych_watchdogow_wysylania>
    2f8c:	7e cf       	rjmp	.-260    	; 0x2e8a <steruj_urzadzeniem_100MS+0x96>
      watchdog_sms_trwa_reset = TRUE;
    2f8e:	8f ef       	ldi	r24, 0xFF	; 255
    2f90:	80 93 fb 01 	sts	0x01FB, r24	; 0x8001fb <watchdog_sms_trwa_reset>
      cli();
    2f94:	f8 94       	cli
				: "r0"
		);
	}
	else
	{
		__asm__ __volatile__ (
    2f96:	88 e1       	ldi	r24, 0x18	; 24
    2f98:	98 e0       	ldi	r25, 0x08	; 8
    2f9a:	0f b6       	in	r0, 0x3f	; 63
    2f9c:	f8 94       	cli
    2f9e:	a8 95       	wdr
    2fa0:	80 93 60 00 	sts	0x0060, r24	; 0x800060 <__TEXT_REGION_LENGTH__+0x7e0060>
    2fa4:	0f be       	out	0x3f, r0	; 63
    2fa6:	90 93 60 00 	sts	0x0060, r25	; 0x800060 <__TEXT_REGION_LENGTH__+0x7e0060>
    2faa:	ff cf       	rjmp	.-2      	; 0x2faa <steruj_urzadzeniem_100MS+0x1b6>
  } else if (watchdog_sms_safe_mode_100ms) {
    2fac:	80 91 f9 01 	lds	r24, 0x01F9	; 0x8001f9 <watchdog_sms_safe_mode_100ms>
    2fb0:	90 91 fa 01 	lds	r25, 0x01FA	; 0x8001fa <watchdog_sms_safe_mode_100ms+0x1>
    2fb4:	89 2b       	or	r24, r25
    2fb6:	09 f4       	brne	.+2      	; 0x2fba <steruj_urzadzeniem_100MS+0x1c6>
    2fb8:	7e cf       	rjmp	.-260    	; 0x2eb6 <steruj_urzadzeniem_100MS+0xc2>
    --watchdog_sms_safe_mode_100ms;
    2fba:	80 91 f9 01 	lds	r24, 0x01F9	; 0x8001f9 <watchdog_sms_safe_mode_100ms>
    2fbe:	90 91 fa 01 	lds	r25, 0x01FA	; 0x8001fa <watchdog_sms_safe_mode_100ms+0x1>
    2fc2:	01 97       	sbiw	r24, 0x01	; 1
    2fc4:	90 93 fa 01 	sts	0x01FA, r25	; 0x8001fa <watchdog_sms_safe_mode_100ms+0x1>
    2fc8:	80 93 f9 01 	sts	0x01F9, r24	; 0x8001f9 <watchdog_sms_safe_mode_100ms>
    2fcc:	74 cf       	rjmp	.-280    	; 0x2eb6 <steruj_urzadzeniem_100MS+0xc2>
    ustaw_stan_led(stan_cyklu_blysku < 2);
    2fce:	40 98       	cbi	0x08, 0	; 8
}
    2fd0:	08 95       	ret
  if (!modul_zalogowany_w_sieci) {
    2fd2:	80 91 e7 01 	lds	r24, 0x01E7	; 0x8001e7 <modul_zalogowany_w_sieci>
    2fd6:	81 11       	cpse	r24, r1
    2fd8:	02 c0       	rjmp	.+4      	; 0x2fde <steruj_urzadzeniem_100MS+0x1ea>
      ustaw_stan_led(licznik_dioda_led_poziom_sieci == 40 ||
    2fda:	40 98       	cbi	0x08, 0	; 8
    2fdc:	1c c0       	rjmp	.+56     	; 0x3016 <steruj_urzadzeniem_100MS+0x222>
    if (licznik_100ms_dioda_led) {
    2fde:	80 91 6e 03 	lds	r24, 0x036E	; 0x80036e <licznik_100ms_dioda_led>
    2fe2:	81 11       	cpse	r24, r1
    2fe4:	fa cf       	rjmp	.-12     	; 0x2fda <steruj_urzadzeniem_100MS+0x1e6>
      if (poziom_sieci_gsm < 16) {
    2fe6:	80 91 06 01 	lds	r24, 0x0106	; 0x800106 <poziom_sieci_gsm>
    2fea:	80 31       	cpi	r24, 0x10	; 16
    2fec:	b0 f4       	brcc	.+44     	; 0x301a <steruj_urzadzeniem_100MS+0x226>
        if (++licznik_dioda_led_poziom_sieci >= 50)
    2fee:	80 91 1b 02 	lds	r24, 0x021B	; 0x80021b <licznik_dioda_led_poziom_sieci.3737>
    2ff2:	8f 5f       	subi	r24, 0xFF	; 255
    2ff4:	80 93 1b 02 	sts	0x021B, r24	; 0x80021b <licznik_dioda_led_poziom_sieci.3737>
    2ff8:	82 33       	cpi	r24, 0x32	; 50
    2ffa:	18 f0       	brcs	.+6      	; 0x3002 <steruj_urzadzeniem_100MS+0x20e>
          licznik_dioda_led_poziom_sieci = 1;
    2ffc:	81 e0       	ldi	r24, 0x01	; 1
    2ffe:	80 93 1b 02 	sts	0x021B, r24	; 0x80021b <licznik_dioda_led_poziom_sieci.3737>
      ustaw_stan_led(licznik_dioda_led_poziom_sieci == 40 ||
    3002:	80 91 1b 02 	lds	r24, 0x021B	; 0x80021b <licznik_dioda_led_poziom_sieci.3737>
    3006:	88 32       	cpi	r24, 0x28	; 40
    3008:	41 f3       	breq	.-48     	; 0x2fda <steruj_urzadzeniem_100MS+0x1e6>
    300a:	8b 32       	cpi	r24, 0x2B	; 43
    300c:	31 f3       	breq	.-52     	; 0x2fda <steruj_urzadzeniem_100MS+0x1e6>
    300e:	8e 52       	subi	r24, 0x2E	; 46
    3010:	84 30       	cpi	r24, 0x04	; 4
    3012:	18 f3       	brcs	.-58     	; 0x2fda <steruj_urzadzeniem_100MS+0x1e6>
    3014:	40 9a       	sbi	0x08, 0	; 8
  zapis_w_eeprom_stanu_wyjsc();
    3016:	0c 94 bc 16 	jmp	0x2d78	; 0x2d78 <zapis_w_eeprom_stanu_wyjsc>
        licznik_dioda_led_poziom_sieci = 0;
    301a:	10 92 1b 02 	sts	0x021B, r1	; 0x80021b <licznik_dioda_led_poziom_sieci.3737>
    301e:	f1 cf       	rjmp	.-30     	; 0x3002 <steruj_urzadzeniem_100MS+0x20e>

00003020 <steruj_urzadzeniem_10MS>:
  steruj_wejscia_10ms();
    3020:	0e 94 bc 1d 	call	0x3b78	; 0x3b78 <steruj_wejscia_10ms>
  steruj_SIM900_10MS();
    3024:	0e 94 1f 15 	call	0x2a3e	; 0x2a3e <steruj_SIM900_10MS>
  zapisz_bajt_w_EEPROM();
    3028:	0c 94 02 29 	jmp	0x5204	; 0x5204 <zapisz_bajt_w_EEPROM>

0000302c <wolne_zdarzenie_timer>:
  WYKONAJ_CLI_SEI(WYLACZ_PRZERWANIE_TIMER());
    302c:	f8 94       	cli
    302e:	80 91 6e 00 	lds	r24, 0x006E	; 0x80006e <__TEXT_REGION_LENGTH__+0x7e006e>
    3032:	8d 7f       	andi	r24, 0xFD	; 253
    3034:	80 93 6e 00 	sts	0x006E, r24	; 0x80006e <__TEXT_REGION_LENGTH__+0x7e006e>
    3038:	78 94       	sei
    303a:	00 00       	nop
  if (!CZY_WYKONAC_ZDARZENIE_TIMER()) {
    303c:	80 91 eb 01 	lds	r24, 0x01EB	; 0x8001eb <wykonaj_zdarzenie_timer>
    3040:	81 11       	cpse	r24, r1
    3042:	09 c0       	rjmp	.+18     	; 0x3056 <wolne_zdarzenie_timer+0x2a>
    WYKONAJ_CLI_SEI(WLACZ_PRZERWANIE_TIMER());
    3044:	f8 94       	cli
    3046:	80 91 6e 00 	lds	r24, 0x006E	; 0x80006e <__TEXT_REGION_LENGTH__+0x7e006e>
    304a:	82 60       	ori	r24, 0x02	; 2
    304c:	80 93 6e 00 	sts	0x006E, r24	; 0x80006e <__TEXT_REGION_LENGTH__+0x7e006e>
    3050:	78 94       	sei
    3052:	00 00       	nop
    return;
    3054:	08 95       	ret
  wykonaj_zdarzenie_timer = FALSE;
    3056:	10 92 eb 01 	sts	0x01EB, r1	; 0x8001eb <wykonaj_zdarzenie_timer>
  if (wykonac_watki_10MS) {
    305a:	80 91 ea 01 	lds	r24, 0x01EA	; 0x8001ea <wykonac_watki_10MS>
    305e:	88 23       	and	r24, r24
    3060:	29 f0       	breq	.+10     	; 0x306c <wolne_zdarzenie_timer+0x40>
    wykonac_watki = WYKONAJ_WATKI_10MS;
    3062:	81 e0       	ldi	r24, 0x01	; 1
    3064:	80 93 e9 01 	sts	0x01E9, r24	; 0x8001e9 <wykonac_watki>
    wykonac_watki_10MS = FALSE;
    3068:	10 92 ea 01 	sts	0x01EA, r1	; 0x8001ea <wykonac_watki_10MS>
  WYKONAJ_CLI_SEI(WLACZ_PRZERWANIE_TIMER());
    306c:	f8 94       	cli
    306e:	80 91 6e 00 	lds	r24, 0x006E	; 0x80006e <__TEXT_REGION_LENGTH__+0x7e006e>
    3072:	82 60       	ori	r24, 0x02	; 2
    3074:	80 93 6e 00 	sts	0x006E, r24	; 0x80006e <__TEXT_REGION_LENGTH__+0x7e006e>
    3078:	78 94       	sei
    307a:	00 00       	nop
  if (CZY_WYKONAC_WATKI_10MS()) {
    307c:	80 91 e9 01 	lds	r24, 0x01E9	; 0x8001e9 <wykonac_watki>
    3080:	80 ff       	sbrs	r24, 0
    3082:	33 c0       	rjmp	.+102    	; 0x30ea <wolne_zdarzenie_timer+0xbe>
    if (++licznik_wybuc_watki_100MS == OPOZNIENIE_100_MS) {
    3084:	80 91 1a 02 	lds	r24, 0x021A	; 0x80021a <licznik_wybuc_watki_100MS.3744>
    3088:	8f 5f       	subi	r24, 0xFF	; 255
    308a:	8a 30       	cpi	r24, 0x0A	; 10
    308c:	79 f1       	breq	.+94     	; 0x30ec <wolne_zdarzenie_timer+0xc0>
    308e:	80 93 1a 02 	sts	0x021A, r24	; 0x80021a <licznik_wybuc_watki_100MS.3744>
    NOP();
    3092:	00 00       	nop
    cli();
    3094:	f8 94       	cli
    if (CZY_ODBIERANIE_DANYCH_SIM900()) {
    3096:	00 b6       	in	r0, 0x30	; 48
    3098:	01 fe       	sbrs	r0, 1
    309a:	26 c0       	rjmp	.+76     	; 0x30e8 <wolne_zdarzenie_timer+0xbc>
      WYLACZ_PRZERWANIE_ODBIORU_DANYCH_SIM900();
    309c:	80 91 c1 00 	lds	r24, 0x00C1	; 0x8000c1 <__TEXT_REGION_LENGTH__+0x7e00c1>
    30a0:	8f 77       	andi	r24, 0x7F	; 127
    30a2:	80 93 c1 00 	sts	0x00C1, r24	; 0x8000c1 <__TEXT_REGION_LENGTH__+0x7e00c1>
      sei();
    30a6:	78 94       	sei
      if (liczba_odebranych_znakow_SIM900 != 0 &&
    30a8:	80 91 4d 05 	lds	r24, 0x054D	; 0x80054d <liczba_odebranych_znakow_SIM900>
    30ac:	90 91 4e 05 	lds	r25, 0x054E	; 0x80054e <liczba_odebranych_znakow_SIM900+0x1>
    30b0:	89 2b       	or	r24, r25
    30b2:	11 f1       	breq	.+68     	; 0x30f8 <wolne_zdarzenie_timer+0xcc>
          ++licznik_opoznienie_oczekiwania_na_bajt_SIM900 >
    30b4:	80 91 5d 05 	lds	r24, 0x055D	; 0x80055d <licznik_opoznienie_oczekiwania_na_bajt_SIM900>
    30b8:	8f 5f       	subi	r24, 0xFF	; 255
      if (liczba_odebranych_znakow_SIM900 != 0 &&
    30ba:	80 93 5d 05 	sts	0x055D, r24	; 0x80055d <licznik_opoznienie_oczekiwania_na_bajt_SIM900>
    30be:	83 33       	cpi	r24, 0x33	; 51
    30c0:	d8 f0       	brcs	.+54     	; 0x30f8 <wolne_zdarzenie_timer+0xcc>
        resetuj_odbior_SIM900_po_bledzie();
    30c2:	45 9a       	sbi	0x08, 5	; 8
    30c4:	80 91 c1 00 	lds	r24, 0x00C1	; 0x8000c1 <__TEXT_REGION_LENGTH__+0x7e00c1>
    30c8:	8f 77       	andi	r24, 0x7F	; 127
    30ca:	80 93 c1 00 	sts	0x00C1, r24	; 0x8000c1 <__TEXT_REGION_LENGTH__+0x7e00c1>
    30ce:	80 b7       	in	r24, 0x30	; 48
    30d0:	8d 7f       	andi	r24, 0xFD	; 253
    30d2:	80 bf       	out	0x30, r24	; 48
    30d4:	10 92 b6 03 	sts	0x03B6, r1	; 0x8003b6 <poczatek_polecenia_SIM900+0x1>
    30d8:	10 92 b5 03 	sts	0x03B5, r1	; 0x8003b5 <poczatek_polecenia_SIM900>
    30dc:	10 92 4b 05 	sts	0x054B, r1	; 0x80054b <zakonczenie_polecenia_SIM900+0x1>
    30e0:	10 92 4a 05 	sts	0x054A, r1	; 0x80054a <zakonczenie_polecenia_SIM900>
    30e4:	10 92 b2 03 	sts	0x03B2, r1	; 0x8003b2 <czy_jest_nowe_polecenie_SIM900>
    sei();
    30e8:	78 94       	sei
}
    30ea:	08 95       	ret
      licznik_wybuc_watki_100MS = 0;
    30ec:	10 92 1a 02 	sts	0x021A, r1	; 0x80021a <licznik_wybuc_watki_100MS.3744>
      wykonac_watki = WYKONAJ_WATKI_100MS | WYKONAJ_WATKI_10MS;
    30f0:	83 e0       	ldi	r24, 0x03	; 3
    30f2:	80 93 e9 01 	sts	0x01E9, r24	; 0x8001e9 <wykonac_watki>
    30f6:	cd cf       	rjmp	.-102    	; 0x3092 <wolne_zdarzenie_timer+0x66>
        WYKONAJ_CLI_SEI(WLACZ_PRZERWANIE_ODBIORU_DANYCH_SIM900());
    30f8:	f8 94       	cli
    30fa:	80 91 c1 00 	lds	r24, 0x00C1	; 0x8000c1 <__TEXT_REGION_LENGTH__+0x7e00c1>
    30fe:	80 68       	ori	r24, 0x80	; 128
    3100:	80 93 c1 00 	sts	0x00C1, r24	; 0x8000c1 <__TEXT_REGION_LENGTH__+0x7e00c1>
    3104:	78 94       	sei
    3106:	00 00       	nop
    3108:	ef cf       	rjmp	.-34     	; 0x30e8 <wolne_zdarzenie_timer+0xbc>

0000310a <ustaw_parametry_dla_bezpieczenstwa>:
  wdt_reset();
    310a:	a8 95       	wdr
  ustaw_parametry_dla_bezpieczenstwa_rejestry();
    310c:	82 e0       	ldi	r24, 0x02	; 2
    310e:	84 bd       	out	0x24, r24	; 36
    3110:	83 e0       	ldi	r24, 0x03	; 3
    3112:	85 bd       	out	0x25, r24	; 37
    3114:	8f e3       	ldi	r24, 0x3F	; 63
    3116:	87 bd       	out	0x27, r24	; 39
    3118:	ee e6       	ldi	r30, 0x6E	; 110
    311a:	f0 e0       	ldi	r31, 0x00	; 0
    311c:	80 81       	ld	r24, Z
    311e:	82 60       	ori	r24, 0x02	; 2
    3120:	80 83       	st	Z, r24
  set_sleep_mode(SLEEP_MODE_IDLE);
    3122:	83 b7       	in	r24, 0x33	; 51
    3124:	81 7f       	andi	r24, 0xF1	; 241
    3126:	83 bf       	out	0x33, r24	; 51
}
    3128:	08 95       	ret

0000312a <inicjalizuj_parametry_modulu>:
void inicjalizuj_parametry_modulu(void) {
    312a:	cf 93       	push	r28
    312c:	df 93       	push	r29
  memcpy_E(kod_modulu, ADRES_EEPROM_KOD_DOSTEPU, LICZBA_BAJTOW_KODU_DOSTEPU);
    312e:	44 e0       	ldi	r20, 0x04	; 4
    3130:	50 e0       	ldi	r21, 0x00	; 0
    3132:	61 e0       	ldi	r22, 0x01	; 1
    3134:	70 e0       	ldi	r23, 0x00	; 0
    3136:	8f e6       	ldi	r24, 0x6F	; 111
    3138:	93 e0       	ldi	r25, 0x03	; 3
    313a:	0e 94 6e 32 	call	0x64dc	; 0x64dc <eeprom_read_block>
  if (kod_modulu[0] == 0xFF || kod_modulu[0] == 0x00) {
    313e:	80 91 6f 03 	lds	r24, 0x036F	; 0x80036f <kod_modulu>
    3142:	81 50       	subi	r24, 0x01	; 1
    3144:	8e 3f       	cpi	r24, 0xFE	; 254
    3146:	f0 f0       	brcs	.+60     	; 0x3184 <inicjalizuj_parametry_modulu+0x5a>
    kod_modulu[0] = bufor_eeprom[0] = 'A';
    3148:	81 e4       	ldi	r24, 0x41	; 65
    314a:	80 93 dd 07 	sts	0x07DD, r24	; 0x8007dd <bufor_eeprom>
    314e:	80 93 6f 03 	sts	0x036F, r24	; 0x80036f <kod_modulu>
    kod_modulu[1] = bufor_eeprom[1] = 'B';
    3152:	82 e4       	ldi	r24, 0x42	; 66
    3154:	80 93 de 07 	sts	0x07DE, r24	; 0x8007de <bufor_eeprom+0x1>
    3158:	80 93 70 03 	sts	0x0370, r24	; 0x800370 <kod_modulu+0x1>
    kod_modulu[2] = bufor_eeprom[2] = 'C';
    315c:	83 e4       	ldi	r24, 0x43	; 67
    315e:	80 93 df 07 	sts	0x07DF, r24	; 0x8007df <bufor_eeprom+0x2>
    3162:	80 93 71 03 	sts	0x0371, r24	; 0x800371 <kod_modulu+0x2>
    kod_modulu[3] = bufor_eeprom[3] = 'D';
    3166:	84 e4       	ldi	r24, 0x44	; 68
    3168:	80 93 e0 07 	sts	0x07E0, r24	; 0x8007e0 <bufor_eeprom+0x3>
    316c:	80 93 72 03 	sts	0x0372, r24	; 0x800372 <kod_modulu+0x3>
    while (!eeprom_is_ready())
    3170:	f9 99       	sbic	0x1f, 1	; 31
    3172:	fe cf       	rjmp	.-4      	; 0x3170 <inicjalizuj_parametry_modulu+0x46>
    eeprom_update_block(kod_modulu, (void *)ADRES_EEPROM_KOD_DOSTEPU,
    3174:	44 e0       	ldi	r20, 0x04	; 4
    3176:	50 e0       	ldi	r21, 0x00	; 0
    3178:	61 e0       	ldi	r22, 0x01	; 1
    317a:	70 e0       	ldi	r23, 0x00	; 0
    317c:	8f e6       	ldi	r24, 0x6F	; 111
    317e:	93 e0       	ldi	r25, 0x03	; 3
    3180:	0e 94 86 32 	call	0x650c	; 0x650c <eeprom_update_block>
  tryb_pracy = eeprom_read_byte((const uint8_t *)ADRES_EEPROM_TRYB_PRACY);
    3184:	8e ef       	ldi	r24, 0xFE	; 254
    3186:	9f e0       	ldi	r25, 0x0F	; 15
    3188:	0e 94 7e 32 	call	0x64fc	; 0x64fc <eeprom_read_byte>
  if (tryb_pracy == 0xFF) {
    318c:	8f 3f       	cpi	r24, 0xFF	; 255
    318e:	09 f4       	brne	.+2      	; 0x3192 <inicjalizuj_parametry_modulu+0x68>
    3190:	d2 c0       	rjmp	.+420    	; 0x3336 <inicjalizuj_parametry_modulu+0x20c>
  tryb_pracy = eeprom_read_byte((const uint8_t *)ADRES_EEPROM_TRYB_PRACY);
    3192:	80 93 00 01 	sts	0x0100, r24	; 0x800100 <tryb_pracy>
  tryb_clip = eeprom_read_byte((const uint8_t *)ADRES_EEPROM_TRYB_CLIP_DTMF);
    3196:	8f ef       	ldi	r24, 0xFF	; 255
    3198:	9f e0       	ldi	r25, 0x0F	; 15
    319a:	0e 94 7e 32 	call	0x64fc	; 0x64fc <eeprom_read_byte>
  if (tryb_clip == 0xFF) {
    319e:	8f 3f       	cpi	r24, 0xFF	; 255
    31a0:	09 f4       	brne	.+2      	; 0x31a4 <inicjalizuj_parametry_modulu+0x7a>
    31a2:	d4 c0       	rjmp	.+424    	; 0x334c <inicjalizuj_parametry_modulu+0x222>
  tryb_clip = eeprom_read_byte((const uint8_t *)ADRES_EEPROM_TRYB_CLIP_DTMF);
    31a4:	80 93 01 01 	sts	0x0101, r24	; 0x800101 <tryb_clip>
  czas_start_h = eeprom_read_byte((const uint8_t *)ADRES_EEPROM_CZAS_START_H);
    31a8:	8a ef       	ldi	r24, 0xFA	; 250
    31aa:	9f e0       	ldi	r25, 0x0F	; 15
    31ac:	0e 94 7e 32 	call	0x64fc	; 0x64fc <eeprom_read_byte>
    31b0:	80 93 0a 01 	sts	0x010A, r24	; 0x80010a <czas_start_h>
  czas_start_m = eeprom_read_byte((const uint8_t *)ADRES_EEPROM_CZAS_START_M);
    31b4:	8b ef       	ldi	r24, 0xFB	; 251
    31b6:	9f e0       	ldi	r25, 0x0F	; 15
    31b8:	0e 94 7e 32 	call	0x64fc	; 0x64fc <eeprom_read_byte>
    31bc:	80 93 09 01 	sts	0x0109, r24	; 0x800109 <czas_start_m>
  czas_stop_h = eeprom_read_byte((const uint8_t *)ADRES_EEPROM_CZAS_STOP_H);
    31c0:	8c ef       	ldi	r24, 0xFC	; 252
    31c2:	9f e0       	ldi	r25, 0x0F	; 15
    31c4:	0e 94 7e 32 	call	0x64fc	; 0x64fc <eeprom_read_byte>
    31c8:	80 93 08 01 	sts	0x0108, r24	; 0x800108 <czas_stop_h>
  czas_stop_m = eeprom_read_byte((const uint8_t *)ADRES_EEPROM_CZAS_STOP_M);
    31cc:	8d ef       	ldi	r24, 0xFD	; 253
    31ce:	9f e0       	ldi	r25, 0x0F	; 15
    31d0:	0e 94 7e 32 	call	0x64fc	; 0x64fc <eeprom_read_byte>
    31d4:	80 93 07 01 	sts	0x0107, r24	; 0x800107 <czas_stop_m>
  skryba_wlaczona = eeprom_read_byte((const uint8_t *)ADRES_EEPROM_SKRYBA);
    31d8:	89 ef       	ldi	r24, 0xF9	; 249
    31da:	9f e0       	ldi	r25, 0x0F	; 15
    31dc:	0e 94 7e 32 	call	0x64fc	; 0x64fc <eeprom_read_byte>
  if (skryba_wlaczona == 0xFF)
    31e0:	8f 3f       	cpi	r24, 0xFF	; 255
    31e2:	09 f4       	brne	.+2      	; 0x31e6 <inicjalizuj_parametry_modulu+0xbc>
    31e4:	be c0       	rjmp	.+380    	; 0x3362 <inicjalizuj_parametry_modulu+0x238>
  skryba_wlaczona = eeprom_read_byte((const uint8_t *)ADRES_EEPROM_SKRYBA);
    31e6:	80 93 f4 01 	sts	0x01F4, r24	; 0x8001f4 <skryba_wlaczona>
  uchar limit_l =
    31ea:	85 ef       	ldi	r24, 0xF5	; 245
    31ec:	9f e0       	ldi	r25, 0x0F	; 15
    31ee:	0e 94 7e 32 	call	0x64fc	; 0x64fc <eeprom_read_byte>
    31f2:	c8 2f       	mov	r28, r24
  uchar limit_h =
    31f4:	86 ef       	ldi	r24, 0xF6	; 246
    31f6:	9f e0       	ldi	r25, 0x0F	; 15
    31f8:	0e 94 7e 32 	call	0x64fc	; 0x64fc <eeprom_read_byte>
  if (limit_l == 0xFF && limit_h == 0xFF) {
    31fc:	cf 3f       	cpi	r28, 0xFF	; 255
    31fe:	09 f0       	breq	.+2      	; 0x3202 <inicjalizuj_parametry_modulu+0xd8>
    3200:	b3 c0       	rjmp	.+358    	; 0x3368 <inicjalizuj_parametry_modulu+0x23e>
    3202:	8f 3f       	cpi	r24, 0xFF	; 255
    3204:	09 f0       	breq	.+2      	; 0x3208 <inicjalizuj_parametry_modulu+0xde>
    3206:	b0 c0       	rjmp	.+352    	; 0x3368 <inicjalizuj_parametry_modulu+0x23e>
    skryba_limit = 800;
    3208:	80 e2       	ldi	r24, 0x20	; 32
    320a:	93 e0       	ldi	r25, 0x03	; 3
    320c:	90 93 03 01 	sts	0x0103, r25	; 0x800103 <skryba_limit+0x1>
    3210:	80 93 02 01 	sts	0x0102, r24	; 0x800102 <skryba_limit>
  zapisz_debug_do_eeprom(skryba_wlaczona ? 1 : 0, (uchar)(skryba_limit & 0xFF));
    3214:	81 e0       	ldi	r24, 0x01	; 1
    3216:	90 91 f4 01 	lds	r25, 0x01F4	; 0x8001f4 <skryba_wlaczona>
    321a:	91 11       	cpse	r25, r1
    321c:	01 c0       	rjmp	.+2      	; 0x3220 <inicjalizuj_parametry_modulu+0xf6>
    321e:	80 e0       	ldi	r24, 0x00	; 0
    3220:	60 91 02 01 	lds	r22, 0x0102	; 0x800102 <skryba_limit>
    3224:	0e 94 9e 03 	call	0x73c	; 0x73c <zapisz_debug_do_eeprom>
  if ((czas_start_h > 23 && czas_start_h != 0xFF) ||
    3228:	80 91 0a 01 	lds	r24, 0x010A	; 0x80010a <czas_start_h>
    322c:	88 51       	subi	r24, 0x18	; 24
    322e:	87 3e       	cpi	r24, 0xE7	; 231
    3230:	78 f0       	brcs	.+30     	; 0x3250 <inicjalizuj_parametry_modulu+0x126>
      (czas_start_m > 59 && czas_start_m != 0xFF) ||
    3232:	80 91 09 01 	lds	r24, 0x0109	; 0x800109 <czas_start_m>
    3236:	8c 53       	subi	r24, 0x3C	; 60
  if ((czas_start_h > 23 && czas_start_h != 0xFF) ||
    3238:	83 3c       	cpi	r24, 0xC3	; 195
    323a:	50 f0       	brcs	.+20     	; 0x3250 <inicjalizuj_parametry_modulu+0x126>
      (czas_stop_h > 23 && czas_stop_h != 0xFF) ||
    323c:	80 91 08 01 	lds	r24, 0x0108	; 0x800108 <czas_stop_h>
    3240:	88 51       	subi	r24, 0x18	; 24
      (czas_start_m > 59 && czas_start_m != 0xFF) ||
    3242:	87 3e       	cpi	r24, 0xE7	; 231
    3244:	28 f0       	brcs	.+10     	; 0x3250 <inicjalizuj_parametry_modulu+0x126>
      (czas_stop_m > 59 && czas_stop_m != 0xFF)) {
    3246:	80 91 07 01 	lds	r24, 0x0107	; 0x800107 <czas_stop_m>
    324a:	8c 53       	subi	r24, 0x3C	; 60
      (czas_stop_h > 23 && czas_stop_h != 0xFF) ||
    324c:	83 3c       	cpi	r24, 0xC3	; 195
    324e:	28 f5       	brcc	.+74     	; 0x329a <inicjalizuj_parametry_modulu+0x170>
    while (!eeprom_is_ready())
    3250:	f9 99       	sbic	0x1f, 1	; 31
    3252:	fe cf       	rjmp	.-4      	; 0x3250 <inicjalizuj_parametry_modulu+0x126>
    eeprom_update_byte((uint8_t *)ADRES_EEPROM_CZAS_START_H, 0xFF);
    3254:	6f ef       	ldi	r22, 0xFF	; 255
    3256:	8a ef       	ldi	r24, 0xFA	; 250
    3258:	9f e0       	ldi	r25, 0x0F	; 15
    325a:	0e 94 96 32 	call	0x652c	; 0x652c <eeprom_update_byte>
    while (!eeprom_is_ready())
    325e:	f9 99       	sbic	0x1f, 1	; 31
    3260:	fe cf       	rjmp	.-4      	; 0x325e <inicjalizuj_parametry_modulu+0x134>
    eeprom_update_byte((uint8_t *)ADRES_EEPROM_CZAS_START_M, 0xFF);
    3262:	6f ef       	ldi	r22, 0xFF	; 255
    3264:	8b ef       	ldi	r24, 0xFB	; 251
    3266:	9f e0       	ldi	r25, 0x0F	; 15
    3268:	0e 94 96 32 	call	0x652c	; 0x652c <eeprom_update_byte>
    while (!eeprom_is_ready())
    326c:	f9 99       	sbic	0x1f, 1	; 31
    326e:	fe cf       	rjmp	.-4      	; 0x326c <inicjalizuj_parametry_modulu+0x142>
    eeprom_update_byte((uint8_t *)ADRES_EEPROM_CZAS_STOP_H, 0xFF);
    3270:	6f ef       	ldi	r22, 0xFF	; 255
    3272:	8c ef       	ldi	r24, 0xFC	; 252
    3274:	9f e0       	ldi	r25, 0x0F	; 15
    3276:	0e 94 96 32 	call	0x652c	; 0x652c <eeprom_update_byte>
    while (!eeprom_is_ready())
    327a:	f9 99       	sbic	0x1f, 1	; 31
    327c:	fe cf       	rjmp	.-4      	; 0x327a <inicjalizuj_parametry_modulu+0x150>
    eeprom_update_byte((uint8_t *)ADRES_EEPROM_CZAS_STOP_M, 0xFF);
    327e:	6f ef       	ldi	r22, 0xFF	; 255
    3280:	8d ef       	ldi	r24, 0xFD	; 253
    3282:	9f e0       	ldi	r25, 0x0F	; 15
    3284:	0e 94 96 32 	call	0x652c	; 0x652c <eeprom_update_byte>
    czas_start_h = 0xFF;
    3288:	8f ef       	ldi	r24, 0xFF	; 255
    328a:	80 93 0a 01 	sts	0x010A, r24	; 0x80010a <czas_start_h>
    czas_start_m = 0xFF;
    328e:	80 93 09 01 	sts	0x0109, r24	; 0x800109 <czas_start_m>
    czas_stop_h = 0xFF;
    3292:	80 93 08 01 	sts	0x0108, r24	; 0x800108 <czas_stop_h>
    czas_stop_m = 0xFF;
    3296:	80 93 07 01 	sts	0x0107, r24	; 0x800107 <czas_stop_m>
  blokada_sterowania_czasowa =
    329a:	10 92 3f 02 	sts	0x023F, r1	; 0x80023f <blokada_sterowania_czasowa>
      eeprom_read_byte((const uint8_t *)ADRES_EEPROM_BLOKADA_SYSTEMU);
    329e:	87 ef       	ldi	r24, 0xF7	; 247
    32a0:	9f e0       	ldi	r25, 0x0F	; 15
    32a2:	0e 94 7e 32 	call	0x64fc	; 0x64fc <eeprom_read_byte>
  if (blokada_systemu == 0xFF) {
    32a6:	8f 3f       	cpi	r24, 0xFF	; 255
    32a8:	09 f4       	brne	.+2      	; 0x32ac <inicjalizuj_parametry_modulu+0x182>
    32aa:	6a c0       	rjmp	.+212    	; 0x3380 <inicjalizuj_parametry_modulu+0x256>
  blokada_systemu =
    32ac:	80 93 e2 01 	sts	0x01E2, r24	; 0x8001e2 <blokada_systemu>
void inicjalizuj_parametry_modulu(void) {
    32b0:	c0 ef       	ldi	r28, 0xF0	; 240
    32b2:	df e0       	ldi	r29, 0x0F	; 15
    if (eeprom_read_byte((const uint8_t *)addr) == 0xFF) {
    32b4:	ce 01       	movw	r24, r28
    32b6:	0e 94 7e 32 	call	0x64fc	; 0x64fc <eeprom_read_byte>
    32ba:	8f 3f       	cpi	r24, 0xFF	; 255
    32bc:	31 f4       	brne	.+12     	; 0x32ca <inicjalizuj_parametry_modulu+0x1a0>
      while (!eeprom_is_ready())
    32be:	f9 99       	sbic	0x1f, 1	; 31
    32c0:	fe cf       	rjmp	.-4      	; 0x32be <inicjalizuj_parametry_modulu+0x194>
      eeprom_update_byte((uint8_t *)addr, 0);
    32c2:	60 e0       	ldi	r22, 0x00	; 0
    32c4:	ce 01       	movw	r24, r28
    32c6:	0e 94 96 32 	call	0x652c	; 0x652c <eeprom_update_byte>
       addr <= ADRES_EEPROM_DEBUG_SKRYBA_5; ++addr) {
    32ca:	21 96       	adiw	r28, 0x01	; 1
  for (uint16_t addr = ADRES_EEPROM_DEBUG_SKRYBA_1;
    32cc:	c5 3f       	cpi	r28, 0xF5	; 245
    32ce:	8f e0       	ldi	r24, 0x0F	; 15
    32d0:	d8 07       	cpc	r29, r24
    32d2:	81 f7       	brne	.-32     	; 0x32b4 <inicjalizuj_parametry_modulu+0x18a>
  for (uint16_t addr = ADRES_EEPROM_DEBUG_USER_1;
    32d4:	c6 ee       	ldi	r28, 0xE6	; 230
    32d6:	df e0       	ldi	r29, 0x0F	; 15
    if (eeprom_read_byte((const uint8_t *)addr) == 0xFF) {
    32d8:	ce 01       	movw	r24, r28
    32da:	0e 94 7e 32 	call	0x64fc	; 0x64fc <eeprom_read_byte>
    32de:	8f 3f       	cpi	r24, 0xFF	; 255
    32e0:	31 f4       	brne	.+12     	; 0x32ee <inicjalizuj_parametry_modulu+0x1c4>
      while (!eeprom_is_ready())
    32e2:	f9 99       	sbic	0x1f, 1	; 31
    32e4:	fe cf       	rjmp	.-4      	; 0x32e2 <inicjalizuj_parametry_modulu+0x1b8>
      eeprom_update_byte((uint8_t *)addr, 0);
    32e6:	60 e0       	ldi	r22, 0x00	; 0
    32e8:	ce 01       	movw	r24, r28
    32ea:	0e 94 96 32 	call	0x652c	; 0x652c <eeprom_update_byte>
       addr <= ADRES_EEPROM_DEBUG_USER_7; ++addr) {
    32ee:	21 96       	adiw	r28, 0x01	; 1
  for (uint16_t addr = ADRES_EEPROM_DEBUG_USER_1;
    32f0:	cd 3e       	cpi	r28, 0xED	; 237
    32f2:	2f e0       	ldi	r18, 0x0F	; 15
    32f4:	d2 07       	cpc	r29, r18
    32f6:	81 f7       	brne	.-32     	; 0x32d8 <inicjalizuj_parametry_modulu+0x1ae>
  licznik_report_user = 0;
    32f8:	10 92 35 02 	sts	0x0235, r1	; 0x800235 <licznik_report_user>
  timer_report_user_100ms = 0;
    32fc:	10 92 34 02 	sts	0x0234, r1	; 0x800234 <timer_report_user_100ms+0x1>
    3300:	10 92 33 02 	sts	0x0233, r1	; 0x800233 <timer_report_user_100ms>
  flaga_wysylanie_smsa = 0;
    3304:	10 92 0d 02 	sts	0x020D, r1	; 0x80020d <flaga_wysylanie_smsa>
  if (licznik_resetow < 255)
    3308:	80 91 19 02 	lds	r24, 0x0219	; 0x800219 <licznik_resetow.3788>
    330c:	8f 3f       	cpi	r24, 0xFF	; 255
    330e:	19 f0       	breq	.+6      	; 0x3316 <inicjalizuj_parametry_modulu+0x1ec>
    ++licznik_resetow;
    3310:	8f 5f       	subi	r24, 0xFF	; 255
    3312:	80 93 19 02 	sts	0x0219, r24	; 0x800219 <licznik_resetow.3788>
  while (!eeprom_is_ready())
    3316:	f9 99       	sbic	0x1f, 1	; 31
    3318:	fe cf       	rjmp	.-4      	; 0x3316 <inicjalizuj_parametry_modulu+0x1ec>
  eeprom_update_byte((void *)EEPROM_DEBUG_LICZNIK_RESETOW, licznik_resetow);
    331a:	60 91 19 02 	lds	r22, 0x0219	; 0x800219 <licznik_resetow.3788>
    331e:	8c ed       	ldi	r24, 0xDC	; 220
    3320:	9f e0       	ldi	r25, 0x0F	; 15
    3322:	0e 94 96 32 	call	0x652c	; 0x652c <eeprom_update_byte>
  while (!eeprom_is_ready())
    3326:	f9 99       	sbic	0x1f, 1	; 31
    3328:	fe cf       	rjmp	.-4      	; 0x3326 <inicjalizuj_parametry_modulu+0x1fc>
  zapisz_debug_do_eeprom(0, 2); // Reset (komenda=0 oznacza reset)
    332a:	62 e0       	ldi	r22, 0x02	; 2
    332c:	80 e0       	ldi	r24, 0x00	; 0
}
    332e:	df 91       	pop	r29
    3330:	cf 91       	pop	r28
  zapisz_debug_do_eeprom(0, 2); // Reset (komenda=0 oznacza reset)
    3332:	0c 94 9e 03 	jmp	0x73c	; 0x73c <zapisz_debug_do_eeprom>
    tryb_pracy = 1; // Domylnie Publiczny
    3336:	81 e0       	ldi	r24, 0x01	; 1
    3338:	80 93 00 01 	sts	0x0100, r24	; 0x800100 <tryb_pracy>
    while (!eeprom_is_ready())
    333c:	f9 99       	sbic	0x1f, 1	; 31
    333e:	fe cf       	rjmp	.-4      	; 0x333c <inicjalizuj_parametry_modulu+0x212>
    eeprom_update_byte((uint8_t *)ADRES_EEPROM_TRYB_PRACY, 1);
    3340:	61 e0       	ldi	r22, 0x01	; 1
    3342:	8e ef       	ldi	r24, 0xFE	; 254
    3344:	9f e0       	ldi	r25, 0x0F	; 15
    3346:	0e 94 96 32 	call	0x652c	; 0x652c <eeprom_update_byte>
    334a:	25 cf       	rjmp	.-438    	; 0x3196 <inicjalizuj_parametry_modulu+0x6c>
    tryb_clip = 1; // Domylnie CLIP (1)
    334c:	81 e0       	ldi	r24, 0x01	; 1
    334e:	80 93 01 01 	sts	0x0101, r24	; 0x800101 <tryb_clip>
    while (!eeprom_is_ready())
    3352:	f9 99       	sbic	0x1f, 1	; 31
    3354:	fe cf       	rjmp	.-4      	; 0x3352 <inicjalizuj_parametry_modulu+0x228>
    eeprom_update_byte((uint8_t *)ADRES_EEPROM_TRYB_CLIP_DTMF, 1);
    3356:	61 e0       	ldi	r22, 0x01	; 1
    3358:	8f ef       	ldi	r24, 0xFF	; 255
    335a:	9f e0       	ldi	r25, 0x0F	; 15
    335c:	0e 94 96 32 	call	0x652c	; 0x652c <eeprom_update_byte>
    3360:	23 cf       	rjmp	.-442    	; 0x31a8 <inicjalizuj_parametry_modulu+0x7e>
    skryba_wlaczona = FALSE;
    3362:	10 92 f4 01 	sts	0x01F4, r1	; 0x8001f4 <skryba_wlaczona>
    3366:	41 cf       	rjmp	.-382    	; 0x31ea <inicjalizuj_parametry_modulu+0xc0>
    skryba_limit = limit_l | (limit_h << 8);
    3368:	98 2f       	mov	r25, r24
    336a:	8c 2f       	mov	r24, r28
    336c:	90 93 03 01 	sts	0x0103, r25	; 0x800103 <skryba_limit+0x1>
    3370:	80 93 02 01 	sts	0x0102, r24	; 0x800102 <skryba_limit>
    if (skryba_limit < 1 || skryba_limit > MAX_LICZBA_NUMEROW_TELEFONOW_BRAMA) {
    3374:	01 97       	sbiw	r24, 0x01	; 1
    3376:	80 32       	cpi	r24, 0x20	; 32
    3378:	93 40       	sbci	r25, 0x03	; 3
    337a:	08 f0       	brcs	.+2      	; 0x337e <inicjalizuj_parametry_modulu+0x254>
    337c:	45 cf       	rjmp	.-374    	; 0x3208 <inicjalizuj_parametry_modulu+0xde>
    337e:	4a cf       	rjmp	.-364    	; 0x3214 <inicjalizuj_parametry_modulu+0xea>
    blokada_systemu = FALSE; // Domylnie odblokowany
    3380:	10 92 e2 01 	sts	0x01E2, r1	; 0x8001e2 <blokada_systemu>
    3384:	95 cf       	rjmp	.-214    	; 0x32b0 <inicjalizuj_parametry_modulu+0x186>

00003386 <wykonanie_komend_ukladow>:
uchar wykonanie_komend_ukladow(void) {
    3386:	cf 92       	push	r12
    3388:	df 92       	push	r13
    338a:	ef 92       	push	r14
    338c:	ff 92       	push	r15
    338e:	0f 93       	push	r16
    3390:	1f 93       	push	r17
    3392:	cf 93       	push	r28
    3394:	df 93       	push	r29
    3396:	cd b7       	in	r28, 0x3d	; 61
    3398:	de b7       	in	r29, 0x3e	; 62
    339a:	a5 97       	sbiw	r28, 0x25	; 37
    339c:	0f b6       	in	r0, 0x3f	; 63
    339e:	f8 94       	cli
    33a0:	de bf       	out	0x3e, r29	; 62
    33a2:	0f be       	out	0x3f, r0	; 63
    33a4:	cd bf       	out	0x3d, r28	; 61
  const komenda_typ aktualnie_wykonywana_komenda = komendy_kolejka[0];
    33a6:	10 91 9b 07 	lds	r17, 0x079B	; 0x80079b <komendy_kolejka>
  switch (aktualnie_wykonywana_komenda) {
    33aa:	14 38       	cpi	r17, 0x84	; 132
    33ac:	09 f4       	brne	.+2      	; 0x33b0 <wykonanie_komend_ukladow+0x2a>
    33ae:	e2 c0       	rjmp	.+452    	; 0x3574 <wykonanie_komend_ukladow+0x1ee>
    33b0:	50 f4       	brcc	.+20     	; 0x33c6 <wykonanie_komend_ukladow+0x40>
    33b2:	13 38       	cpi	r17, 0x83	; 131
    33b4:	08 f0       	brcs	.+2      	; 0x33b8 <wykonanie_komend_ukladow+0x32>
    33b6:	a7 c0       	rjmp	.+334    	; 0x3506 <wykonanie_komend_ukladow+0x180>
    33b8:	13 30       	cpi	r17, 0x03	; 3
    33ba:	08 f0       	brcs	.+2      	; 0x33be <wykonanie_komend_ukladow+0x38>
    33bc:	5c c0       	rjmp	.+184    	; 0x3476 <wykonanie_komend_ukladow+0xf0>
    33be:	12 30       	cpi	r17, 0x02	; 2
    33c0:	e1 f0       	breq	.+56     	; 0x33fa <wykonanie_komend_ukladow+0x74>
    return FALSE;
    33c2:	80 e0       	ldi	r24, 0x00	; 0
    33c4:	49 c0       	rjmp	.+146    	; 0x3458 <wykonanie_komend_ukladow+0xd2>
  switch (aktualnie_wykonywana_komenda) {
    33c6:	16 38       	cpi	r17, 0x86	; 134
    33c8:	09 f4       	brne	.+2      	; 0x33cc <wykonanie_komend_ukladow+0x46>
    33ca:	21 c2       	rjmp	.+1090   	; 0x380e <wykonanie_komend_ukladow+0x488>
    33cc:	08 f4       	brcc	.+2      	; 0x33d0 <wykonanie_komend_ukladow+0x4a>
    33ce:	a6 c1       	rjmp	.+844    	; 0x371c <wykonanie_komend_ukladow+0x396>
    33d0:	17 38       	cpi	r17, 0x87	; 135
    33d2:	09 f4       	brne	.+2      	; 0x33d6 <wykonanie_komend_ukladow+0x50>
    33d4:	75 c2       	rjmp	.+1258   	; 0x38c0 <wykonanie_komend_ukladow+0x53a>
    33d6:	18 38       	cpi	r17, 0x88	; 136
    33d8:	a1 f7       	brne	.-24     	; 0x33c2 <wykonanie_komend_ukladow+0x3c>
    JESLI_EEPROM_ZAJETY_WYKONAJ_POZNIEJ();
    33da:	80 91 db 07 	lds	r24, 0x07DB	; 0x8007db <bufor_pomoc_liczba_znakow_do_zapisu>
    33de:	81 11       	cpse	r24, r1
    33e0:	0a c0       	rjmp	.+20     	; 0x33f6 <wykonanie_komend_ukladow+0x70>
    33e2:	80 91 41 02 	lds	r24, 0x0241	; 0x800241 <liczba_znakow_do_zapisu>
    33e6:	81 11       	cpse	r24, r1
    33e8:	06 c0       	rjmp	.+12     	; 0x33f6 <wykonanie_komend_ukladow+0x70>
    33ea:	80 91 dc 07 	lds	r24, 0x07DC	; 0x8007dc <czy_zajety_bufor_eeprom>
    33ee:	81 11       	cpse	r24, r1
    33f0:	02 c0       	rjmp	.+4      	; 0x33f6 <wykonanie_komend_ukladow+0x70>
    33f2:	f9 9b       	sbis	0x1f, 1	; 31
    33f4:	de c2       	rjmp	.+1468   	; 0x39b2 <wykonanie_komend_ukladow+0x62c>
    33f6:	88 e8       	ldi	r24, 0x88	; 136
    33f8:	0f c0       	rjmp	.+30     	; 0x3418 <wykonanie_komend_ukladow+0x92>
    JESLI_EEPROM_ZAJETY_WYKONAJ_POZNIEJ();
    33fa:	80 91 db 07 	lds	r24, 0x07DB	; 0x8007db <bufor_pomoc_liczba_znakow_do_zapisu>
    33fe:	81 11       	cpse	r24, r1
    3400:	0a c0       	rjmp	.+20     	; 0x3416 <wykonanie_komend_ukladow+0x90>
    3402:	80 91 41 02 	lds	r24, 0x0241	; 0x800241 <liczba_znakow_do_zapisu>
    3406:	81 11       	cpse	r24, r1
    3408:	06 c0       	rjmp	.+12     	; 0x3416 <wykonanie_komend_ukladow+0x90>
    340a:	80 91 dc 07 	lds	r24, 0x07DC	; 0x8007dc <czy_zajety_bufor_eeprom>
    340e:	81 11       	cpse	r24, r1
    3410:	02 c0       	rjmp	.+4      	; 0x3416 <wykonanie_komend_ukladow+0x90>
    3412:	f9 9b       	sbis	0x1f, 1	; 31
    3414:	04 c0       	rjmp	.+8      	; 0x341e <wykonanie_komend_ukladow+0x98>
    3416:	82 e0       	ldi	r24, 0x02	; 2
    JESLI_EEPROM_ZAJETY_WYKONAJ_POZNIEJ();
    3418:	0e 94 54 27 	call	0x4ea8	; 0x4ea8 <dodaj_komende>
    341c:	1c c0       	rjmp	.+56     	; 0x3456 <wykonanie_komend_ukladow+0xd0>
    kod_modulu[0] = bufor_eeprom[0] = 'A';
    341e:	81 e4       	ldi	r24, 0x41	; 65
    3420:	80 93 dd 07 	sts	0x07DD, r24	; 0x8007dd <bufor_eeprom>
    3424:	80 93 6f 03 	sts	0x036F, r24	; 0x80036f <kod_modulu>
    kod_modulu[1] = bufor_eeprom[1] = 'B';
    3428:	82 e4       	ldi	r24, 0x42	; 66
    342a:	80 93 de 07 	sts	0x07DE, r24	; 0x8007de <bufor_eeprom+0x1>
    342e:	80 93 70 03 	sts	0x0370, r24	; 0x800370 <kod_modulu+0x1>
    kod_modulu[2] = bufor_eeprom[2] = 'C';
    3432:	83 e4       	ldi	r24, 0x43	; 67
    3434:	80 93 df 07 	sts	0x07DF, r24	; 0x8007df <bufor_eeprom+0x2>
    3438:	80 93 71 03 	sts	0x0371, r24	; 0x800371 <kod_modulu+0x2>
    kod_modulu[3] = bufor_eeprom[3] = 'D';
    343c:	84 e4       	ldi	r24, 0x44	; 68
    343e:	80 93 e0 07 	sts	0x07E0, r24	; 0x8007e0 <bufor_eeprom+0x3>
    3442:	80 93 72 03 	sts	0x0372, r24	; 0x800372 <kod_modulu+0x3>
    zapisz_znaki_w_eeprom_bez_kopiowania(ADRES_EEPROM_KOD_DOSTEPU,
    3446:	64 e0       	ldi	r22, 0x04	; 4
    3448:	81 e0       	ldi	r24, 0x01	; 1
    344a:	90 e0       	ldi	r25, 0x00	; 0
    344c:	0e 94 8d 29 	call	0x531a	; 0x531a <zapisz_znaki_w_eeprom_bez_kopiowania>
    zapal_diode_led(50);
    3450:	83 e3       	ldi	r24, 0x33	; 51
    3452:	80 93 6e 03 	sts	0x036E, r24	; 0x80036e <licznik_100ms_dioda_led>
  return TRUE;
    3456:	8f ef       	ldi	r24, 0xFF	; 255
}
    3458:	a5 96       	adiw	r28, 0x25	; 37
    345a:	0f b6       	in	r0, 0x3f	; 63
    345c:	f8 94       	cli
    345e:	de bf       	out	0x3e, r29	; 62
    3460:	0f be       	out	0x3f, r0	; 63
    3462:	cd bf       	out	0x3d, r28	; 61
    3464:	df 91       	pop	r29
    3466:	cf 91       	pop	r28
    3468:	1f 91       	pop	r17
    346a:	0f 91       	pop	r16
    346c:	ff 90       	pop	r15
    346e:	ef 90       	pop	r14
    3470:	df 90       	pop	r13
    3472:	cf 90       	pop	r12
    3474:	08 95       	ret
    JESLI_EEPROM_ZAJETY_WYKONAJ_POZNIEJ();
    3476:	80 91 db 07 	lds	r24, 0x07DB	; 0x8007db <bufor_pomoc_liczba_znakow_do_zapisu>
    347a:	81 11       	cpse	r24, r1
    347c:	0a c0       	rjmp	.+20     	; 0x3492 <wykonanie_komend_ukladow+0x10c>
    347e:	80 91 41 02 	lds	r24, 0x0241	; 0x800241 <liczba_znakow_do_zapisu>
    3482:	81 11       	cpse	r24, r1
    3484:	06 c0       	rjmp	.+12     	; 0x3492 <wykonanie_komend_ukladow+0x10c>
    3486:	80 91 dc 07 	lds	r24, 0x07DC	; 0x8007dc <czy_zajety_bufor_eeprom>
    348a:	81 11       	cpse	r24, r1
    348c:	02 c0       	rjmp	.+4      	; 0x3492 <wykonanie_komend_ukladow+0x10c>
    348e:	f9 9b       	sbis	0x1f, 1	; 31
    3490:	02 c0       	rjmp	.+4      	; 0x3496 <wykonanie_komend_ukladow+0x110>
    3492:	81 2f       	mov	r24, r17
    3494:	c1 cf       	rjmp	.-126    	; 0x3418 <wykonanie_komend_ukladow+0x92>
    const uchar nr_bloku =
    3496:	0d ef       	ldi	r16, 0xFD	; 253
    3498:	01 0f       	add	r16, r17
    memset(bufor_eeprom, 0xff, LICZBA_BAJTOW_ZAPISYWANA_W_JEDNEJ_KOMENDZIE);
    349a:	40 e2       	ldi	r20, 0x20	; 32
    349c:	50 e0       	ldi	r21, 0x00	; 0
    349e:	6f ef       	ldi	r22, 0xFF	; 255
    34a0:	70 e0       	ldi	r23, 0x00	; 0
    34a2:	8d ed       	ldi	r24, 0xDD	; 221
    34a4:	97 e0       	ldi	r25, 0x07	; 7
    34a6:	0e 94 46 2f 	call	0x5e8c	; 0x5e8c <memset>
    if (nr_bloku == 0) {
    34aa:	01 11       	cpse	r16, r1
    34ac:	20 c0       	rjmp	.+64     	; 0x34ee <wykonanie_komend_ukladow+0x168>
      kod_modulu[0] = bufor_eeprom[1] = 'A';
    34ae:	81 e4       	ldi	r24, 0x41	; 65
    34b0:	80 93 de 07 	sts	0x07DE, r24	; 0x8007de <bufor_eeprom+0x1>
    34b4:	80 93 6f 03 	sts	0x036F, r24	; 0x80036f <kod_modulu>
      kod_modulu[1] = bufor_eeprom[2] = 'B';
    34b8:	82 e4       	ldi	r24, 0x42	; 66
    34ba:	80 93 df 07 	sts	0x07DF, r24	; 0x8007df <bufor_eeprom+0x2>
    34be:	80 93 70 03 	sts	0x0370, r24	; 0x800370 <kod_modulu+0x1>
      kod_modulu[2] = bufor_eeprom[3] = 'C';
    34c2:	83 e4       	ldi	r24, 0x43	; 67
    34c4:	80 93 e0 07 	sts	0x07E0, r24	; 0x8007e0 <bufor_eeprom+0x3>
    34c8:	80 93 71 03 	sts	0x0371, r24	; 0x800371 <kod_modulu+0x2>
      kod_modulu[3] = bufor_eeprom[4] = 'D';
    34cc:	84 e4       	ldi	r24, 0x44	; 68
    34ce:	80 93 e1 07 	sts	0x07E1, r24	; 0x8007e1 <bufor_eeprom+0x4>
    34d2:	80 93 72 03 	sts	0x0372, r24	; 0x800372 <kod_modulu+0x3>
      bufor_eeprom[5] = 0;
    34d6:	10 92 e2 07 	sts	0x07E2, r1	; 0x8007e2 <bufor_eeprom+0x5>
      stan_wyjscie[0] = 0;
    34da:	10 92 42 02 	sts	0x0242, r1	; 0x800242 <stan_wyjscie>
      licznik_przelacznik_wyjscia[0] = 0;
    34de:	10 92 a5 03 	sts	0x03A5, r1	; 0x8003a5 <licznik_przelacznik_wyjscia>
    34e2:	10 92 a6 03 	sts	0x03A6, r1	; 0x8003a6 <licznik_przelacznik_wyjscia+0x1>
    34e6:	10 92 a7 03 	sts	0x03A7, r1	; 0x8003a7 <licznik_przelacznik_wyjscia+0x2>
    34ea:	10 92 a8 03 	sts	0x03A8, r1	; 0x8003a8 <licznik_przelacznik_wyjscia+0x3>
    zapisz_znaki_w_eeprom_bez_kopiowania(
    34ee:	60 e2       	ldi	r22, 0x20	; 32
    34f0:	20 e2       	ldi	r18, 0x20	; 32
    34f2:	02 9f       	mul	r16, r18
    34f4:	c0 01       	movw	r24, r0
    34f6:	11 24       	eor	r1, r1
    34f8:	0e 94 8d 29 	call	0x531a	; 0x531a <zapisz_znaki_w_eeprom_bez_kopiowania>
    dodaj_komende(KOMENDA_KOLEJKI_RESET_USTAWIEN_0 + nr_bloku + 1);
    34fc:	81 e0       	ldi	r24, 0x01	; 1
    34fe:	81 0f       	add	r24, r17
    3500:	0e 94 54 27 	call	0x4ea8	; 0x4ea8 <dodaj_komende>
    3504:	a5 cf       	rjmp	.-182    	; 0x3450 <wykonanie_komend_ukladow+0xca>
    JESLI_EEPROM_ZAJETY_WYKONAJ_POZNIEJ();
    3506:	80 91 db 07 	lds	r24, 0x07DB	; 0x8007db <bufor_pomoc_liczba_znakow_do_zapisu>
    350a:	81 11       	cpse	r24, r1
    350c:	0a c0       	rjmp	.+20     	; 0x3522 <wykonanie_komend_ukladow+0x19c>
    350e:	80 91 41 02 	lds	r24, 0x0241	; 0x800241 <liczba_znakow_do_zapisu>
    3512:	81 11       	cpse	r24, r1
    3514:	06 c0       	rjmp	.+12     	; 0x3522 <wykonanie_komend_ukladow+0x19c>
    3516:	f0 90 dc 07 	lds	r15, 0x07DC	; 0x8007dc <czy_zajety_bufor_eeprom>
    351a:	f1 10       	cpse	r15, r1
    351c:	02 c0       	rjmp	.+4      	; 0x3522 <wykonanie_komend_ukladow+0x19c>
    351e:	f9 9b       	sbis	0x1f, 1	; 31
    3520:	02 c0       	rjmp	.+4      	; 0x3526 <wykonanie_komend_ukladow+0x1a0>
    3522:	83 e8       	ldi	r24, 0x83	; 131
    3524:	79 cf       	rjmp	.-270    	; 0x3418 <wykonanie_komend_ukladow+0x92>
    for (uint i = 0; i < 6; ++i) {
    3526:	10 e0       	ldi	r17, 0x00	; 0
    3528:	00 e0       	ldi	r16, 0x00	; 0
      if (eeprom_read_byte((void *)i) !=
    352a:	c8 01       	movw	r24, r16
    352c:	0e 94 7e 32 	call	0x64fc	; 0x64fc <eeprom_read_byte>
          pgm_read_byte(tab_eeprom_fabryczny + i))
    3530:	f8 01       	movw	r30, r16
    3532:	ec 52       	subi	r30, 0x2C	; 44
    3534:	ff 4f       	sbci	r31, 0xFF	; 255
    3536:	e4 91       	lpm	r30, Z
      if (eeprom_read_byte((void *)i) !=
    3538:	8e 17       	cp	r24, r30
    353a:	11 f0       	breq	.+4      	; 0x3540 <wykonanie_komend_ukladow+0x1ba>
        bledny_zapis = TRUE;
    353c:	ff 24       	eor	r15, r15
    353e:	fa 94       	dec	r15
    for (uint i = 0; i < 6; ++i) {
    3540:	0f 5f       	subi	r16, 0xFF	; 255
    3542:	1f 4f       	sbci	r17, 0xFF	; 255
    3544:	06 30       	cpi	r16, 0x06	; 6
    3546:	11 05       	cpc	r17, r1
    3548:	81 f7       	brne	.-32     	; 0x352a <wykonanie_komend_ukladow+0x1a4>
    for (uint i = EEPROM_NUMER_TELEFONU_BRAMA_0;
    354a:	08 e0       	ldi	r16, 0x08	; 8
    354c:	10 e0       	ldi	r17, 0x00	; 0
      if (eeprom_read_byte((void *)i) != 0xff) {
    354e:	c8 01       	movw	r24, r16
    3550:	0e 94 7e 32 	call	0x64fc	; 0x64fc <eeprom_read_byte>
    3554:	8f 3f       	cpi	r24, 0xFF	; 255
    3556:	41 f4       	brne	.+16     	; 0x3568 <wykonanie_komend_ukladow+0x1e2>
         ++i) {
    3558:	0f 5f       	subi	r16, 0xFF	; 255
    355a:	1f 4f       	sbci	r17, 0xFF	; 255
    for (uint i = EEPROM_NUMER_TELEFONU_BRAMA_0;
    355c:	08 3a       	cpi	r16, 0xA8	; 168
    355e:	8f e0       	ldi	r24, 0x0F	; 15
    3560:	18 07       	cpc	r17, r24
    3562:	a9 f7       	brne	.-22     	; 0x354e <wykonanie_komend_ukladow+0x1c8>
    if (bledny_zapis) {
    3564:	ff 20       	and	r15, r15
    3566:	11 f0       	breq	.+4      	; 0x356c <wykonanie_komend_ukladow+0x1e6>
      dodaj_komende(KOMENDA_KOLEJKI_RESET_USTAWIEN_0);
    3568:	83 e0       	ldi	r24, 0x03	; 3
    356a:	56 cf       	rjmp	.-340    	; 0x3418 <wykonanie_komend_ukladow+0x92>
    inicjalizuj_parametry_modulu();
    356c:	0e 94 95 18 	call	0x312a	; 0x312a <inicjalizuj_parametry_modulu>
    ustaw_stan_led(FALSE); // Wylacz diode po zakonczeniu resetu
    3570:	40 9a       	sbi	0x08, 0	; 8
    3572:	71 cf       	rjmp	.-286    	; 0x3456 <wykonanie_komend_ukladow+0xd0>
    JESLI_EEPROM_ZAJETY_WYKONAJ_POZNIEJ();
    3574:	80 91 db 07 	lds	r24, 0x07DB	; 0x8007db <bufor_pomoc_liczba_znakow_do_zapisu>
    3578:	81 11       	cpse	r24, r1
    357a:	0a c0       	rjmp	.+20     	; 0x3590 <wykonanie_komend_ukladow+0x20a>
    357c:	80 91 41 02 	lds	r24, 0x0241	; 0x800241 <liczba_znakow_do_zapisu>
    3580:	81 11       	cpse	r24, r1
    3582:	06 c0       	rjmp	.+12     	; 0x3590 <wykonanie_komend_ukladow+0x20a>
    3584:	80 91 dc 07 	lds	r24, 0x07DC	; 0x8007dc <czy_zajety_bufor_eeprom>
    3588:	81 11       	cpse	r24, r1
    358a:	02 c0       	rjmp	.+4      	; 0x3590 <wykonanie_komend_ukladow+0x20a>
    358c:	f9 9b       	sbis	0x1f, 1	; 31
    358e:	02 c0       	rjmp	.+4      	; 0x3594 <wykonanie_komend_ukladow+0x20e>
    3590:	84 e8       	ldi	r24, 0x84	; 132
    3592:	42 cf       	rjmp	.-380    	; 0x3418 <wykonanie_komend_ukladow+0x92>
    if (blokada_sterowania_czasowa) {
    3594:	d0 90 3f 02 	lds	r13, 0x023F	; 0x80023f <blokada_sterowania_czasowa>
    3598:	d1 10       	cpse	r13, r1
    359a:	5d cf       	rjmp	.-326    	; 0x3456 <wykonanie_komend_ukladow+0xd0>
    strcpy((char *)numer_lokalny, (char *)numer_telefonu_ktory_dzwoni);
    359c:	8e 01       	movw	r16, r28
    359e:	0b 5e       	subi	r16, 0xEB	; 235
    35a0:	1f 4f       	sbci	r17, 0xFF	; 255
    35a2:	67 e8       	ldi	r22, 0x87	; 135
    35a4:	73 e0       	ldi	r23, 0x03	; 3
    35a6:	c8 01       	movw	r24, r16
    35a8:	0e 94 63 2f 	call	0x5ec6	; 0x5ec6 <strcpy>
        &numer_lokalny[0], &numer_lokalny[strlen((char *)numer_lokalny)],
    35ac:	f8 01       	movw	r30, r16
    35ae:	01 90       	ld	r0, Z+
    35b0:	00 20       	and	r0, r0
    35b2:	e9 f7       	brne	.-6      	; 0x35ae <wykonanie_komend_ukladow+0x228>
    35b4:	bf 01       	movw	r22, r30
    35b6:	61 50       	subi	r22, 0x01	; 1
    35b8:	71 09       	sbc	r23, r1
    konwertuj_telefon_na_blok_eeprom(
    35ba:	4d ed       	ldi	r20, 0xDD	; 221
    35bc:	57 e0       	ldi	r21, 0x07	; 7
    35be:	c8 01       	movw	r24, r16
    35c0:	0e 94 bf 27 	call	0x4f7e	; 0x4f7e <konwertuj_telefon_na_blok_eeprom>
    if (tryb_pracy != 1) {
    35c4:	80 91 00 01 	lds	r24, 0x0100	; 0x800100 <tryb_pracy>
    35c8:	81 30       	cpi	r24, 0x01	; 1
    35ca:	91 f0       	breq	.+36     	; 0x35f0 <wykonanie_komend_ukladow+0x26a>
    35cc:	38 e0       	ldi	r19, 0x08	; 8
    35ce:	e3 2e       	mov	r14, r19
    35d0:	f1 2c       	mov	r15, r1
        if (porownaj_numer_telefonu_blok(
    35d2:	b7 01       	movw	r22, r14
    35d4:	8d ed       	ldi	r24, 0xDD	; 221
    35d6:	97 e0       	ldi	r25, 0x07	; 7
    35d8:	0e 94 94 28 	call	0x5128	; 0x5128 <porownaj_numer_telefonu_blok>
    35dc:	81 11       	cpse	r24, r1
    35de:	5e c0       	rjmp	.+188    	; 0x369c <wykonanie_komend_ukladow+0x316>
    35e0:	f5 e0       	ldi	r31, 0x05	; 5
    35e2:	ef 0e       	add	r14, r31
    35e4:	f1 1c       	adc	r15, r1
      for (uint nr_uzyt_clip = 0;
    35e6:	28 ea       	ldi	r18, 0xA8	; 168
    35e8:	e2 16       	cp	r14, r18
    35ea:	2f e0       	ldi	r18, 0x0F	; 15
    35ec:	f2 06       	cpc	r15, r18
    35ee:	89 f7       	brne	.-30     	; 0x35d2 <wykonanie_komend_ukladow+0x24c>
    if (skryba_wlaczona && !znaleziono) {
    35f0:	80 91 f4 01 	lds	r24, 0x01F4	; 0x8001f4 <skryba_wlaczona>
    35f4:	88 23       	and	r24, r24
    35f6:	29 f0       	breq	.+10     	; 0x3602 <wykonanie_komend_ukladow+0x27c>
    35f8:	dd 20       	and	r13, r13
    35fa:	09 f4       	brne	.+2      	; 0x35fe <wykonanie_komend_ukladow+0x278>
    35fc:	52 c0       	rjmp	.+164    	; 0x36a2 <wykonanie_komend_ukladow+0x31c>
    35fe:	dd 24       	eor	r13, r13
    3600:	da 94       	dec	r13
    zapisz_znak_w_eeprom(skryba_wlaczona ? 1 : 0,
    3602:	81 e0       	ldi	r24, 0x01	; 1
    3604:	90 91 f4 01 	lds	r25, 0x01F4	; 0x8001f4 <skryba_wlaczona>
    3608:	91 11       	cpse	r25, r1
    360a:	01 c0       	rjmp	.+2      	; 0x360e <wykonanie_komend_ukladow+0x288>
    360c:	80 e0       	ldi	r24, 0x00	; 0
    360e:	61 ef       	ldi	r22, 0xF1	; 241
    3610:	7f e0       	ldi	r23, 0x0F	; 15
    3612:	0e 94 91 29 	call	0x5322	; 0x5322 <zapisz_znak_w_eeprom>
    zapisz_znak_w_eeprom(znaleziono ? 0 : 1,
    3616:	81 e0       	ldi	r24, 0x01	; 1
    3618:	d1 10       	cpse	r13, r1
    361a:	80 e0       	ldi	r24, 0x00	; 0
    361c:	62 ef       	ldi	r22, 0xF2	; 242
    361e:	7f e0       	ldi	r23, 0x0F	; 15
    3620:	0e 94 91 29 	call	0x5322	; 0x5322 <zapisz_znak_w_eeprom>
    if (skryba_wlaczona && !znaleziono) {
    3624:	80 91 f4 01 	lds	r24, 0x01F4	; 0x8001f4 <skryba_wlaczona>
    3628:	88 23       	and	r24, r24
    362a:	59 f1       	breq	.+86     	; 0x3682 <wykonanie_komend_ukladow+0x2fc>
    362c:	d1 10       	cpse	r13, r1
    362e:	29 c0       	rjmp	.+82     	; 0x3682 <wykonanie_komend_ukladow+0x2fc>
      uchar len_full = strlen((char *)numer_lokalny);
    3630:	f8 01       	movw	r30, r16
    3632:	01 90       	ld	r0, Z+
    3634:	00 20       	and	r0, r0
    3636:	e9 f7       	brne	.-6      	; 0x3632 <wykonanie_komend_ukladow+0x2ac>
    3638:	31 97       	sbiw	r30, 0x01	; 1
    363a:	cf 01       	movw	r24, r30
    363c:	80 1b       	sub	r24, r16
    363e:	91 0b       	sbc	r25, r17
    3640:	18 2f       	mov	r17, r24
      zapisz_znak_w_eeprom(len_full, ADRES_EEPROM_DEBUG_SKRYBA_5);
    3642:	64 ef       	ldi	r22, 0xF4	; 244
    3644:	7f e0       	ldi	r23, 0x0F	; 15
    3646:	0e 94 91 29 	call	0x5322	; 0x5322 <zapisz_znak_w_eeprom>
      if (len_full >= 3) {
    364a:	13 30       	cpi	r17, 0x03	; 3
    364c:	d0 f0       	brcs	.+52     	; 0x3682 <wykonanie_komend_ukladow+0x2fc>
        strcpy((char *)numer_telefonu_skryba, (char *)numer_skrocony);
    364e:	be 01       	movw	r22, r28
    3650:	6f 5f       	subi	r22, 0xFF	; 255
    3652:	7f 4f       	sbci	r23, 0xFF	; 255
    3654:	83 e7       	ldi	r24, 0x73	; 115
    3656:	93 e0       	ldi	r25, 0x03	; 3
    3658:	0e 94 63 2f 	call	0x5ec6	; 0x5ec6 <strcpy>
        if (strlen((char *)numer_telefonu_skryba) >= 3) {
    365c:	83 e7       	ldi	r24, 0x73	; 115
    365e:	93 e0       	ldi	r25, 0x03	; 3
    3660:	fc 01       	movw	r30, r24
    3662:	01 90       	ld	r0, Z+
    3664:	00 20       	and	r0, r0
    3666:	e9 f7       	brne	.-6      	; 0x3662 <wykonanie_komend_ukladow+0x2dc>
    3668:	cf 01       	movw	r24, r30
    366a:	84 57       	subi	r24, 0x74	; 116
    366c:	93 40       	sbci	r25, 0x03	; 3
    366e:	03 97       	sbiw	r24, 0x03	; 3
    3670:	40 f0       	brcs	.+16     	; 0x3682 <wykonanie_komend_ukladow+0x2fc>
          zapisz_znak_w_eeprom(
    3672:	63 ef       	ldi	r22, 0xF3	; 243
    3674:	7f e0       	ldi	r23, 0x0F	; 15
    3676:	81 e0       	ldi	r24, 0x01	; 1
    3678:	0e 94 91 29 	call	0x5322	; 0x5322 <zapisz_znak_w_eeprom>
          dodaj_komende(KOMENDA_KOLEJKI_DODAJ_UZYTKOWNIKA_SKRYBA);
    367c:	86 e8       	ldi	r24, 0x86	; 134
    367e:	0e 94 54 27 	call	0x4ea8	; 0x4ea8 <dodaj_komende>
    if (tryb_clip) {
    3682:	80 91 01 01 	lds	r24, 0x0101	; 0x800101 <tryb_clip>
    3686:	88 23       	and	r24, r24
    3688:	09 f4       	brne	.+2      	; 0x368c <wykonanie_komend_ukladow+0x306>
    368a:	e5 ce       	rjmp	.-566    	; 0x3456 <wykonanie_komend_ukladow+0xd0>
      if (tryb_pracy == 1) {
    368c:	80 91 00 01 	lds	r24, 0x0100	; 0x800100 <tryb_pracy>
    3690:	81 30       	cpi	r24, 0x01	; 1
    3692:	09 f0       	breq	.+2      	; 0x3696 <wykonanie_komend_ukladow+0x310>
    3694:	3f c0       	rjmp	.+126    	; 0x3714 <wykonanie_komend_ukladow+0x38e>
        ustaw_wyjscie_clip();
    3696:	0e 94 7c 06 	call	0xcf8	; 0xcf8 <ustaw_wyjscie_clip>
    369a:	dd ce       	rjmp	.-582    	; 0x3456 <wykonanie_komend_ukladow+0xd0>
          znaleziono = TRUE;
    369c:	dd 24       	eor	r13, r13
    369e:	da 94       	dec	r13
    36a0:	a7 cf       	rjmp	.-178    	; 0x35f0 <wykonanie_komend_ukladow+0x26a>
  uchar len = strlen((char *)numer_pelny);
    36a2:	f8 01       	movw	r30, r16
    36a4:	01 90       	ld	r0, Z+
    36a6:	00 20       	and	r0, r0
    36a8:	e9 f7       	brne	.-6      	; 0x36a4 <wykonanie_komend_ukladow+0x31e>
    36aa:	31 97       	sbiw	r30, 0x01	; 1
    36ac:	e0 1b       	sub	r30, r16
    36ae:	f1 0b       	sbc	r31, r17
    36b0:	ce 01       	movw	r24, r28
    36b2:	01 96       	adiw	r24, 0x01	; 1
    36b4:	7c 01       	movw	r14, r24
  if (len > max_digits) {
    36b6:	ea 30       	cpi	r30, 0x0A	; 10
    36b8:	58 f1       	brcs	.+86     	; 0x3710 <wykonanie_komend_ukladow+0x38a>
    strcpy((char *)numer_skrocony, (char *)numer_pelny + (len - max_digits));
    36ba:	e9 50       	subi	r30, 0x09	; 9
    36bc:	ff 0b       	sbc	r31, r31
    36be:	b8 01       	movw	r22, r16
    36c0:	6e 0f       	add	r22, r30
    36c2:	7f 1f       	adc	r23, r31
    strcpy((char *)numer_skrocony, (char *)numer_pelny);
    36c4:	0e 94 63 2f 	call	0x5ec6	; 0x5ec6 <strcpy>
          &numer_skrocony[0], &numer_skrocony[strlen((char *)numer_skrocony)],
    36c8:	f7 01       	movw	r30, r14
    36ca:	01 90       	ld	r0, Z+
    36cc:	00 20       	and	r0, r0
    36ce:	e9 f7       	brne	.-6      	; 0x36ca <wykonanie_komend_ukladow+0x344>
    36d0:	bf 01       	movw	r22, r30
    36d2:	61 50       	subi	r22, 0x01	; 1
    36d4:	71 09       	sbc	r23, r1
      konwertuj_telefon_na_blok_eeprom(
    36d6:	4d ed       	ldi	r20, 0xDD	; 221
    36d8:	57 e0       	ldi	r21, 0x07	; 7
    36da:	c7 01       	movw	r24, r14
    36dc:	0e 94 bf 27 	call	0x4f7e	; 0x4f7e <konwertuj_telefon_na_blok_eeprom>
      if (tryb_pracy != 1) {
    36e0:	80 91 00 01 	lds	r24, 0x0100	; 0x800100 <tryb_pracy>
    36e4:	81 30       	cpi	r24, 0x01	; 1
    36e6:	09 f4       	brne	.+2      	; 0x36ea <wykonanie_komend_ukladow+0x364>
    36e8:	8c cf       	rjmp	.-232    	; 0x3602 <wykonanie_komend_ukladow+0x27c>
    36ea:	28 e0       	ldi	r18, 0x08	; 8
    36ec:	e2 2e       	mov	r14, r18
    36ee:	f1 2c       	mov	r15, r1
          if (porownaj_numer_telefonu_blok(
    36f0:	b7 01       	movw	r22, r14
    36f2:	8d ed       	ldi	r24, 0xDD	; 221
    36f4:	97 e0       	ldi	r25, 0x07	; 7
    36f6:	0e 94 94 28 	call	0x5128	; 0x5128 <porownaj_numer_telefonu_blok>
    36fa:	81 11       	cpse	r24, r1
    36fc:	80 cf       	rjmp	.-256    	; 0x35fe <wykonanie_komend_ukladow+0x278>
    36fe:	f5 e0       	ldi	r31, 0x05	; 5
    3700:	ef 0e       	add	r14, r31
    3702:	f1 1c       	adc	r15, r1
        for (uint nr_uzyt_clip = 0;
    3704:	28 ea       	ldi	r18, 0xA8	; 168
    3706:	e2 16       	cp	r14, r18
    3708:	2f e0       	ldi	r18, 0x0F	; 15
    370a:	f2 06       	cpc	r15, r18
    370c:	89 f7       	brne	.-30     	; 0x36f0 <wykonanie_komend_ukladow+0x36a>
    370e:	79 cf       	rjmp	.-270    	; 0x3602 <wykonanie_komend_ukladow+0x27c>
    strcpy((char *)numer_skrocony, (char *)numer_pelny);
    3710:	b8 01       	movw	r22, r16
    3712:	d8 cf       	rjmp	.-80     	; 0x36c4 <wykonanie_komend_ukladow+0x33e>
      } else if (znaleziono) {
    3714:	dd 20       	and	r13, r13
    3716:	09 f4       	brne	.+2      	; 0x371a <wykonanie_komend_ukladow+0x394>
    3718:	9e ce       	rjmp	.-708    	; 0x3456 <wykonanie_komend_ukladow+0xd0>
    371a:	bd cf       	rjmp	.-134    	; 0x3696 <wykonanie_komend_ukladow+0x310>
    JESLI_EEPROM_ZAJETY_WYKONAJ_POZNIEJ();
    371c:	80 91 db 07 	lds	r24, 0x07DB	; 0x8007db <bufor_pomoc_liczba_znakow_do_zapisu>
    3720:	81 11       	cpse	r24, r1
    3722:	0a c0       	rjmp	.+20     	; 0x3738 <wykonanie_komend_ukladow+0x3b2>
    3724:	80 91 41 02 	lds	r24, 0x0241	; 0x800241 <liczba_znakow_do_zapisu>
    3728:	81 11       	cpse	r24, r1
    372a:	06 c0       	rjmp	.+12     	; 0x3738 <wykonanie_komend_ukladow+0x3b2>
    372c:	80 91 dc 07 	lds	r24, 0x07DC	; 0x8007dc <czy_zajety_bufor_eeprom>
    3730:	81 11       	cpse	r24, r1
    3732:	02 c0       	rjmp	.+4      	; 0x3738 <wykonanie_komend_ukladow+0x3b2>
    3734:	f9 9b       	sbis	0x1f, 1	; 31
    3736:	02 c0       	rjmp	.+4      	; 0x373c <wykonanie_komend_ukladow+0x3b6>
    3738:	85 e8       	ldi	r24, 0x85	; 133
    373a:	6e ce       	rjmp	.-804    	; 0x3418 <wykonanie_komend_ukladow+0x92>
    if (czy_numer_istnieje(numer_telefonu_do_ktorego_dzwonic)) {
    373c:	8b e4       	ldi	r24, 0x4B	; 75
    373e:	93 e0       	ldi	r25, 0x03	; 3
    3740:	0e 94 39 03 	call	0x672	; 0x672 <czy_numer_istnieje>
    3744:	81 11       	cpse	r24, r1
    3746:	87 ce       	rjmp	.-754    	; 0x3456 <wykonanie_komend_ukladow+0xd0>
        &numer_telefonu_do_ktorego_dzwonic[strlen(
    3748:	6b e4       	ldi	r22, 0x4B	; 75
    374a:	73 e0       	ldi	r23, 0x03	; 3
    374c:	fb 01       	movw	r30, r22
    374e:	01 90       	ld	r0, Z+
    3750:	00 20       	and	r0, r0
    3752:	e9 f7       	brne	.-6      	; 0x374e <wykonanie_komend_ukladow+0x3c8>
    3754:	bf 01       	movw	r22, r30
    3756:	61 50       	subi	r22, 0x01	; 1
    3758:	71 09       	sbc	r23, r1
    konwertuj_telefon_na_blok_eeprom(
    375a:	4d ed       	ldi	r20, 0xDD	; 221
    375c:	57 e0       	ldi	r21, 0x07	; 7
    375e:	8b e4       	ldi	r24, 0x4B	; 75
    3760:	93 e0       	ldi	r25, 0x03	; 3
    3762:	0e 94 bf 27 	call	0x4f7e	; 0x4f7e <konwertuj_telefon_na_blok_eeprom>
    uint max_pozycja = (skryba_limit < 795) ? skryba_limit : 795;
    3766:	e0 90 02 01 	lds	r14, 0x0102	; 0x800102 <skryba_limit>
    376a:	f0 90 03 01 	lds	r15, 0x0103	; 0x800103 <skryba_limit+0x1>
    376e:	fc e1       	ldi	r31, 0x1C	; 28
    3770:	ef 16       	cp	r14, r31
    3772:	f3 e0       	ldi	r31, 0x03	; 3
    3774:	ff 06       	cpc	r15, r31
    3776:	20 f0       	brcs	.+8      	; 0x3780 <wykonanie_komend_ukladow+0x3fa>
    3778:	9b e1       	ldi	r25, 0x1B	; 27
    377a:	e9 2e       	mov	r14, r25
    377c:	93 e0       	ldi	r25, 0x03	; 3
    377e:	f9 2e       	mov	r15, r25
    for (uint nr_uzyt_clip = 0; nr_uzyt_clip < max_pozycja; ++nr_uzyt_clip) {
    3780:	08 e0       	ldi	r16, 0x08	; 8
    3782:	10 e0       	ldi	r17, 0x00	; 0
    3784:	d1 2c       	mov	r13, r1
    3786:	c1 2c       	mov	r12, r1
    3788:	ce 14       	cp	r12, r14
    378a:	df 04       	cpc	r13, r15
    378c:	09 f4       	brne	.+2      	; 0x3790 <wykonanie_komend_ukladow+0x40a>
    378e:	63 ce       	rjmp	.-826    	; 0x3456 <wykonanie_komend_ukladow+0xd0>
      if (not czy_aktywny_numer_telefonu_brama(nr_uzyt_clip)) {
    3790:	c8 01       	movw	r24, r16
    3792:	0e 94 7e 32 	call	0x64fc	; 0x64fc <eeprom_read_byte>
    3796:	98 01       	movw	r18, r16
    3798:	2b 5f       	subi	r18, 0xFB	; 251
    379a:	3f 4f       	sbci	r19, 0xFF	; 255
    379c:	8f 3f       	cpi	r24, 0xFF	; 255
    379e:	91 f5       	brne	.+100    	; 0x3804 <wykonanie_komend_ukladow+0x47e>
        zapisz_znaki_w_eeprom_bez_kopiowania(
    37a0:	65 e0       	ldi	r22, 0x05	; 5
    37a2:	c8 01       	movw	r24, r16
    37a4:	0e 94 8d 29 	call	0x531a	; 0x531a <zapisz_znaki_w_eeprom_bez_kopiowania>
    if (dodano && skryba_wlaczona) {
    37a8:	80 91 f4 01 	lds	r24, 0x01F4	; 0x8001f4 <skryba_wlaczona>
    37ac:	08 e0       	ldi	r16, 0x08	; 8
    37ae:	10 e0       	ldi	r17, 0x00	; 0
      uint aktywne_numery = 0;
    37b0:	f1 2c       	mov	r15, r1
    37b2:	e1 2c       	mov	r14, r1
    if (dodano && skryba_wlaczona) {
    37b4:	88 23       	and	r24, r24
    37b6:	09 f4       	brne	.+2      	; 0x37ba <wykonanie_komend_ukladow+0x434>
    37b8:	4e ce       	rjmp	.-868    	; 0x3456 <wykonanie_komend_ukladow+0xd0>
        if (czy_aktywny_numer_telefonu_brama(i)) {
    37ba:	c8 01       	movw	r24, r16
    37bc:	0e 94 7e 32 	call	0x64fc	; 0x64fc <eeprom_read_byte>
    37c0:	8f 3f       	cpi	r24, 0xFF	; 255
    37c2:	19 f0       	breq	.+6      	; 0x37ca <wykonanie_komend_ukladow+0x444>
          ++aktywne_numery;
    37c4:	9f ef       	ldi	r25, 0xFF	; 255
    37c6:	e9 1a       	sub	r14, r25
    37c8:	f9 0a       	sbc	r15, r25
    37ca:	0b 5f       	subi	r16, 0xFB	; 251
    37cc:	1f 4f       	sbci	r17, 0xFF	; 255
      for (uint i = 0; i < MAX_LICZBA_NUMEROW_TELEFONOW_BRAMA; ++i) {
    37ce:	08 3a       	cpi	r16, 0xA8	; 168
    37d0:	ef e0       	ldi	r30, 0x0F	; 15
    37d2:	1e 07       	cpc	r17, r30
    37d4:	91 f7       	brne	.-28     	; 0x37ba <wykonanie_komend_ukladow+0x434>
      if (aktywne_numery >= skryba_limit) {
    37d6:	80 91 02 01 	lds	r24, 0x0102	; 0x800102 <skryba_limit>
    37da:	90 91 03 01 	lds	r25, 0x0103	; 0x800103 <skryba_limit+0x1>
    37de:	e8 16       	cp	r14, r24
    37e0:	f9 06       	cpc	r15, r25
    37e2:	08 f4       	brcc	.+2      	; 0x37e6 <wykonanie_komend_ukladow+0x460>
    37e4:	38 ce       	rjmp	.-912    	; 0x3456 <wykonanie_komend_ukladow+0xd0>
        skryba_wlaczona = FALSE;
    37e6:	10 92 f4 01 	sts	0x01F4, r1	; 0x8001f4 <skryba_wlaczona>
        zapisz_znak_w_eeprom(0, ADRES_EEPROM_SKRYBA);
    37ea:	69 ef       	ldi	r22, 0xF9	; 249
    37ec:	7f e0       	ldi	r23, 0x0F	; 15
    37ee:	80 e0       	ldi	r24, 0x00	; 0
    37f0:	0e 94 91 29 	call	0x5322	; 0x5322 <zapisz_znak_w_eeprom>
        tryb_pracy = 0; // Prywatny
    37f4:	10 92 00 01 	sts	0x0100, r1	; 0x800100 <tryb_pracy>
        zapisz_znak_w_eeprom(0, ADRES_EEPROM_TRYB_PRACY);
    37f8:	6e ef       	ldi	r22, 0xFE	; 254
    37fa:	7f e0       	ldi	r23, 0x0F	; 15
    37fc:	80 e0       	ldi	r24, 0x00	; 0
    37fe:	0e 94 91 29 	call	0x5322	; 0x5322 <zapisz_znak_w_eeprom>
    3802:	29 ce       	rjmp	.-942    	; 0x3456 <wykonanie_komend_ukladow+0xd0>
    for (uint nr_uzyt_clip = 0; nr_uzyt_clip < max_pozycja; ++nr_uzyt_clip) {
    3804:	8f ef       	ldi	r24, 0xFF	; 255
    3806:	c8 1a       	sub	r12, r24
    3808:	d8 0a       	sbc	r13, r24
    380a:	89 01       	movw	r16, r18
    380c:	bd cf       	rjmp	.-134    	; 0x3788 <wykonanie_komend_ukladow+0x402>
    JESLI_EEPROM_ZAJETY_WYKONAJ_POZNIEJ();
    380e:	80 91 db 07 	lds	r24, 0x07DB	; 0x8007db <bufor_pomoc_liczba_znakow_do_zapisu>
    3812:	81 11       	cpse	r24, r1
    3814:	0a c0       	rjmp	.+20     	; 0x382a <wykonanie_komend_ukladow+0x4a4>
    3816:	80 91 41 02 	lds	r24, 0x0241	; 0x800241 <liczba_znakow_do_zapisu>
    381a:	81 11       	cpse	r24, r1
    381c:	06 c0       	rjmp	.+12     	; 0x382a <wykonanie_komend_ukladow+0x4a4>
    381e:	80 91 dc 07 	lds	r24, 0x07DC	; 0x8007dc <czy_zajety_bufor_eeprom>
    3822:	81 11       	cpse	r24, r1
    3824:	02 c0       	rjmp	.+4      	; 0x382a <wykonanie_komend_ukladow+0x4a4>
    3826:	f9 9b       	sbis	0x1f, 1	; 31
    3828:	02 c0       	rjmp	.+4      	; 0x382e <wykonanie_komend_ukladow+0x4a8>
    382a:	86 e8       	ldi	r24, 0x86	; 134
    382c:	f5 cd       	rjmp	.-1046   	; 0x3418 <wykonanie_komend_ukladow+0x92>
        &numer_telefonu_skryba[strlen((char *)numer_telefonu_skryba)],
    382e:	63 e7       	ldi	r22, 0x73	; 115
    3830:	73 e0       	ldi	r23, 0x03	; 3
    3832:	fb 01       	movw	r30, r22
    3834:	01 90       	ld	r0, Z+
    3836:	00 20       	and	r0, r0
    3838:	e9 f7       	brne	.-6      	; 0x3834 <wykonanie_komend_ukladow+0x4ae>
    383a:	bf 01       	movw	r22, r30
    383c:	61 50       	subi	r22, 0x01	; 1
    383e:	71 09       	sbc	r23, r1
    konwertuj_telefon_na_blok_eeprom(
    3840:	ae 01       	movw	r20, r28
    3842:	4f 5f       	subi	r20, 0xFF	; 255
    3844:	5f 4f       	sbci	r21, 0xFF	; 255
    3846:	83 e7       	ldi	r24, 0x73	; 115
    3848:	93 e0       	ldi	r25, 0x03	; 3
    384a:	0e 94 bf 27 	call	0x4f7e	; 0x4f7e <konwertuj_telefon_na_blok_eeprom>
    if (czy_numer_istnieje(numer_telefonu_skryba)) {
    384e:	83 e7       	ldi	r24, 0x73	; 115
    3850:	93 e0       	ldi	r25, 0x03	; 3
    3852:	0e 94 39 03 	call	0x672	; 0x672 <czy_numer_istnieje>
    3856:	81 11       	cpse	r24, r1
    3858:	fe cd       	rjmp	.-1028   	; 0x3456 <wykonanie_komend_ukladow+0xd0>
    memcpy(bufor_eeprom, bufor_skryba, LICZBA_BAJTOW_NUMERU_TELEFONU_W_EEPROM);
    385a:	85 e0       	ldi	r24, 0x05	; 5
    385c:	fe 01       	movw	r30, r28
    385e:	31 96       	adiw	r30, 0x01	; 1
    3860:	ad ed       	ldi	r26, 0xDD	; 221
    3862:	b7 e0       	ldi	r27, 0x07	; 7
    3864:	01 90       	ld	r0, Z+
    3866:	0d 92       	st	X+, r0
    3868:	8a 95       	dec	r24
    386a:	e1 f7       	brne	.-8      	; 0x3864 <wykonanie_komend_ukladow+0x4de>
    386c:	08 e0       	ldi	r16, 0x08	; 8
    386e:	10 e0       	ldi	r17, 0x00	; 0
      if (not czy_aktywny_numer_telefonu_brama(nr_uzyt_clip)) {
    3870:	c8 01       	movw	r24, r16
    3872:	0e 94 7e 32 	call	0x64fc	; 0x64fc <eeprom_read_byte>
    3876:	8f 3f       	cpi	r24, 0xFF	; 255
    3878:	e1 f4       	brne	.+56     	; 0x38b2 <wykonanie_komend_ukladow+0x52c>
        zapisz_znaki_w_eeprom_bez_kopiowania(
    387a:	65 e0       	ldi	r22, 0x05	; 5
    387c:	c8 01       	movw	r24, r16
    387e:	0e 94 8d 29 	call	0x531a	; 0x531a <zapisz_znaki_w_eeprom_bez_kopiowania>
    if (dodano && skryba_wlaczona) {
    3882:	80 91 f4 01 	lds	r24, 0x01F4	; 0x8001f4 <skryba_wlaczona>
    3886:	08 e0       	ldi	r16, 0x08	; 8
    3888:	10 e0       	ldi	r17, 0x00	; 0
      uint aktywne_numery = 0;
    388a:	f1 2c       	mov	r15, r1
    388c:	e1 2c       	mov	r14, r1
    if (dodano && skryba_wlaczona) {
    388e:	88 23       	and	r24, r24
    3890:	09 f4       	brne	.+2      	; 0x3894 <wykonanie_komend_ukladow+0x50e>
    3892:	e1 cd       	rjmp	.-1086   	; 0x3456 <wykonanie_komend_ukladow+0xd0>
        if (czy_aktywny_numer_telefonu_brama(i)) {
    3894:	c8 01       	movw	r24, r16
    3896:	0e 94 7e 32 	call	0x64fc	; 0x64fc <eeprom_read_byte>
    389a:	8f 3f       	cpi	r24, 0xFF	; 255
    389c:	19 f0       	breq	.+6      	; 0x38a4 <wykonanie_komend_ukladow+0x51e>
          ++aktywne_numery;
    389e:	2f ef       	ldi	r18, 0xFF	; 255
    38a0:	e2 1a       	sub	r14, r18
    38a2:	f2 0a       	sbc	r15, r18
    38a4:	0b 5f       	subi	r16, 0xFB	; 251
    38a6:	1f 4f       	sbci	r17, 0xFF	; 255
      for (uint i = 0; i < MAX_LICZBA_NUMEROW_TELEFONOW_BRAMA; ++i) {
    38a8:	08 3a       	cpi	r16, 0xA8	; 168
    38aa:	8f e0       	ldi	r24, 0x0F	; 15
    38ac:	18 07       	cpc	r17, r24
    38ae:	91 f7       	brne	.-28     	; 0x3894 <wykonanie_komend_ukladow+0x50e>
    38b0:	92 cf       	rjmp	.-220    	; 0x37d6 <wykonanie_komend_ukladow+0x450>
    38b2:	0b 5f       	subi	r16, 0xFB	; 251
    38b4:	1f 4f       	sbci	r17, 0xFF	; 255
    for (uint nr_uzyt_clip = 0;
    38b6:	08 3a       	cpi	r16, 0xA8	; 168
    38b8:	ff e0       	ldi	r31, 0x0F	; 15
    38ba:	1f 07       	cpc	r17, r31
    38bc:	c9 f6       	brne	.-78     	; 0x3870 <wykonanie_komend_ukladow+0x4ea>
    38be:	cb cd       	rjmp	.-1130   	; 0x3456 <wykonanie_komend_ukladow+0xd0>
    JESLI_EEPROM_ZAJETY_WYKONAJ_POZNIEJ();
    38c0:	80 91 db 07 	lds	r24, 0x07DB	; 0x8007db <bufor_pomoc_liczba_znakow_do_zapisu>
    38c4:	81 11       	cpse	r24, r1
    38c6:	0a c0       	rjmp	.+20     	; 0x38dc <wykonanie_komend_ukladow+0x556>
    38c8:	80 91 41 02 	lds	r24, 0x0241	; 0x800241 <liczba_znakow_do_zapisu>
    38cc:	81 11       	cpse	r24, r1
    38ce:	06 c0       	rjmp	.+12     	; 0x38dc <wykonanie_komend_ukladow+0x556>
    38d0:	80 91 dc 07 	lds	r24, 0x07DC	; 0x8007dc <czy_zajety_bufor_eeprom>
    38d4:	81 11       	cpse	r24, r1
    38d6:	02 c0       	rjmp	.+4      	; 0x38dc <wykonanie_komend_ukladow+0x556>
    38d8:	f9 9b       	sbis	0x1f, 1	; 31
    38da:	02 c0       	rjmp	.+4      	; 0x38e0 <wykonanie_komend_ukladow+0x55a>
    38dc:	87 e8       	ldi	r24, 0x87	; 135
    38de:	9c cd       	rjmp	.-1224   	; 0x3418 <wykonanie_komend_ukladow+0x92>
        &numer_telefonu_do_ktorego_dzwonic[strlen(
    38e0:	6b e4       	ldi	r22, 0x4B	; 75
    38e2:	73 e0       	ldi	r23, 0x03	; 3
    38e4:	fb 01       	movw	r30, r22
    38e6:	01 90       	ld	r0, Z+
    38e8:	00 20       	and	r0, r0
    38ea:	e9 f7       	brne	.-6      	; 0x38e6 <wykonanie_komend_ukladow+0x560>
    38ec:	bf 01       	movw	r22, r30
    38ee:	61 50       	subi	r22, 0x01	; 1
    38f0:	71 09       	sbc	r23, r1
    konwertuj_telefon_na_blok_eeprom(
    38f2:	ae 01       	movw	r20, r28
    38f4:	4f 5f       	subi	r20, 0xFF	; 255
    38f6:	5f 4f       	sbci	r21, 0xFF	; 255
    38f8:	8b e4       	ldi	r24, 0x4B	; 75
    38fa:	93 e0       	ldi	r25, 0x03	; 3
    38fc:	0e 94 bf 27 	call	0x4f7e	; 0x4f7e <konwertuj_telefon_na_blok_eeprom>
    if (czy_numer_istnieje(numer_telefonu_do_ktorego_dzwonic)) {
    3900:	8b e4       	ldi	r24, 0x4B	; 75
    3902:	93 e0       	ldi	r25, 0x03	; 3
    3904:	0e 94 39 03 	call	0x672	; 0x672 <czy_numer_istnieje>
    3908:	d8 2e       	mov	r13, r24
    390a:	88 23       	and	r24, r24
    390c:	69 f0       	breq	.+26     	; 0x3928 <wykonanie_komend_ukladow+0x5a2>
      strcpy((char *)numer_telefonu_wysylanego_smsa,
    390e:	6a e3       	ldi	r22, 0x3A	; 58
    3910:	73 e0       	ldi	r23, 0x03	; 3
    3912:	80 e5       	ldi	r24, 0x50	; 80
    3914:	92 e0       	ldi	r25, 0x02	; 2
    3916:	0e 94 63 2f 	call	0x5ec6	; 0x5ec6 <strcpy>
      strcpy_P((char *)tekst_wysylanego_smsa,
    391a:	66 eb       	ldi	r22, 0xB6	; 182
    391c:	70 e0       	ldi	r23, 0x00	; 0
      strcpy_P((char *)tekst_wysylanego_smsa,
    391e:	89 e6       	ldi	r24, 0x69	; 105
    3920:	95 e0       	ldi	r25, 0x05	; 5
    3922:	0e 94 e9 2e 	call	0x5dd2	; 0x5dd2 <strcpy_P>
    3926:	36 c0       	rjmp	.+108    	; 0x3994 <wykonanie_komend_ukladow+0x60e>
    memcpy(bufor_eeprom, bufor_super, LICZBA_BAJTOW_NUMERU_TELEFONU_W_EEPROM);
    3928:	85 e0       	ldi	r24, 0x05	; 5
    392a:	fe 01       	movw	r30, r28
    392c:	31 96       	adiw	r30, 0x01	; 1
    392e:	ad ed       	ldi	r26, 0xDD	; 221
    3930:	b7 e0       	ldi	r27, 0x07	; 7
    3932:	01 90       	ld	r0, Z+
    3934:	0d 92       	st	X+, r0
    3936:	8a 95       	dec	r24
    3938:	e1 f7       	brne	.-8      	; 0x3932 <wykonanie_komend_ukladow+0x5ac>
    393a:	8a e8       	ldi	r24, 0x8A	; 138
    393c:	e8 2e       	mov	r14, r24
    393e:	8f e0       	ldi	r24, 0x0F	; 15
    3940:	f8 2e       	mov	r15, r24
    for (uint nr_uzyt = 794; nr_uzyt < MAX_LICZBA_NUMEROW_TELEFONOW_BRAMA;
    3942:	0a e1       	ldi	r16, 0x1A	; 26
    3944:	13 e0       	ldi	r17, 0x03	; 3
      if (not czy_aktywny_numer_telefonu_brama(nr_uzyt)) {
    3946:	c7 01       	movw	r24, r14
    3948:	0e 94 7e 32 	call	0x64fc	; 0x64fc <eeprom_read_byte>
    394c:	0f 5f       	subi	r16, 0xFF	; 255
    394e:	1f 4f       	sbci	r17, 0xFF	; 255
    3950:	8f 3f       	cpi	r24, 0xFF	; 255
    3952:	11 f5       	brne	.+68     	; 0x3998 <wykonanie_komend_ukladow+0x612>
        zapisz_znaki_w_eeprom_bez_kopiowania(
    3954:	65 e0       	ldi	r22, 0x05	; 5
    3956:	c7 01       	movw	r24, r14
    3958:	0e 94 8d 29 	call	0x531a	; 0x531a <zapisz_znaki_w_eeprom_bez_kopiowania>
        dodano = TRUE;
    395c:	dd 24       	eor	r13, r13
    395e:	da 94       	dec	r13
    strcpy((char *)numer_telefonu_wysylanego_smsa,
    3960:	6a e3       	ldi	r22, 0x3A	; 58
    3962:	73 e0       	ldi	r23, 0x03	; 3
    3964:	80 e5       	ldi	r24, 0x50	; 80
    3966:	92 e0       	ldi	r25, 0x02	; 2
    3968:	0e 94 63 2f 	call	0x5ec6	; 0x5ec6 <strcpy>
    if (dodano) {
    396c:	dd 20       	and	r13, r13
    396e:	f1 f0       	breq	.+60     	; 0x39ac <wykonanie_komend_ukladow+0x626>
      sprintf((char *)tekst_wysylanego_smsa, "Super User dodany na pozycji %u",
    3970:	1f 93       	push	r17
    3972:	0f 93       	push	r16
    3974:	8f eb       	ldi	r24, 0xBF	; 191
    3976:	91 e0       	ldi	r25, 0x01	; 1
    3978:	9f 93       	push	r25
    397a:	8f 93       	push	r24
    397c:	89 e6       	ldi	r24, 0x69	; 105
    397e:	95 e0       	ldi	r25, 0x05	; 5
    3980:	9f 93       	push	r25
    3982:	8f 93       	push	r24
    3984:	0e 94 84 2f 	call	0x5f08	; 0x5f08 <sprintf>
    3988:	0f 90       	pop	r0
    398a:	0f 90       	pop	r0
    398c:	0f 90       	pop	r0
    398e:	0f 90       	pop	r0
    3990:	0f 90       	pop	r0
    3992:	0f 90       	pop	r0
    dodaj_komende(KOMENDA_KOLEJKI_WYSLIJ_SMSA_TEXT);
    3994:	83 ed       	ldi	r24, 0xD3	; 211
    3996:	40 cd       	rjmp	.-1408   	; 0x3418 <wykonanie_komend_ukladow+0x92>
    3998:	f5 e0       	ldi	r31, 0x05	; 5
    399a:	ef 0e       	add	r14, r31
    399c:	f1 1c       	adc	r15, r1
    for (uint nr_uzyt = 794; nr_uzyt < MAX_LICZBA_NUMEROW_TELEFONOW_BRAMA;
    399e:	00 32       	cpi	r16, 0x20	; 32
    39a0:	23 e0       	ldi	r18, 0x03	; 3
    39a2:	12 07       	cpc	r17, r18
    39a4:	81 f6       	brne	.-96     	; 0x3946 <wykonanie_komend_ukladow+0x5c0>
    uint pozycja_dodana = 0;
    39a6:	10 e0       	ldi	r17, 0x00	; 0
    39a8:	00 e0       	ldi	r16, 0x00	; 0
    39aa:	da cf       	rjmp	.-76     	; 0x3960 <wykonanie_komend_ukladow+0x5da>
      strcpy_P((char *)tekst_wysylanego_smsa,
    39ac:	6c e8       	ldi	r22, 0x8C	; 140
    39ae:	70 e0       	ldi	r23, 0x00	; 0
    39b0:	b6 cf       	rjmp	.-148    	; 0x391e <wykonanie_komend_ukladow+0x598>
                                     &numer_telefonu_do_ktorego_dzwonic[strlen(
    39b2:	6b e4       	ldi	r22, 0x4B	; 75
    39b4:	73 e0       	ldi	r23, 0x03	; 3
    39b6:	fb 01       	movw	r30, r22
    39b8:	01 90       	ld	r0, Z+
    39ba:	00 20       	and	r0, r0
    39bc:	e9 f7       	brne	.-6      	; 0x39b8 <wykonanie_komend_ukladow+0x632>
    39be:	bf 01       	movw	r22, r30
    39c0:	61 50       	subi	r22, 0x01	; 1
    39c2:	71 09       	sbc	r23, r1
    konwertuj_telefon_na_blok_eeprom(&numer_telefonu_do_ktorego_dzwonic[0],
    39c4:	4d ed       	ldi	r20, 0xDD	; 221
    39c6:	57 e0       	ldi	r21, 0x07	; 7
    39c8:	8b e4       	ldi	r24, 0x4B	; 75
    39ca:	93 e0       	ldi	r25, 0x03	; 3
    39cc:	0e 94 bf 27 	call	0x4f7e	; 0x4f7e <konwertuj_telefon_na_blok_eeprom>
    39d0:	08 e0       	ldi	r16, 0x08	; 8
    39d2:	10 e0       	ldi	r17, 0x00	; 0
      if (porownaj_numer_telefonu_blok(
    39d4:	b8 01       	movw	r22, r16
    39d6:	8d ed       	ldi	r24, 0xDD	; 221
    39d8:	97 e0       	ldi	r25, 0x07	; 7
    39da:	0e 94 94 28 	call	0x5128	; 0x5128 <porownaj_numer_telefonu_blok>
    39de:	88 23       	and	r24, r24
    39e0:	79 f0       	breq	.+30     	; 0x3a00 <wykonanie_komend_ukladow+0x67a>
        numer_telefonu_do_ktorego_dzwonic[0] = '\0';
    39e2:	10 92 4b 03 	sts	0x034B, r1	; 0x80034b <numer_telefonu_do_ktorego_dzwonic>
        konwertuj_telefon_na_blok_eeprom(&numer_telefonu_do_ktorego_dzwonic[0],
    39e6:	4d ed       	ldi	r20, 0xDD	; 221
    39e8:	57 e0       	ldi	r21, 0x07	; 7
    39ea:	6c e4       	ldi	r22, 0x4C	; 76
    39ec:	73 e0       	ldi	r23, 0x03	; 3
    39ee:	8b e4       	ldi	r24, 0x4B	; 75
    39f0:	93 e0       	ldi	r25, 0x03	; 3
    39f2:	0e 94 bf 27 	call	0x4f7e	; 0x4f7e <konwertuj_telefon_na_blok_eeprom>
        zapisz_znaki_w_eeprom_bez_kopiowania(
    39f6:	65 e0       	ldi	r22, 0x05	; 5
    39f8:	c8 01       	movw	r24, r16
    39fa:	0e 94 8d 29 	call	0x531a	; 0x531a <zapisz_znaki_w_eeprom_bez_kopiowania>
    39fe:	2b cd       	rjmp	.-1450   	; 0x3456 <wykonanie_komend_ukladow+0xd0>
    3a00:	0b 5f       	subi	r16, 0xFB	; 251
    3a02:	1f 4f       	sbci	r17, 0xFF	; 255
    for (uint nr_uzyt_clip = 0;
    3a04:	08 3a       	cpi	r16, 0xA8	; 168
    3a06:	ff e0       	ldi	r31, 0x0F	; 15
    3a08:	1f 07       	cpc	r17, r31
    3a0a:	21 f7       	brne	.-56     	; 0x39d4 <wykonanie_komend_ukladow+0x64e>
    3a0c:	24 cd       	rjmp	.-1464   	; 0x3456 <wykonanie_komend_ukladow+0xd0>

00003a0e <wykonanie_komend>:
  if (wykonanie_komend_SIM900())
    3a0e:	0e 94 dc 0f 	call	0x1fb8	; 0x1fb8 <wykonanie_komend_SIM900>
    3a12:	81 11       	cpse	r24, r1
    3a14:	06 c0       	rjmp	.+12     	; 0x3a22 <wykonanie_komend+0x14>
  else if (wykonanie_komend_ukladow())
    3a16:	0e 94 c3 19 	call	0x3386	; 0x3386 <wykonanie_komend_ukladow>
    3a1a:	81 11       	cpse	r24, r1
    3a1c:	02 c0       	rjmp	.+4      	; 0x3a22 <wykonanie_komend+0x14>
  else if (wykonanie_komend_powiadomien())
    3a1e:	0e 94 ff 15 	call	0x2bfe	; 0x2bfe <wykonanie_komend_powiadomien>
  usun_komende();
    3a22:	0c 94 92 27 	jmp	0x4f24	; 0x4f24 <usun_komende>

00003a26 <aktualny_stan_logiczny_na_wejsciu>:
    3a26:	e8 2f       	mov	r30, r24
    3a28:	f0 e0       	ldi	r31, 0x00	; 0
    3a2a:	e5 56       	subi	r30, 0x65	; 101
    3a2c:	fc 4f       	sbci	r31, 0xFC	; 252
    3a2e:	90 81       	ld	r25, Z
    3a30:	90 7f       	andi	r25, 0xF0	; 240
	const uchar par = PARAMETRY_WEJSCIA_TRYB_NORMALNIE_OTWARTY | PARAMETRY_WEJSCIA_WYZWALANIE_MINUSEM
		| PARAMETRY_WEJSCIA_MASKA_KONTROLOWANIE_WEJSCIA;
	if ( !( ( TRYB_WEJSCIA(par) != PARAMETRY_WEJSCIA_TRYB_NORMALNIE_ZAMKNIETY ) ^ CZY_WYZWALANIE_PLUSEM(par) ) )
		return s ? STAN_LOGICZNY_NA_WEJSCIU_ON : STAN_LOGICZNY_NA_WEJSCIU_OFF;
	else
		return s ? STAN_LOGICZNY_NA_WEJSCIU_OFF : STAN_LOGICZNY_NA_WEJSCIU_ON;
    3a32:	81 e0       	ldi	r24, 0x01	; 1
    3a34:	09 f0       	breq	.+2      	; 0x3a38 <aktualny_stan_logiczny_na_wejsciu+0x12>
    3a36:	80 e0       	ldi	r24, 0x00	; 0
}
    3a38:	08 95       	ret

00003a3a <aktualizuj_stan_wyzwolenia_wejsc_100ms>:

void aktualizuj_stan_wyzwolenia_wejsc_100ms(void)
{
	for (uchar nr_wej = 0; nr_wej < LICZBA_WEJSC; ++nr_wej)
	{
		stan_logiczny_na_wejsciu[nr_wej] &= ~STAN_LOGICZNY_NA_WEJSCIU_WYZWOLENIE;	// pozostaje stary stan logiczny
    3a3a:	90 91 a4 03 	lds	r25, 0x03A4	; 0x8003a4 <stan_logiczny_na_wejsciu>
    3a3e:	89 2f       	mov	r24, r25
    3a40:	8d 7f       	andi	r24, 0xFD	; 253
    3a42:	80 93 a4 03 	sts	0x03A4, r24	; 0x8003a4 <stan_logiczny_na_wejsciu>
    3a46:	80 91 9b 03 	lds	r24, 0x039B	; 0x80039b <licznik_wejscie>
    3a4a:	80 7f       	andi	r24, 0xF0	; 240
		uchar chwilowy_stan_logiczny = aktualny_stan_logiczny_na_wejsciu(nr_wej);
		if ( CZY_AKTUALNY_STAN_LOGICZNY_OFF(nr_wej) )
    3a4c:	90 fd       	sbrc	r25, 0
    3a4e:	56 c0       	rjmp	.+172    	; 0x3afc <aktualizuj_stan_wyzwolenia_wejsc_100ms+0xc2>
		{
			if ( chwilowy_stan_logiczny == STAN_LOGICZNY_NA_WEJSCIU_ON )
    3a50:	81 11       	cpse	r24, r1
    3a52:	4b c0       	rjmp	.+150    	; 0x3aea <aktualizuj_stan_wyzwolenia_wejsc_100ms+0xb0>
			{
				if ( czas_trwania_impulsu[nr_wej] < czas_trwania_impulsu_na_wejsciu[nr_wej] )
    3a54:	80 91 ad 03 	lds	r24, 0x03AD	; 0x8003ad <czas_trwania_impulsu>
    3a58:	90 91 ae 03 	lds	r25, 0x03AE	; 0x8003ae <czas_trwania_impulsu+0x1>
    3a5c:	a0 91 af 03 	lds	r26, 0x03AF	; 0x8003af <czas_trwania_impulsu+0x2>
    3a60:	b0 91 b0 03 	lds	r27, 0x03B0	; 0x8003b0 <czas_trwania_impulsu+0x3>
    3a64:	40 91 a9 03 	lds	r20, 0x03A9	; 0x8003a9 <czas_trwania_impulsu_na_wejsciu>
    3a68:	50 91 aa 03 	lds	r21, 0x03AA	; 0x8003aa <czas_trwania_impulsu_na_wejsciu+0x1>
    3a6c:	60 91 ab 03 	lds	r22, 0x03AB	; 0x8003ab <czas_trwania_impulsu_na_wejsciu+0x2>
    3a70:	70 91 ac 03 	lds	r23, 0x03AC	; 0x8003ac <czas_trwania_impulsu_na_wejsciu+0x3>
    3a74:	84 17       	cp	r24, r20
    3a76:	95 07       	cpc	r25, r21
    3a78:	a6 07       	cpc	r26, r22
    3a7a:	b7 07       	cpc	r27, r23
    3a7c:	98 f4       	brcc	.+38     	; 0x3aa4 <aktualizuj_stan_wyzwolenia_wejsc_100ms+0x6a>
				{
					if ( ++czas_trwania_impulsu[nr_wej] == czas_trwania_impulsu_na_wejsciu[nr_wej] )
    3a7e:	01 96       	adiw	r24, 0x01	; 1
    3a80:	a1 1d       	adc	r26, r1
    3a82:	b1 1d       	adc	r27, r1
    3a84:	80 93 ad 03 	sts	0x03AD, r24	; 0x8003ad <czas_trwania_impulsu>
    3a88:	90 93 ae 03 	sts	0x03AE, r25	; 0x8003ae <czas_trwania_impulsu+0x1>
    3a8c:	a0 93 af 03 	sts	0x03AF, r26	; 0x8003af <czas_trwania_impulsu+0x2>
    3a90:	b0 93 b0 03 	sts	0x03B0, r27	; 0x8003b0 <czas_trwania_impulsu+0x3>
    3a94:	48 17       	cp	r20, r24
    3a96:	59 07       	cpc	r21, r25
    3a98:	6a 07       	cpc	r22, r26
    3a9a:	7b 07       	cpc	r23, r27
    3a9c:	19 f4       	brne	.+6      	; 0x3aa4 <aktualizuj_stan_wyzwolenia_wejsc_100ms+0x6a>
						stan_logiczny_na_wejsciu[nr_wej] = STAN_LOGICZNY_NA_WEJSCIU_ON;
    3a9e:	81 e0       	ldi	r24, 0x01	; 1
    3aa0:	80 93 a4 03 	sts	0x03A4, r24	; 0x8003a4 <stan_logiczny_na_wejsciu>
			else
			{
				czas_trwania_impulsu_off[nr_wej] = 0;	// zaczyna odlicza od nowa, poniewa nie by to zbyt dugi impuls
			}
		}
		if ( stan_logiczny_na_wejsciu[nr_wej] != poprzedni_stan_logiczny_na_wejsciu[nr_wej] )
    3aa4:	80 91 a4 03 	lds	r24, 0x03A4	; 0x8003a4 <stan_logiczny_na_wejsciu>
    3aa8:	90 91 b1 03 	lds	r25, 0x03B1	; 0x8003b1 <poprzedni_stan_logiczny_na_wejsciu>
    3aac:	89 17       	cp	r24, r25
    3aae:	81 f0       	breq	.+32     	; 0x3ad0 <aktualizuj_stan_wyzwolenia_wejsc_100ms+0x96>
		{
			poprzedni_stan_logiczny_na_wejsciu[nr_wej] = stan_logiczny_na_wejsciu[nr_wej];	// tutaj nie ma stanu wyzwolenia
    3ab0:	80 93 b1 03 	sts	0x03B1, r24	; 0x8003b1 <poprzedni_stan_logiczny_na_wejsciu>
			stan_logiczny_na_wejsciu[nr_wej] |= STAN_LOGICZNY_NA_WEJSCIU_WYZWOLENIE;
    3ab4:	98 2f       	mov	r25, r24
    3ab6:	92 60       	ori	r25, 0x02	; 2
    3ab8:	90 93 a4 03 	sts	0x03A4, r25	; 0x8003a4 <stan_logiczny_na_wejsciu>
			if ( CZY_AKTUALNY_STAN_LOGICZNY_OFF(nr_wej) )
    3abc:	80 fd       	sbrc	r24, 0
    3abe:	53 c0       	rjmp	.+166    	; 0x3b66 <aktualizuj_stan_wyzwolenia_wejsc_100ms+0x12c>
				czas_trwania_impulsu[nr_wej] = 0;
    3ac0:	10 92 ad 03 	sts	0x03AD, r1	; 0x8003ad <czas_trwania_impulsu>
    3ac4:	10 92 ae 03 	sts	0x03AE, r1	; 0x8003ae <czas_trwania_impulsu+0x1>
    3ac8:	10 92 af 03 	sts	0x03AF, r1	; 0x8003af <czas_trwania_impulsu+0x2>
    3acc:	10 92 b0 03 	sts	0x03B0, r1	; 0x8003b0 <czas_trwania_impulsu+0x3>
			else
				czas_trwania_impulsu_off[nr_wej] = 0;
		}
		if ( licznik_wstrzymanie_alarmow_po_inicjalizacji_100ms )
    3ad0:	80 91 9a 03 	lds	r24, 0x039A	; 0x80039a <licznik_wstrzymanie_alarmow_po_inicjalizacji_100ms>
    3ad4:	88 23       	and	r24, r24
    3ad6:	41 f0       	breq	.+16     	; 0x3ae8 <aktualizuj_stan_wyzwolenia_wejsc_100ms+0xae>
			stan_logiczny_na_wejsciu[nr_wej] &= ~STAN_LOGICZNY_NA_WEJSCIU_WYZWOLENIE;
    3ad8:	90 91 a4 03 	lds	r25, 0x03A4	; 0x8003a4 <stan_logiczny_na_wejsciu>
    3adc:	9d 7f       	andi	r25, 0xFD	; 253
    3ade:	90 93 a4 03 	sts	0x03A4, r25	; 0x8003a4 <stan_logiczny_na_wejsciu>
	}
	
	if ( licznik_wstrzymanie_alarmow_po_inicjalizacji_100ms )
		--licznik_wstrzymanie_alarmow_po_inicjalizacji_100ms;
    3ae2:	81 50       	subi	r24, 0x01	; 1
    3ae4:	80 93 9a 03 	sts	0x039A, r24	; 0x80039a <licznik_wstrzymanie_alarmow_po_inicjalizacji_100ms>
}
    3ae8:	08 95       	ret
				czas_trwania_impulsu[nr_wej] = 0;	// zaczyna odlicza od nowa, poniewa nie by to zbyt dugi impuls
    3aea:	10 92 ad 03 	sts	0x03AD, r1	; 0x8003ad <czas_trwania_impulsu>
    3aee:	10 92 ae 03 	sts	0x03AE, r1	; 0x8003ae <czas_trwania_impulsu+0x1>
    3af2:	10 92 af 03 	sts	0x03AF, r1	; 0x8003af <czas_trwania_impulsu+0x2>
    3af6:	10 92 b0 03 	sts	0x03B0, r1	; 0x8003b0 <czas_trwania_impulsu+0x3>
    3afa:	d4 cf       	rjmp	.-88     	; 0x3aa4 <aktualizuj_stan_wyzwolenia_wejsc_100ms+0x6a>
			if ( chwilowy_stan_logiczny == STAN_LOGICZNY_NA_WEJSCIU_OFF )
    3afc:	88 23       	and	r24, r24
    3afe:	51 f1       	breq	.+84     	; 0x3b54 <aktualizuj_stan_wyzwolenia_wejsc_100ms+0x11a>
				if ( czas_trwania_impulsu_off[nr_wej] < czas_trwania_impulsu_off_na_wejsciu[nr_wej] )
    3b00:	80 91 a0 03 	lds	r24, 0x03A0	; 0x8003a0 <czas_trwania_impulsu_off>
    3b04:	90 91 a1 03 	lds	r25, 0x03A1	; 0x8003a1 <czas_trwania_impulsu_off+0x1>
    3b08:	a0 91 a2 03 	lds	r26, 0x03A2	; 0x8003a2 <czas_trwania_impulsu_off+0x2>
    3b0c:	b0 91 a3 03 	lds	r27, 0x03A3	; 0x8003a3 <czas_trwania_impulsu_off+0x3>
    3b10:	40 91 9c 03 	lds	r20, 0x039C	; 0x80039c <czas_trwania_impulsu_off_na_wejsciu>
    3b14:	50 91 9d 03 	lds	r21, 0x039D	; 0x80039d <czas_trwania_impulsu_off_na_wejsciu+0x1>
    3b18:	60 91 9e 03 	lds	r22, 0x039E	; 0x80039e <czas_trwania_impulsu_off_na_wejsciu+0x2>
    3b1c:	70 91 9f 03 	lds	r23, 0x039F	; 0x80039f <czas_trwania_impulsu_off_na_wejsciu+0x3>
    3b20:	84 17       	cp	r24, r20
    3b22:	95 07       	cpc	r25, r21
    3b24:	a6 07       	cpc	r26, r22
    3b26:	b7 07       	cpc	r27, r23
    3b28:	08 f0       	brcs	.+2      	; 0x3b2c <aktualizuj_stan_wyzwolenia_wejsc_100ms+0xf2>
    3b2a:	bc cf       	rjmp	.-136    	; 0x3aa4 <aktualizuj_stan_wyzwolenia_wejsc_100ms+0x6a>
					if ( ++czas_trwania_impulsu_off[nr_wej] == czas_trwania_impulsu_off_na_wejsciu[nr_wej] )
    3b2c:	01 96       	adiw	r24, 0x01	; 1
    3b2e:	a1 1d       	adc	r26, r1
    3b30:	b1 1d       	adc	r27, r1
    3b32:	80 93 a0 03 	sts	0x03A0, r24	; 0x8003a0 <czas_trwania_impulsu_off>
    3b36:	90 93 a1 03 	sts	0x03A1, r25	; 0x8003a1 <czas_trwania_impulsu_off+0x1>
    3b3a:	a0 93 a2 03 	sts	0x03A2, r26	; 0x8003a2 <czas_trwania_impulsu_off+0x2>
    3b3e:	b0 93 a3 03 	sts	0x03A3, r27	; 0x8003a3 <czas_trwania_impulsu_off+0x3>
    3b42:	48 17       	cp	r20, r24
    3b44:	59 07       	cpc	r21, r25
    3b46:	6a 07       	cpc	r22, r26
    3b48:	7b 07       	cpc	r23, r27
    3b4a:	09 f0       	breq	.+2      	; 0x3b4e <aktualizuj_stan_wyzwolenia_wejsc_100ms+0x114>
    3b4c:	ab cf       	rjmp	.-170    	; 0x3aa4 <aktualizuj_stan_wyzwolenia_wejsc_100ms+0x6a>
						stan_logiczny_na_wejsciu[nr_wej] = STAN_LOGICZNY_NA_WEJSCIU_OFF;
    3b4e:	10 92 a4 03 	sts	0x03A4, r1	; 0x8003a4 <stan_logiczny_na_wejsciu>
    3b52:	a8 cf       	rjmp	.-176    	; 0x3aa4 <aktualizuj_stan_wyzwolenia_wejsc_100ms+0x6a>
				czas_trwania_impulsu_off[nr_wej] = 0;	// zaczyna odlicza od nowa, poniewa nie by to zbyt dugi impuls
    3b54:	10 92 a0 03 	sts	0x03A0, r1	; 0x8003a0 <czas_trwania_impulsu_off>
    3b58:	10 92 a1 03 	sts	0x03A1, r1	; 0x8003a1 <czas_trwania_impulsu_off+0x1>
    3b5c:	10 92 a2 03 	sts	0x03A2, r1	; 0x8003a2 <czas_trwania_impulsu_off+0x2>
    3b60:	10 92 a3 03 	sts	0x03A3, r1	; 0x8003a3 <czas_trwania_impulsu_off+0x3>
    3b64:	9f cf       	rjmp	.-194    	; 0x3aa4 <aktualizuj_stan_wyzwolenia_wejsc_100ms+0x6a>
				czas_trwania_impulsu_off[nr_wej] = 0;
    3b66:	10 92 a0 03 	sts	0x03A0, r1	; 0x8003a0 <czas_trwania_impulsu_off>
    3b6a:	10 92 a1 03 	sts	0x03A1, r1	; 0x8003a1 <czas_trwania_impulsu_off+0x1>
    3b6e:	10 92 a2 03 	sts	0x03A2, r1	; 0x8003a2 <czas_trwania_impulsu_off+0x2>
    3b72:	10 92 a3 03 	sts	0x03A3, r1	; 0x8003a3 <czas_trwania_impulsu_off+0x3>
    3b76:	ac cf       	rjmp	.-168    	; 0x3ad0 <aktualizuj_stan_wyzwolenia_wejsc_100ms+0x96>

00003b78 <steruj_wejscia_10ms>:
	if ( STAN_WEJSCIE_##NR_WEJSCIA() )				\
		licznik <<= 1;													\
	licznik_wejscie[NR_WEJSCIA-1] = licznik;
	
	uchar licznik;
	TEST_LICZNIKA_WEJSCIA(1);
    3b78:	80 91 9b 03 	lds	r24, 0x039B	; 0x80039b <licznik_wejscie>
    3b7c:	18 9b       	sbis	0x03, 0	; 3
    3b7e:	86 95       	lsr	r24
    3b80:	81 60       	ori	r24, 0x01	; 1
    3b82:	18 99       	sbic	0x03, 0	; 3
    3b84:	88 0f       	add	r24, r24
    3b86:	80 93 9b 03 	sts	0x039B, r24	; 0x80039b <licznik_wejscie>
}
    3b8a:	08 95       	ret

00003b8c <steruj_wyjscia_100ms>:
ulong licznik_przelacznik_wyjscia[LICZBA_WYJSC];

uchar stan_wyjscie[LICZBA_WYJSC];

void steruj_wyjscia_100ms(void)
{
    3b8c:	80 91 a5 03 	lds	r24, 0x03A5	; 0x8003a5 <licznik_przelacznik_wyjscia>
    3b90:	90 91 a6 03 	lds	r25, 0x03A6	; 0x8003a6 <licznik_przelacznik_wyjscia+0x1>
    3b94:	a0 91 a7 03 	lds	r26, 0x03A7	; 0x8003a7 <licznik_przelacznik_wyjscia+0x2>
    3b98:	b0 91 a8 03 	lds	r27, 0x03A8	; 0x8003a8 <licznik_przelacznik_wyjscia+0x3>
    3b9c:	20 91 42 02 	lds	r18, 0x0242	; 0x800242 <stan_wyjscie>
	for (uchar i = 0; i < LICZBA_WYJSC; ++i)
	{
		if ( licznik_przelacznik_wyjscia[i] != 0 )
    3ba0:	00 97       	sbiw	r24, 0x00	; 0
    3ba2:	a1 05       	cpc	r26, r1
    3ba4:	b1 05       	cpc	r27, r1
    3ba6:	91 f0       	breq	.+36     	; 0x3bcc <steruj_wyjscia_100ms+0x40>
		{
			if ( --licznik_przelacznik_wyjscia[i] == 0 )
    3ba8:	01 97       	sbiw	r24, 0x01	; 1
    3baa:	a1 09       	sbc	r26, r1
    3bac:	b1 09       	sbc	r27, r1
    3bae:	91 f4       	brne	.+36     	; 0x3bd4 <steruj_wyjscia_100ms+0x48>
				stan_wyjscie[i] = not stan_wyjscie[i];
    3bb0:	81 e0       	ldi	r24, 0x01	; 1
    3bb2:	21 11       	cpse	r18, r1
    3bb4:	80 e0       	ldi	r24, 0x00	; 0
    3bb6:	28 2f       	mov	r18, r24
    3bb8:	10 92 a5 03 	sts	0x03A5, r1	; 0x8003a5 <licznik_przelacznik_wyjscia>
    3bbc:	10 92 a6 03 	sts	0x03A6, r1	; 0x8003a6 <licznik_przelacznik_wyjscia+0x1>
    3bc0:	10 92 a7 03 	sts	0x03A7, r1	; 0x8003a7 <licznik_przelacznik_wyjscia+0x2>
    3bc4:	10 92 a8 03 	sts	0x03A8, r1	; 0x8003a8 <licznik_przelacznik_wyjscia+0x3>
    3bc8:	80 93 42 02 	sts	0x0242, r24	; 0x800242 <stan_wyjscie>
		}
	}
	if ( stan_wyjscie[0] )
    3bcc:	22 23       	and	r18, r18
    3bce:	59 f0       	breq	.+22     	; 0x3be6 <steruj_wyjscia_100ms+0x5a>
		WLACZ_OUT0();
    3bd0:	5d 9a       	sbi	0x0b, 5	; 11
    3bd2:	08 95       	ret
    3bd4:	80 93 a5 03 	sts	0x03A5, r24	; 0x8003a5 <licznik_przelacznik_wyjscia>
    3bd8:	90 93 a6 03 	sts	0x03A6, r25	; 0x8003a6 <licznik_przelacznik_wyjscia+0x1>
    3bdc:	a0 93 a7 03 	sts	0x03A7, r26	; 0x8003a7 <licznik_przelacznik_wyjscia+0x2>
    3be0:	b0 93 a8 03 	sts	0x03A8, r27	; 0x8003a8 <licznik_przelacznik_wyjscia+0x3>
    3be4:	f3 cf       	rjmp	.-26     	; 0x3bcc <steruj_wyjscia_100ms+0x40>
	else
		WYLACZ_OUT0();
    3be6:	5d 98       	cbi	0x0b, 5	; 11
}
    3be8:	08 95       	ret

00003bea <kopiuj_parametry_we_wy_z_eeprom>:

void kopiuj_parametry_we_wy_z_eeprom(void)
{
	czas_trwania_impulsu_na_wejsciu[0] = czas_trwania_impulsu_off_na_wejsciu[0] = 20;
    3bea:	84 e1       	ldi	r24, 0x14	; 20
    3bec:	90 e0       	ldi	r25, 0x00	; 0
    3bee:	a0 e0       	ldi	r26, 0x00	; 0
    3bf0:	b0 e0       	ldi	r27, 0x00	; 0
    3bf2:	80 93 9c 03 	sts	0x039C, r24	; 0x80039c <czas_trwania_impulsu_off_na_wejsciu>
    3bf6:	90 93 9d 03 	sts	0x039D, r25	; 0x80039d <czas_trwania_impulsu_off_na_wejsciu+0x1>
    3bfa:	a0 93 9e 03 	sts	0x039E, r26	; 0x80039e <czas_trwania_impulsu_off_na_wejsciu+0x2>
    3bfe:	b0 93 9f 03 	sts	0x039F, r27	; 0x80039f <czas_trwania_impulsu_off_na_wejsciu+0x3>
    3c02:	80 93 a9 03 	sts	0x03A9, r24	; 0x8003a9 <czas_trwania_impulsu_na_wejsciu>
    3c06:	90 93 aa 03 	sts	0x03AA, r25	; 0x8003aa <czas_trwania_impulsu_na_wejsciu+0x1>
    3c0a:	a0 93 ab 03 	sts	0x03AB, r26	; 0x8003ab <czas_trwania_impulsu_na_wejsciu+0x2>
    3c0e:	b0 93 ac 03 	sts	0x03AC, r27	; 0x8003ac <czas_trwania_impulsu_na_wejsciu+0x3>
}
    3c12:	08 95       	ret

00003c14 <inicjalizuj_parametry_we_wy>:

void inicjalizuj_parametry_we_wy(void)
{
	for (uchar i = 0; i < LICZBA_WEJSC; ++i)
		poprzedni_stan_logiczny_na_wejsciu[i] = 0;
    3c14:	10 92 b1 03 	sts	0x03B1, r1	; 0x8003b1 <poprzedni_stan_logiczny_na_wejsciu>
	for (uchar i = 0; i < LICZBA_WYJSC; ++i)
		licznik_przelacznik_wyjscia[i] = 0;	
    3c18:	10 92 a5 03 	sts	0x03A5, r1	; 0x8003a5 <licznik_przelacznik_wyjscia>
    3c1c:	10 92 a6 03 	sts	0x03A6, r1	; 0x8003a6 <licznik_przelacznik_wyjscia+0x1>
    3c20:	10 92 a7 03 	sts	0x03A7, r1	; 0x8003a7 <licznik_przelacznik_wyjscia+0x2>
    3c24:	10 92 a8 03 	sts	0x03A8, r1	; 0x8003a8 <licznik_przelacznik_wyjscia+0x3>
	licznik_wstrzymanie_alarmow_po_inicjalizacji_100ms = 30;
    3c28:	8e e1       	ldi	r24, 0x1E	; 30
    3c2a:	80 93 9a 03 	sts	0x039A, r24	; 0x80039a <licznik_wstrzymanie_alarmow_po_inicjalizacji_100ms>
}
    3c2e:	08 95       	ret

00003c30 <wyslij_znaki_SIM900>:
volatile uchar flaga_odebrany_znak_zachety;
volatile uint polozenie_otrzymanych_komend_SIM900[LICZBA_POLOZEN_OTRZYMANYCH_KOMEND_SIM900];

void wyslij_znaki_SIM900(const uint liczba_znakow)
{
    liczba_wysylanych_znakow_SIM900 = liczba_znakow;
    3c30:	90 93 49 05 	sts	0x0549, r25	; 0x800549 <liczba_wysylanych_znakow_SIM900+0x1>
    3c34:	80 93 48 05 	sts	0x0548, r24	; 0x800548 <liczba_wysylanych_znakow_SIM900>
    nr_wyslanego_znaku_SIM900 = 0;
    3c38:	10 92 52 05 	sts	0x0552, r1	; 0x800552 <nr_wyslanego_znaku_SIM900+0x1>
    3c3c:	10 92 51 05 	sts	0x0551, r1	; 0x800551 <nr_wyslanego_znaku_SIM900>
    UCSRA_SIM900 |= BIT(TXC);
    3c40:	e0 ec       	ldi	r30, 0xC0	; 192
    3c42:	f0 e0       	ldi	r31, 0x00	; 0
    3c44:	80 81       	ld	r24, Z
    3c46:	80 64       	ori	r24, 0x40	; 64
    3c48:	80 83       	st	Z, r24
    WYKONAJ_CLI_SEI(WLACZ_PRZERWANIE_WYSYLANIA_DANYCH_SIM900());
    3c4a:	f8 94       	cli
    3c4c:	e1 ec       	ldi	r30, 0xC1	; 193
    3c4e:	f0 e0       	ldi	r31, 0x00	; 0
    3c50:	80 81       	ld	r24, Z
    3c52:	80 64       	ori	r24, 0x40	; 64
    3c54:	80 83       	st	Z, r24
    3c56:	78 94       	sei
    3c58:	00 00       	nop
    sprawdzaj_wejscie_CTS_SIM900 = TRUE;
    3c5a:	8f ef       	ldi	r24, 0xFF	; 255
    3c5c:	80 93 39 02 	sts	0x0239, r24	; 0x800239 <sprawdzaj_wejscie_CTS_SIM900>
}
    3c60:	08 95       	ret

00003c62 <wyslij_polecenie_ROM_SIM900>:

void wyslij_polecenie_ROM_SIM900(PGM_P polecenie)
{
    3c62:	cf 93       	push	r28
    3c64:	df 93       	push	r29
    3c66:	fc 01       	movw	r30, r24
    wysylany_blok_SIM900[0] = 'A';
    3c68:	81 e4       	ldi	r24, 0x41	; 65
    3c6a:	80 93 0a 06 	sts	0x060A, r24	; 0x80060a <wysylany_blok_SIM900>
    wysylany_blok_SIM900[1] = 'T';
    3c6e:	84 e5       	ldi	r24, 0x54	; 84
    3c70:	80 93 0b 06 	sts	0x060B, r24	; 0x80060b <wysylany_blok_SIM900+0x1>
    3c74:	ac e0       	ldi	r26, 0x0C	; 12
    3c76:	b6 e0       	ldi	r27, 0x06	; 6
    uchar* w = &wysylany_blok_SIM900[2];
    uchar l = 3;
    3c78:	93 e0       	ldi	r25, 0x03	; 3
    3c7a:	ed 01       	movw	r28, r26
    while ( (*w = pgm_read_byte(polecenie)) )
    3c7c:	84 91       	lpm	r24, Z
    3c7e:	8d 93       	st	X+, r24
    3c80:	81 11       	cpse	r24, r1
    3c82:	08 c0       	rjmp	.+16     	; 0x3c94 <wyslij_polecenie_ROM_SIM900+0x32>
        ++w, ++polecenie, ++l;
    *w = ZNAK_KONCA_WYSYLANIA_ZNAKOW_CR;
    3c84:	8d e0       	ldi	r24, 0x0D	; 13
    3c86:	88 83       	st	Y, r24
    wyslij_znaki_SIM900(l);
    3c88:	89 2f       	mov	r24, r25
    3c8a:	90 e0       	ldi	r25, 0x00	; 0
}
    3c8c:	df 91       	pop	r29
    3c8e:	cf 91       	pop	r28
    wyslij_znaki_SIM900(l);
    3c90:	0c 94 18 1e 	jmp	0x3c30	; 0x3c30 <wyslij_znaki_SIM900>
        ++w, ++polecenie, ++l;
    3c94:	31 96       	adiw	r30, 0x01	; 1
    3c96:	9f 5f       	subi	r25, 0xFF	; 255
    3c98:	f0 cf       	rjmp	.-32     	; 0x3c7a <wyslij_polecenie_ROM_SIM900+0x18>

00003c9a <wyslij_polecenie_RAM_SIM900>:

void wyslij_polecenie_RAM_SIM900(void)
{
    wysylany_blok_SIM900[0] = 'A';
    3c9a:	ea e0       	ldi	r30, 0x0A	; 10
    3c9c:	f6 e0       	ldi	r31, 0x06	; 6
    3c9e:	81 e4       	ldi	r24, 0x41	; 65
    3ca0:	80 83       	st	Z, r24
    wysylany_blok_SIM900[1] = 'T';
    3ca2:	84 e5       	ldi	r24, 0x54	; 84
    3ca4:	81 83       	std	Z+1, r24	; 0x01
    const uchar l = strlen(wysylany_blok_SIM900);
    3ca6:	01 90       	ld	r0, Z+
    3ca8:	00 20       	and	r0, r0
    3caa:	e9 f7       	brne	.-6      	; 0x3ca6 <wyslij_polecenie_RAM_SIM900+0xc>
    3cac:	cf 01       	movw	r24, r30
    3cae:	8b 50       	subi	r24, 0x0B	; 11
    3cb0:	96 40       	sbci	r25, 0x06	; 6
    wysylany_blok_SIM900[l] = ZNAK_KONCA_WYSYLANIA_ZNAKOW_CR;
    3cb2:	99 27       	eor	r25, r25
    3cb4:	fc 01       	movw	r30, r24
    3cb6:	e6 5f       	subi	r30, 0xF6	; 246
    3cb8:	f9 4f       	sbci	r31, 0xF9	; 249
    3cba:	2d e0       	ldi	r18, 0x0D	; 13
    3cbc:	20 83       	st	Z, r18
    wyslij_znaki_SIM900(l+1);
    3cbe:	01 96       	adiw	r24, 0x01	; 1
    3cc0:	0c 94 18 1e 	jmp	0x3c30	; 0x3c30 <wyslij_znaki_SIM900>

00003cc4 <__vector_22>:
}

ISR(USART_TX_vect_SIM900, ISR_NOBLOCK)
{
    3cc4:	78 94       	sei
    3cc6:	1f 92       	push	r1
    3cc8:	0f 92       	push	r0
    3cca:	0f b6       	in	r0, 0x3f	; 63
    3ccc:	0f 92       	push	r0
    3cce:	11 24       	eor	r1, r1
    3cd0:	0b b6       	in	r0, 0x3b	; 59
    3cd2:	0f 92       	push	r0
    3cd4:	2f 93       	push	r18
    3cd6:	3f 93       	push	r19
    3cd8:	8f 93       	push	r24
    3cda:	9f 93       	push	r25
    3cdc:	ef 93       	push	r30
    3cde:	ff 93       	push	r31
    if ( nr_wyslanego_znaku_SIM900 >= liczba_wysylanych_znakow_SIM900 )
    3ce0:	20 91 51 05 	lds	r18, 0x0551	; 0x800551 <nr_wyslanego_znaku_SIM900>
    3ce4:	30 91 52 05 	lds	r19, 0x0552	; 0x800552 <nr_wyslanego_znaku_SIM900+0x1>
    3ce8:	80 91 48 05 	lds	r24, 0x0548	; 0x800548 <liczba_wysylanych_znakow_SIM900>
    3cec:	90 91 49 05 	lds	r25, 0x0549	; 0x800549 <liczba_wysylanych_znakow_SIM900+0x1>
    3cf0:	28 17       	cp	r18, r24
    3cf2:	39 07       	cpc	r19, r25
    3cf4:	a8 f0       	brcs	.+42     	; 0x3d20 <__vector_22+0x5c>
    {
        zakoncz_wysylanie_SIM900();
    3cf6:	f8 94       	cli
    3cf8:	80 91 c1 00 	lds	r24, 0x00C1	; 0x8000c1 <__TEXT_REGION_LENGTH__+0x7e00c1>
    3cfc:	8f 7b       	andi	r24, 0xBF	; 191
    3cfe:	80 93 c1 00 	sts	0x00C1, r24	; 0x8000c1 <__TEXT_REGION_LENGTH__+0x7e00c1>
    3d02:	78 94       	sei
    3d04:	00 00       	nop
    {
        WSTAW_ZNAK_DO_BUFORA_SIM900();
    }
    else
        sprawdzaj_wejscie_CTS_SIM900 = TRUE;
}
    3d06:	ff 91       	pop	r31
    3d08:	ef 91       	pop	r30
    3d0a:	9f 91       	pop	r25
    3d0c:	8f 91       	pop	r24
    3d0e:	3f 91       	pop	r19
    3d10:	2f 91       	pop	r18
    3d12:	0f 90       	pop	r0
    3d14:	0b be       	out	0x3b, r0	; 59
    3d16:	0f 90       	pop	r0
    3d18:	0f be       	out	0x3f, r0	; 63
    3d1a:	0f 90       	pop	r0
    3d1c:	1f 90       	pop	r1
    3d1e:	18 95       	reti
    if ( CZY_HANDSHAKING_CTS_ZEZWALA_NA_TRANSMISJE_SIM900() )
    3d20:	34 99       	sbic	0x06, 4	; 6
    3d22:	10 c0       	rjmp	.+32     	; 0x3d44 <__vector_22+0x80>
        WSTAW_ZNAK_DO_BUFORA_SIM900();
    3d24:	80 91 51 05 	lds	r24, 0x0551	; 0x800551 <nr_wyslanego_znaku_SIM900>
    3d28:	90 91 52 05 	lds	r25, 0x0552	; 0x800552 <nr_wyslanego_znaku_SIM900+0x1>
    3d2c:	fc 01       	movw	r30, r24
    3d2e:	e6 5f       	subi	r30, 0xF6	; 246
    3d30:	f9 4f       	sbci	r31, 0xF9	; 249
    3d32:	20 81       	ld	r18, Z
    3d34:	01 96       	adiw	r24, 0x01	; 1
    3d36:	90 93 52 05 	sts	0x0552, r25	; 0x800552 <nr_wyslanego_znaku_SIM900+0x1>
    3d3a:	80 93 51 05 	sts	0x0551, r24	; 0x800551 <nr_wyslanego_znaku_SIM900>
    3d3e:	20 93 c6 00 	sts	0x00C6, r18	; 0x8000c6 <__TEXT_REGION_LENGTH__+0x7e00c6>
    3d42:	e1 cf       	rjmp	.-62     	; 0x3d06 <__vector_22+0x42>
        sprawdzaj_wejscie_CTS_SIM900 = TRUE;
    3d44:	8f ef       	ldi	r24, 0xFF	; 255
    3d46:	80 93 39 02 	sts	0x0239, r24	; 0x800239 <sprawdzaj_wejscie_CTS_SIM900>
    3d4a:	dd cf       	rjmp	.-70     	; 0x3d06 <__vector_22+0x42>

00003d4c <__vector_20>:
{
    volatile register uchar tmp asm("r24");
    register uchar znak_UDR asm("r20");
    register uint l asm ("r18");
    register uchar* ptr asm ("r30");
    PUSH(tmp);
    3d4c:	8f 93       	push	r24
    tmp = SREG;
    3d4e:	8f b7       	in	r24, 0x3f	; 63
    PUSH(tmp);
    3d50:	8f 93       	push	r24
    WYLACZ_PRZERWANIE_ODBIORU_DANYCH_SIM900();
    3d52:	80 91 c1 00 	lds	r24, 0x00C1	; 0x8000c1 <__TEXT_REGION_LENGTH__+0x7e00c1>
    3d56:	8f 77       	andi	r24, 0x7F	; 127
    3d58:	80 93 c1 00 	sts	0x00C1, r24	; 0x8000c1 <__TEXT_REGION_LENGTH__+0x7e00c1>
    sei();
    3d5c:	78 94       	sei
#ifdef RAMPZ
    tmp = RAMPZ;
    3d5e:	8b b7       	in	r24, 0x3b	; 59
    PUSH(tmp);
    3d60:	8f 93       	push	r24
#endif
    asm volatile ("lds %0, " ADRES_UDR_SIM900 " " : "=r" (tmp) : );
    3d62:	80 91 c6 00 	lds	r24, 0x00C6	; 0x8000c6 <__TEXT_REGION_LENGTH__+0x7e00c6>
#ifdef WLACZ_PODGLAD_TRANSMISJI_ODBIORU_SIMCOM_NA_USB
    asm volatile ("sts " ADRES_UDR_USB ", %0 " : "=r" (tmp) : );
#endif
    PUSH_TXT("r0");
    3d66:	0f 92       	push	r0
    PUSH(znak_UDR);
    3d68:	4f 93       	push	r20
    znak_UDR = tmp;
    PUSH_TXT("__zero_reg__");
    3d6a:	1f 92       	push	r1
    CLEAR_TXT("__zero_reg__");
    3d6c:	11 24       	eor	r1, r1
    PUSH_TXT("r18");
    3d6e:	2f 93       	push	r18
    PUSH_TXT("r19");
    3d70:	3f 93       	push	r19
    PUSH_TXT("r30");
    3d72:	ef 93       	push	r30
    PUSH_TXT("r31");
    3d74:	ff 93       	push	r31
    PUSH_TXT("r26");
    3d76:	af 93       	push	r26
    PUSH_TXT("r27");
    3d78:	bf 93       	push	r27
    PUSH_TXT("r25");
    3d7a:	9f 93       	push	r25
    l = liczba_odebranych_znakow_SIM900;
    3d7c:	20 91 4d 05 	lds	r18, 0x054D	; 0x80054d <liczba_odebranych_znakow_SIM900>
    3d80:	30 91 4e 05 	lds	r19, 0x054E	; 0x80054e <liczba_odebranych_znakow_SIM900+0x1>
    if ( tmp != 0xFF )
    3d84:	8f 3f       	cpi	r24, 0xFF	; 255
    3d86:	09 f4       	brne	.+2      	; 0x3d8a <__vector_20+0x3e>
    3d88:	e5 c0       	rjmp	.+458    	; 0x3f54 <__vector_20+0x208>
    {
        ptr = odebrany_blok_SIM900;
    3d8a:	e7 eb       	ldi	r30, 0xB7	; 183
    3d8c:	f3 e0       	ldi	r31, 0x03	; 3
        if ( l < MAX_LICZBA_ODBIERANYCH_ZNAKOW_SIM900 )
    3d8e:	a9 01       	movw	r20, r18
    3d90:	20 39       	cpi	r18, 0x90	; 144
    3d92:	91 e0       	ldi	r25, 0x01	; 1
    3d94:	39 07       	cpc	r19, r25
    3d96:	08 f0       	brcs	.+2      	; 0x3d9a <__vector_20+0x4e>
    3d98:	ca c0       	rjmp	.+404    	; 0x3f2e <__vector_20+0x1e2>
        {
            if ( l != 0 )
    3d9a:	21 15       	cp	r18, r1
    3d9c:	31 05       	cpc	r19, r1
    3d9e:	59 f1       	breq	.+86     	; 0x3df6 <__vector_20+0xaa>
            {
                tmp = *ptr;
    3da0:	90 91 b7 03 	lds	r25, 0x03B7	; 0x8003b7 <odebrany_blok_SIM900>
                if ( znak_UDR == ZNAK_KONCA_WYSYLANIA_ZNAKOW_CR 
    3da4:	8d 30       	cpi	r24, 0x0D	; 13
    3da6:	09 f5       	brne	.+66     	; 0x3dea <__vector_20+0x9e>
                     && tmp != ZNAK_KONCA_WYSYLANIA_ZNAKOW_CR
    3da8:	9d 30       	cpi	r25, 0x0D	; 13
    3daa:	f9 f0       	breq	.+62     	; 0x3dea <__vector_20+0x9e>
                     && tmp != ZNAK_KONCA_ODBIERANIA_ZNAKOW_LF )
    3dac:	9a 30       	cpi	r25, 0x0A	; 10
    3dae:	e9 f0       	breq	.+58     	; 0x3dea <__vector_20+0x9e>
                {
                    if ( !czy_jest_nowe_polecenie_SIM900 )
    3db0:	90 91 b2 03 	lds	r25, 0x03B2	; 0x8003b2 <czy_jest_nowe_polecenie_SIM900>
    3db4:	91 11       	cpse	r25, r1
    3db6:	19 c0       	rjmp	.+50     	; 0x3dea <__vector_20+0x9e>
                    {
                        komenda_SIM900 = KOMENDA_SIM900_WYSLANE_POLECENIE;
    3db8:	91 e8       	ldi	r25, 0x81	; 129
    3dba:	90 93 38 02 	sts	0x0238, r25	; 0x800238 <komenda_SIM900>
                        zakoncz_odbieranie_SIM900();
    3dbe:	45 9a       	sbi	0x08, 5	; 8
    3dc0:	f8 94       	cli
    3dc2:	90 91 c1 00 	lds	r25, 0x00C1	; 0x8000c1 <__TEXT_REGION_LENGTH__+0x7e00c1>
    3dc6:	9f 77       	andi	r25, 0x7F	; 127
    3dc8:	90 93 c1 00 	sts	0x00C1, r25	; 0x8000c1 <__TEXT_REGION_LENGTH__+0x7e00c1>
    3dcc:	90 b7       	in	r25, 0x30	; 48
    3dce:	9d 7f       	andi	r25, 0xFD	; 253
    3dd0:	90 bf       	out	0x30, r25	; 48
    3dd2:	78 94       	sei
    3dd4:	00 00       	nop
                        poczatek_polecenia_SIM900 = 0;
    3dd6:	10 92 b6 03 	sts	0x03B6, r1	; 0x8003b6 <poczatek_polecenia_SIM900+0x1>
    3dda:	10 92 b5 03 	sts	0x03B5, r1	; 0x8003b5 <poczatek_polecenia_SIM900>
                        zakonczenie_polecenia_SIM900 = 0;
    3dde:	10 92 4b 05 	sts	0x054B, r1	; 0x80054b <zakonczenie_polecenia_SIM900+0x1>
    3de2:	10 92 4a 05 	sts	0x054A, r1	; 0x80054a <zakonczenie_polecenia_SIM900>
                        czy_jest_nowe_polecenie_SIM900 = FALSE;
    3de6:	10 92 b2 03 	sts	0x03B2, r1	; 0x8003b2 <czy_jest_nowe_polecenie_SIM900>
                    }
                }
            }
            if ( (l == 0 || ptr[0] != ZNAK_KONCA_WYSYLANIA_ZNAKOW_CR )
    3dea:	21 15       	cp	r18, r1
    3dec:	31 05       	cpc	r19, r1
    3dee:	19 f0       	breq	.+6      	; 0x3df6 <__vector_20+0xaa>
    3df0:	90 81       	ld	r25, Z
    3df2:	9d 30       	cpi	r25, 0x0D	; 13
    3df4:	f9 f0       	breq	.+62     	; 0x3e34 <__vector_20+0xe8>
                 && znak_UDR == ZNAK_KONCA_ODBIERANIA_ZNAKOW_LF )
    3df6:	8a 30       	cpi	r24, 0x0A	; 10
    3df8:	e9 f4       	brne	.+58     	; 0x3e34 <__vector_20+0xe8>
            {
                if ( !czy_jest_nowe_polecenie_SIM900 )
    3dfa:	90 91 b2 03 	lds	r25, 0x03B2	; 0x8003b2 <czy_jest_nowe_polecenie_SIM900>
    3dfe:	91 11       	cpse	r25, r1
    3e00:	19 c0       	rjmp	.+50     	; 0x3e34 <__vector_20+0xe8>
                {
                    komenda_SIM900 = KOMENDA_SIM900_WYSLANE_POLECENIE;
    3e02:	91 e8       	ldi	r25, 0x81	; 129
    3e04:	90 93 38 02 	sts	0x0238, r25	; 0x800238 <komenda_SIM900>
                    zakoncz_odbieranie_SIM900();
    3e08:	45 9a       	sbi	0x08, 5	; 8
    3e0a:	f8 94       	cli
    3e0c:	90 91 c1 00 	lds	r25, 0x00C1	; 0x8000c1 <__TEXT_REGION_LENGTH__+0x7e00c1>
    3e10:	9f 77       	andi	r25, 0x7F	; 127
    3e12:	90 93 c1 00 	sts	0x00C1, r25	; 0x8000c1 <__TEXT_REGION_LENGTH__+0x7e00c1>
    3e16:	90 b7       	in	r25, 0x30	; 48
    3e18:	9d 7f       	andi	r25, 0xFD	; 253
    3e1a:	90 bf       	out	0x30, r25	; 48
    3e1c:	78 94       	sei
    3e1e:	00 00       	nop
                    poczatek_polecenia_SIM900 = 0;
    3e20:	10 92 b6 03 	sts	0x03B6, r1	; 0x8003b6 <poczatek_polecenia_SIM900+0x1>
    3e24:	10 92 b5 03 	sts	0x03B5, r1	; 0x8003b5 <poczatek_polecenia_SIM900>
                    zakonczenie_polecenia_SIM900 = 0;
    3e28:	10 92 4b 05 	sts	0x054B, r1	; 0x80054b <zakonczenie_polecenia_SIM900+0x1>
    3e2c:	10 92 4a 05 	sts	0x054A, r1	; 0x80054a <zakonczenie_polecenia_SIM900>
                    czy_jest_nowe_polecenie_SIM900 = FALSE;
    3e30:	10 92 b2 03 	sts	0x03B2, r1	; 0x8003b2 <czy_jest_nowe_polecenie_SIM900>
    3e34:	8f 01       	movw	r16, r30
    3e36:	a9 01       	movw	r20, r18
    3e38:	4f 5f       	subi	r20, 0xFF	; 255
    3e3a:	5f 4f       	sbci	r21, 0xFF	; 255
    3e3c:	df 01       	movw	r26, r30
    3e3e:	a2 0f       	add	r26, r18
    3e40:	b3 1f       	adc	r27, r19
                }
            }
            if ( CZY_ODBIERANIE_DANYCH_SIM900() && l > 3 
    3e42:	00 b6       	in	r0, 0x30	; 48
    3e44:	01 fe       	sbrs	r0, 1
    3e46:	5d c0       	rjmp	.+186    	; 0x3f02 <__vector_20+0x1b6>
    3e48:	24 30       	cpi	r18, 0x04	; 4
    3e4a:	31 05       	cpc	r19, r1
    3e4c:	08 f4       	brcc	.+2      	; 0x3e50 <__vector_20+0x104>
    3e4e:	59 c0       	rjmp	.+178    	; 0x3f02 <__vector_20+0x1b6>
                 && znak_UDR == ZNAK_KONCA_ODBIERANIA_ZNAKOW_LF 
    3e50:	8a 30       	cpi	r24, 0x0A	; 10
    3e52:	09 f0       	breq	.+2      	; 0x3e56 <__vector_20+0x10a>
    3e54:	56 c0       	rjmp	.+172    	; 0x3f02 <__vector_20+0x1b6>
                 && ptr[l-1] == ZNAK_KONCA_WYSYLANIA_ZNAKOW_CR
    3e56:	bd 01       	movw	r22, r26
    3e58:	61 50       	subi	r22, 0x01	; 1
    3e5a:	71 09       	sbc	r23, r1
    3e5c:	eb 01       	movw	r28, r22
    3e5e:	98 81       	ld	r25, Y
    3e60:	9d 30       	cpi	r25, 0x0D	; 13
    3e62:	09 f0       	breq	.+2      	; 0x3e66 <__vector_20+0x11a>
    3e64:	4e c0       	rjmp	.+156    	; 0x3f02 <__vector_20+0x1b6>
                 && ptr[l-2] != ZNAK_KONCA_ODBIERANIA_ZNAKOW_LF 
    3e66:	61 50       	subi	r22, 0x01	; 1
    3e68:	71 09       	sbc	r23, r1
    3e6a:	eb 01       	movw	r28, r22
    3e6c:	98 81       	ld	r25, Y
    3e6e:	9a 30       	cpi	r25, 0x0A	; 10
    3e70:	09 f4       	brne	.+2      	; 0x3e74 <__vector_20+0x128>
    3e72:	47 c0       	rjmp	.+142    	; 0x3f02 <__vector_20+0x1b6>
                 && ptr[l-3] != ZNAK_KONCA_WYSYLANIA_ZNAKOW_CR
    3e74:	61 50       	subi	r22, 0x01	; 1
    3e76:	71 09       	sbc	r23, r1
    3e78:	eb 01       	movw	r28, r22
    3e7a:	98 81       	ld	r25, Y
    3e7c:	9d 30       	cpi	r25, 0x0D	; 13
    3e7e:	09 f4       	brne	.+2      	; 0x3e82 <__vector_20+0x136>
    3e80:	40 c0       	rjmp	.+128    	; 0x3f02 <__vector_20+0x1b6>
                 && ptr[1] == ZNAK_KONCA_ODBIERANIA_ZNAKOW_LF
    3e82:	ef 01       	movw	r28, r30
    3e84:	91 81       	ldd	r25, Z+1	; 0x01
    3e86:	9a 30       	cpi	r25, 0x0A	; 10
    3e88:	e1 f5       	brne	.+120    	; 0x3f02 <__vector_20+0x1b6>
                 && ptr[0] == ZNAK_KONCA_WYSYLANIA_ZNAKOW_CR )
    3e8a:	90 81       	ld	r25, Z
    3e8c:	9d 30       	cpi	r25, 0x0D	; 13
    3e8e:	c9 f5       	brne	.+114    	; 0x3f02 <__vector_20+0x1b6>
            {
                poczatek_polecenia_SIM900 = zakonczenie_polecenia_SIM900;
    3e90:	60 91 4a 05 	lds	r22, 0x054A	; 0x80054a <zakonczenie_polecenia_SIM900>
    3e94:	70 91 4b 05 	lds	r23, 0x054B	; 0x80054b <zakonczenie_polecenia_SIM900+0x1>
    3e98:	70 93 b6 03 	sts	0x03B6, r23	; 0x8003b6 <poczatek_polecenia_SIM900+0x1>
    3e9c:	60 93 b5 03 	sts	0x03B5, r22	; 0x8003b5 <poczatek_polecenia_SIM900>
                zakonczenie_polecenia_SIM900 = l+1;
    3ea0:	50 93 4b 05 	sts	0x054B, r21	; 0x80054b <zakonczenie_polecenia_SIM900+0x1>
    3ea4:	40 93 4a 05 	sts	0x054A, r20	; 0x80054a <zakonczenie_polecenia_SIM900>
                ++czy_jest_nowe_polecenie_SIM900;
    3ea8:	90 91 b2 03 	lds	r25, 0x03B2	; 0x8003b2 <czy_jest_nowe_polecenie_SIM900>
    3eac:	9f 5f       	subi	r25, 0xFF	; 255
    3eae:	90 93 b2 03 	sts	0x03B2, r25	; 0x8003b2 <czy_jest_nowe_polecenie_SIM900>
                polozenie_otrzymanych_komend_SIM900[4] = polozenie_otrzymanych_komend_SIM900[3];
    3eb2:	60 91 59 05 	lds	r22, 0x0559	; 0x800559 <polozenie_otrzymanych_komend_SIM900+0x6>
    3eb6:	70 91 5a 05 	lds	r23, 0x055A	; 0x80055a <polozenie_otrzymanych_komend_SIM900+0x7>
    3eba:	70 93 5c 05 	sts	0x055C, r23	; 0x80055c <polozenie_otrzymanych_komend_SIM900+0x9>
    3ebe:	60 93 5b 05 	sts	0x055B, r22	; 0x80055b <polozenie_otrzymanych_komend_SIM900+0x8>
                polozenie_otrzymanych_komend_SIM900[3] = polozenie_otrzymanych_komend_SIM900[2];
    3ec2:	60 91 57 05 	lds	r22, 0x0557	; 0x800557 <polozenie_otrzymanych_komend_SIM900+0x4>
    3ec6:	70 91 58 05 	lds	r23, 0x0558	; 0x800558 <polozenie_otrzymanych_komend_SIM900+0x5>
    3eca:	70 93 5a 05 	sts	0x055A, r23	; 0x80055a <polozenie_otrzymanych_komend_SIM900+0x7>
    3ece:	60 93 59 05 	sts	0x0559, r22	; 0x800559 <polozenie_otrzymanych_komend_SIM900+0x6>
                polozenie_otrzymanych_komend_SIM900[2] = polozenie_otrzymanych_komend_SIM900[1];
    3ed2:	60 91 55 05 	lds	r22, 0x0555	; 0x800555 <polozenie_otrzymanych_komend_SIM900+0x2>
    3ed6:	70 91 56 05 	lds	r23, 0x0556	; 0x800556 <polozenie_otrzymanych_komend_SIM900+0x3>
    3eda:	70 93 58 05 	sts	0x0558, r23	; 0x800558 <polozenie_otrzymanych_komend_SIM900+0x5>
    3ede:	60 93 57 05 	sts	0x0557, r22	; 0x800557 <polozenie_otrzymanych_komend_SIM900+0x4>
                polozenie_otrzymanych_komend_SIM900[1] = poczatek_polecenia_SIM900;
    3ee2:	60 91 b5 03 	lds	r22, 0x03B5	; 0x8003b5 <poczatek_polecenia_SIM900>
    3ee6:	70 91 b6 03 	lds	r23, 0x03B6	; 0x8003b6 <poczatek_polecenia_SIM900+0x1>
    3eea:	70 93 56 05 	sts	0x0556, r23	; 0x800556 <polozenie_otrzymanych_komend_SIM900+0x3>
    3eee:	60 93 55 05 	sts	0x0555, r22	; 0x800555 <polozenie_otrzymanych_komend_SIM900+0x2>
                polozenie_otrzymanych_komend_SIM900[0] = zakonczenie_polecenia_SIM900;
    3ef2:	60 91 4a 05 	lds	r22, 0x054A	; 0x80054a <zakonczenie_polecenia_SIM900>
    3ef6:	70 91 4b 05 	lds	r23, 0x054B	; 0x80054b <zakonczenie_polecenia_SIM900+0x1>
    3efa:	70 93 54 05 	sts	0x0554, r23	; 0x800554 <polozenie_otrzymanych_komend_SIM900+0x1>
    3efe:	60 93 53 05 	sts	0x0553, r22	; 0x800553 <polozenie_otrzymanych_komend_SIM900>
            }
            if ( czekanie_na_odebranie_zachety != FALSE 
    3f02:	90 91 4c 05 	lds	r25, 0x054C	; 0x80054c <czekanie_na_odebranie_zachety>
    3f06:	99 23       	and	r25, r25
    3f08:	61 f0       	breq	.+24     	; 0x3f22 <__vector_20+0x1d6>
                 && l == 3 && znak_UDR == ' ' && odebrany_blok_SIM900[2] == '>' )
    3f0a:	23 30       	cpi	r18, 0x03	; 3
    3f0c:	31 05       	cpc	r19, r1
    3f0e:	49 f4       	brne	.+18     	; 0x3f22 <__vector_20+0x1d6>
    3f10:	80 32       	cpi	r24, 0x20	; 32
    3f12:	39 f4       	brne	.+14     	; 0x3f22 <__vector_20+0x1d6>
    3f14:	90 91 b9 03 	lds	r25, 0x03B9	; 0x8003b9 <odebrany_blok_SIM900+0x2>
    3f18:	9e 33       	cpi	r25, 0x3E	; 62
    3f1a:	19 f4       	brne	.+6      	; 0x3f22 <__vector_20+0x1d6>
            {
                flaga_odebrany_znak_zachety = TRUE;
    3f1c:	9f ef       	ldi	r25, 0xFF	; 255
    3f1e:	90 93 b3 03 	sts	0x03B3, r25	; 0x8003b3 <flaga_odebrany_znak_zachety>
            }
            ptr[l] = znak_UDR;
    3f22:	8c 93       	st	X, r24
            l = l + 1;
    3f24:	9a 01       	movw	r18, r20
            ptr[l] = '\0';
    3f26:	e4 0f       	add	r30, r20
    3f28:	f5 1f       	adc	r31, r21
    3f2a:	10 82       	st	Z, r1
    3f2c:	0f c0       	rjmp	.+30     	; 0x3f4c <__vector_20+0x200>
        }
        else
        {
            l = 0;
    3f2e:	30 e0       	ldi	r19, 0x00	; 0
    3f30:	20 e0       	ldi	r18, 0x00	; 0
            komenda_SIM900 = BLAD_SIM900;
    3f32:	80 e8       	ldi	r24, 0x80	; 128
    3f34:	80 93 38 02 	sts	0x0238, r24	; 0x800238 <komenda_SIM900>
            poczatek_polecenia_SIM900 = 0;
    3f38:	10 92 b6 03 	sts	0x03B6, r1	; 0x8003b6 <poczatek_polecenia_SIM900+0x1>
    3f3c:	10 92 b5 03 	sts	0x03B5, r1	; 0x8003b5 <poczatek_polecenia_SIM900>
            zakonczenie_polecenia_SIM900 = 0;
    3f40:	10 92 4b 05 	sts	0x054B, r1	; 0x80054b <zakonczenie_polecenia_SIM900+0x1>
    3f44:	10 92 4a 05 	sts	0x054A, r1	; 0x80054a <zakonczenie_polecenia_SIM900>
            czy_jest_nowe_polecenie_SIM900 = FALSE;
    3f48:	10 92 b2 03 	sts	0x03B2, r1	; 0x8003b2 <czy_jest_nowe_polecenie_SIM900>
        }
        liczba_odebranych_znakow_SIM900 = l;
    3f4c:	30 93 4e 05 	sts	0x054E, r19	; 0x80054e <liczba_odebranych_znakow_SIM900+0x1>
    3f50:	20 93 4d 05 	sts	0x054D, r18	; 0x80054d <liczba_odebranych_znakow_SIM900>
    }
    licznik_opoznienie_oczekiwania_na_bajt_SIM900 = 0;
    3f54:	10 92 5d 05 	sts	0x055D, r1	; 0x80055d <licznik_opoznienie_oczekiwania_na_bajt_SIM900>
    POP_TXT("r25");
    3f58:	9f 91       	pop	r25
    POP_TXT("r27");
    3f5a:	bf 91       	pop	r27
    POP_TXT("r26");
    3f5c:	af 91       	pop	r26
    POP_TXT("r31");
    3f5e:	ff 91       	pop	r31
    POP_TXT("r30");
    3f60:	ef 91       	pop	r30
    POP_TXT("r19");
    3f62:	3f 91       	pop	r19
    POP_TXT("r18");
    3f64:	2f 91       	pop	r18
    POP_TXT("__zero_reg__");
    3f66:	1f 90       	pop	r1
    POP(znak_UDR);
    3f68:	4f 91       	pop	r20
    if ( IS_HI(ACSR_SIM900, ACIS1) )
    3f6a:	00 b6       	in	r0, 0x30	; 48
    3f6c:	01 fe       	sbrs	r0, 1
    3f6e:	08 c0       	rjmp	.+16     	; 0x3f80 <__vector_20+0x234>
    {
        cli();
    3f70:	f8 94       	cli
        LDS(tmp, ADRES_UCSRB_SIM900);
    3f72:	80 91 c1 00 	lds	r24, 0x00C1	; 0x8000c1 <__TEXT_REGION_LENGTH__+0x7e00c1>
        ORI(tmp, BIT(RXCIE));
    3f76:	80 68       	ori	r24, 0x80	; 128
        STS(tmp, ADRES_UCSRB_SIM900);
    3f78:	80 93 c1 00 	sts	0x00C1, r24	; 0x8000c1 <__TEXT_REGION_LENGTH__+0x7e00c1>
        sei();
    3f7c:	78 94       	sei
        NOP();
    3f7e:	00 00       	nop
    }
    POP_TXT("r0");
    3f80:	0f 90       	pop	r0
#ifdef RAMPZ
    POP(tmp);
    3f82:	8f 91       	pop	r24
    RAMPZ = tmp;
    3f84:	8b bf       	out	0x3b, r24	; 59
#endif
    POP(tmp);
    3f86:	8f 91       	pop	r24
    SREG = tmp;
    3f88:	8f bf       	out	0x3f, r24	; 63
    POP(tmp);
    3f8a:	8f 91       	pop	r24
    reti();
    3f8c:	18 95       	reti

00003f8e <inicjalizacja_SIM900>:
    SET_LO(DDR_RTS_SIM900, RTS_WYJSCIE_SIM900);
}

void inicjalizacja_SIM900(void)
{
    UBRRL_SIM900 = VUBRR_FABRYCZNA_PREDKOSC_STARTOWA_SIM900 % 256;
    3f8e:	83 e0       	ldi	r24, 0x03	; 3
    3f90:	80 93 c4 00 	sts	0x00C4, r24	; 0x8000c4 <__TEXT_REGION_LENGTH__+0x7e00c4>
    UBRRH_SIM900 = VUBRR_FABRYCZNA_PREDKOSC_STARTOWA_SIM900 / 256;
    3f94:	10 92 c5 00 	sts	0x00C5, r1	; 0x8000c5 <__TEXT_REGION_LENGTH__+0x7e00c5>
    UCSRB_SIM900 |= BIT(TXEN) | BIT(RXEN);
    3f98:	e1 ec       	ldi	r30, 0xC1	; 193
    3f9a:	f0 e0       	ldi	r31, 0x00	; 0
    3f9c:	80 81       	ld	r24, Z
    3f9e:	88 61       	ori	r24, 0x18	; 24
    3fa0:	80 83       	st	Z, r24
    SET_LO2(PORT_UART_SIM900, TXD_WYJSCIE_SIM900, RXD_WEJSCIE_SIM900);
    3fa2:	8b b1       	in	r24, 0x0b	; 11
    3fa4:	8c 7f       	andi	r24, 0xFC	; 252
    3fa6:	8b b9       	out	0x0b, r24	; 11
    SET_LO(DDR_UART_SIM900, TXD_WYJSCIE_SIM900);
    3fa8:	51 98       	cbi	0x0a, 1	; 10
    SET_LO(PORT_CTS_SIM900, CTS_WEJSCIE_SIM900);
    3faa:	44 98       	cbi	0x08, 4	; 8
    SET_LO(PORT_RTS_SIM900, RTS_WYJSCIE_SIM900);
    3fac:	45 98       	cbi	0x08, 5	; 8
    SET_LO(DDR_RTS_SIM900, RTS_WYJSCIE_SIM900);
    3fae:	3d 98       	cbi	0x07, 5	; 7
    wylacz_piny_SIM900();
}
    3fb0:	08 95       	ret

00003fb2 <zakonczenie_procedury_inicjalizacyjnej>:

uchar licznik_100ms_procedura_inicjalizacyjna_SIM900 = 1;

uchar zakonczenie_procedury_inicjalizacyjnej(void)
{
    if ( STATUS_WLACZONY_SIM900() )
    3fb2:	4f 9b       	sbis	0x09, 7	; 9
    3fb4:	0f c0       	rjmp	.+30     	; 0x3fd4 <zakonczenie_procedury_inicjalizacyjnej+0x22>
    {
        licznik_100ms_procedura_inicjalizacyjna_SIM900 = 0;
    3fb6:	10 92 05 01 	sts	0x0105, r1	; 0x800105 <licznik_100ms_procedura_inicjalizacyjna_SIM900>
        liczba_odebranych_znakow_SIM900 = 0;
    3fba:	10 92 4e 05 	sts	0x054E, r1	; 0x80054e <liczba_odebranych_znakow_SIM900+0x1>
    3fbe:	10 92 4d 05 	sts	0x054D, r1	; 0x80054d <liczba_odebranych_znakow_SIM900>
    SET_HI(DDR_UART_SIM900, TXD_WYJSCIE_SIM900);
    3fc2:	51 9a       	sbi	0x0a, 1	; 10
    SET_HI2(PORT_UART_SIM900, TXD_WYJSCIE_SIM900, RXD_WEJSCIE_SIM900);
    3fc4:	8b b1       	in	r24, 0x0b	; 11
    3fc6:	83 60       	ori	r24, 0x03	; 3
    3fc8:	8b b9       	out	0x0b, r24	; 11
    SET_HI(DDR_RTS_SIM900, RTS_WYJSCIE_SIM900);
    3fca:	3d 9a       	sbi	0x07, 5	; 7
    SET_HI(PORT_RTS_SIM900, RTS_WYJSCIE_SIM900);
    3fcc:	45 9a       	sbi	0x08, 5	; 8
    SET_HI(PORT_CTS_SIM900, CTS_WEJSCIE_SIM900);
    3fce:	44 9a       	sbi	0x08, 4	; 8
    3fd0:	8f ef       	ldi	r24, 0xFF	; 255
    3fd2:	08 95       	ret
        ustaw_piny_SIM900();
        return TRUE;
    }
    return FALSE;
    3fd4:	80 e0       	ldi	r24, 0x00	; 0
}
    3fd6:	08 95       	ret

00003fd8 <procedura_inicjalizacyjna_SIM900_100MS>:

uchar procedura_inicjalizacyjna_SIM900_100MS(void)
{
    if ( licznik_100ms_procedura_inicjalizacyjna_SIM900 )
    3fd8:	80 91 05 01 	lds	r24, 0x0105	; 0x800105 <licznik_100ms_procedura_inicjalizacyjna_SIM900>
    3fdc:	88 23       	and	r24, r24
    3fde:	b9 f1       	breq	.+110    	; 0x404e <__DATA_REGION_LENGTH__+0x4e>
    {
        ++licznik_100ms_procedura_inicjalizacyjna_SIM900;
    3fe0:	91 e0       	ldi	r25, 0x01	; 1
    3fe2:	98 0f       	add	r25, r24
    3fe4:	90 93 05 01 	sts	0x0105, r25	; 0x800105 <licznik_100ms_procedura_inicjalizacyjna_SIM900>
        switch ( licznik_100ms_procedura_inicjalizacyjna_SIM900 )
    3fe8:	91 3a       	cpi	r25, 0xA1	; 161
    3fea:	39 f1       	breq	.+78     	; 0x403a <__DATA_REGION_LENGTH__+0x3a>
    3fec:	a8 f4       	brcc	.+42     	; 0x4018 <__DATA_REGION_LENGTH__+0x18>
    3fee:	9f 30       	cpi	r25, 0x0F	; 15
    3ff0:	d9 f0       	breq	.+54     	; 0x4028 <__DATA_REGION_LENGTH__+0x28>
    3ff2:	30 f4       	brcc	.+12     	; 0x4000 <__DATA_REGION_LENGTH__>
    3ff4:	92 30       	cpi	r25, 0x02	; 2
    3ff6:	d1 f0       	breq	.+52     	; 0x402c <__DATA_REGION_LENGTH__+0x2c>
    3ff8:	93 30       	cpi	r25, 0x03	; 3
    3ffa:	e9 f0       	breq	.+58     	; 0x4036 <__DATA_REGION_LENGTH__+0x36>
            break;
        }
        case 255: WYKONAJ_PROCEDURE_INICJALIZACYJNA_SIM900(); break;
        }
    }
    return FALSE;
    3ffc:	80 e0       	ldi	r24, 0x00	; 0
        case 15: WYLACZ_PWRKEY_SIM900(); break;
    3ffe:	08 95       	ret
        switch ( licznik_100ms_procedura_inicjalizacyjna_SIM900 )
    4000:	87 52       	subi	r24, 0x27	; 39
    4002:	84 30       	cpi	r24, 0x04	; 4
    4004:	d8 f7       	brcc	.-10     	; 0x3ffc <procedura_inicjalizacyjna_SIM900_100MS+0x24>
            if ( zakonczenie_procedury_inicjalizacyjnej() )
    4006:	0e 94 d9 1f 	call	0x3fb2	; 0x3fb2 <zakonczenie_procedury_inicjalizacyjnej>
    400a:	91 e0       	ldi	r25, 0x01	; 1
    400c:	81 11       	cpse	r24, r1
    400e:	01 c0       	rjmp	.+2      	; 0x4012 <__DATA_REGION_LENGTH__+0x12>
    4010:	90 e0       	ldi	r25, 0x00	; 0
    4012:	89 2f       	mov	r24, r25
    4014:	81 95       	neg	r24
    4016:	08 95       	ret
        switch ( licznik_100ms_procedura_inicjalizacyjna_SIM900 )
    4018:	9f 3f       	cpi	r25, 0xFF	; 255
    401a:	a0 f4       	brcc	.+40     	; 0x4044 <__DATA_REGION_LENGTH__+0x44>
    401c:	95 3f       	cpi	r25, 0xF5	; 245
    401e:	98 f7       	brcc	.-26     	; 0x4006 <__DATA_REGION_LENGTH__+0x6>
    4020:	98 3c       	cpi	r25, 0xC8	; 200
    4022:	49 f0       	breq	.+18     	; 0x4036 <__DATA_REGION_LENGTH__+0x36>
    4024:	97 3d       	cpi	r25, 0xD7	; 215
    4026:	51 f7       	brne	.-44     	; 0x3ffc <procedura_inicjalizacyjna_SIM900_100MS+0x24>
        case 15: WYLACZ_PWRKEY_SIM900(); break;
    4028:	56 98       	cbi	0x0a, 6	; 10
    402a:	e8 cf       	rjmp	.-48     	; 0x3ffc <procedura_inicjalizacyjna_SIM900_100MS+0x24>
            WYLACZ_PWRKEY_SIM900();
    402c:	56 98       	cbi	0x0a, 6	; 10
            if ( zakonczenie_procedury_inicjalizacyjnej() )
    402e:	0e 94 d9 1f 	call	0x3fb2	; 0x3fb2 <zakonczenie_procedury_inicjalizacyjnej>
    4032:	81 11       	cpse	r24, r1
    4034:	0b c0       	rjmp	.+22     	; 0x404c <__DATA_REGION_LENGTH__+0x4c>
        case 200: WLACZ_PWRKEY_SIM900(); break;
    4036:	56 9a       	sbi	0x0a, 6	; 10
    4038:	e1 cf       	rjmp	.-62     	; 0x3ffc <procedura_inicjalizacyjna_SIM900_100MS+0x24>
            podlaczony_modul_gsm_SIM900 = FALSE;
    403a:	10 92 37 02 	sts	0x0237, r1	; 0x800237 <podlaczony_modul_gsm_SIM900>
            podlaczona_karta_SIM_SIM900 = FALSE;
    403e:	10 92 36 02 	sts	0x0236, r1	; 0x800236 <podlaczona_karta_SIM_SIM900>
    4042:	dc cf       	rjmp	.-72     	; 0x3ffc <procedura_inicjalizacyjna_SIM900_100MS+0x24>
        case 255: WYKONAJ_PROCEDURE_INICJALIZACYJNA_SIM900(); break;
    4044:	81 e0       	ldi	r24, 0x01	; 1
    4046:	80 93 05 01 	sts	0x0105, r24	; 0x800105 <licznik_100ms_procedura_inicjalizacyjna_SIM900>
    404a:	d8 cf       	rjmp	.-80     	; 0x3ffc <procedura_inicjalizacyjna_SIM900_100MS+0x24>
                return TRUE;
    404c:	8f ef       	ldi	r24, 0xFF	; 255
    404e:	08 95       	ret

00004050 <porownaj_znaki>:

uchar poziom_sieci_gsm = POZIOM_SIECI_BLAD;

uchar porownaj_znaki(PGM_P polecenie, const uint poczatek, 
	const uchar liczba_znakow, const uint odebrane)
{
    4050:	fc 01       	movw	r30, r24
	if ( liczba_znakow <= odebrane )
    4052:	42 17       	cp	r20, r18
    4054:	13 06       	cpc	r1, r19
    4056:	09 f0       	breq	.+2      	; 0x405a <porownaj_znaki+0xa>
    4058:	40 f4       	brcc	.+16     	; 0x406a <porownaj_znaki+0x1a>
	{
		uchar* w = &odebrany_blok_SIM900[poczatek];
    405a:	db 01       	movw	r26, r22
    405c:	a9 54       	subi	r26, 0x49	; 73
    405e:	bc 4f       	sbci	r27, 0xFC	; 252
		uchar l = 0;
    4060:	90 e0       	ldi	r25, 0x00	; 0
		while ( l < liczba_znakow && *w == pgm_read_byte(polecenie) )
    4062:	49 13       	cpse	r20, r25
    4064:	04 c0       	rjmp	.+8      	; 0x406e <porownaj_znaki+0x1e>
			++w, ++polecenie, ++l;
		return l == liczba_znakow;
    4066:	81 e0       	ldi	r24, 0x01	; 1
    4068:	49 13       	cpse	r20, r25
	}
	return FALSE;
    406a:	80 e0       	ldi	r24, 0x00	; 0
}
    406c:	08 95       	ret
		while ( l < liczba_znakow && *w == pgm_read_byte(polecenie) )
    406e:	2d 91       	ld	r18, X+
    4070:	84 91       	lpm	r24, Z
    4072:	28 13       	cpse	r18, r24
    4074:	f8 cf       	rjmp	.-16     	; 0x4066 <porownaj_znaki+0x16>
			++w, ++polecenie, ++l;
    4076:	31 96       	adiw	r30, 0x01	; 1
    4078:	9f 5f       	subi	r25, 0xFF	; 255
    407a:	f3 cf       	rjmp	.-26     	; 0x4062 <porownaj_znaki+0x12>

0000407c <resetuj_polecenie_konczace>:

void resetuj_polecenie_konczace(void)
{
	const uchar sreg = SREG;
    407c:	8f b7       	in	r24, 0x3f	; 63
	cli();
    407e:	f8 94       	cli
	poczatek_polecenia_SIM900 = 0;
    4080:	10 92 b6 03 	sts	0x03B6, r1	; 0x8003b6 <poczatek_polecenia_SIM900+0x1>
    4084:	10 92 b5 03 	sts	0x03B5, r1	; 0x8003b5 <poczatek_polecenia_SIM900>
	zakonczenie_polecenia_SIM900 = 0;
    4088:	10 92 4b 05 	sts	0x054B, r1	; 0x80054b <zakonczenie_polecenia_SIM900+0x1>
    408c:	10 92 4a 05 	sts	0x054A, r1	; 0x80054a <zakonczenie_polecenia_SIM900>
	SREG = sreg;
    4090:	8f bf       	out	0x3f, r24	; 63
	return;
}
    4092:	08 95       	ret

00004094 <polecenia_konczace_gsm>:
#define MAX_LICZBA_ZAREJESTROWANYCH_KOMEND_OD_SIM900	(2*LICZBA_POLOZEN_OTRZYMANYCH_KOMEND_SIM900)
enum KomendySIM900 zarejestrowane_komendy_od_SIM900[MAX_LICZBA_ZAREJESTROWANYCH_KOMEND_OD_SIM900];
uchar liczba_komend_w_kolejce_SIM900;

uchar polecenia_konczace_gsm(void)
{
    4094:	2f 92       	push	r2
    4096:	3f 92       	push	r3
    4098:	4f 92       	push	r4
    409a:	5f 92       	push	r5
    409c:	6f 92       	push	r6
    409e:	7f 92       	push	r7
    40a0:	8f 92       	push	r8
    40a2:	9f 92       	push	r9
    40a4:	af 92       	push	r10
    40a6:	bf 92       	push	r11
    40a8:	cf 92       	push	r12
    40aa:	df 92       	push	r13
    40ac:	ef 92       	push	r14
    40ae:	ff 92       	push	r15
    40b0:	0f 93       	push	r16
    40b2:	1f 93       	push	r17
    40b4:	cf 93       	push	r28
    40b6:	df 93       	push	r29
    40b8:	48 e0       	ldi	r20, 0x08	; 8
    40ba:	b4 2e       	mov	r11, r20
			continue;
		}
		static const char polecenie_BUSY[] PROGMEM = "BUSY";
		if ( d0 == 'Y' && czy_polecenie_sim(polecenie_BUSY) )
		{
			zarejestrowane_komendy_od_SIM900[liczba_komend_w_kolejce_SIM900++] = BUSY_KOMENDA_SIM900;
    40bc:	57 e0       	ldi	r21, 0x07	; 7
    40be:	85 2e       	mov	r8, r21
			zarejestrowane_komendy_od_SIM900[liczba_komend_w_kolejce_SIM900++] = NO_DIALTONE_KOMENDA_SIM900;
    40c0:	69 e0       	ldi	r22, 0x09	; 9
    40c2:	96 2e       	mov	r9, r22
			zarejestrowane_komendy_od_SIM900[liczba_komend_w_kolejce_SIM900++] = NO_CARRIER_KOMENDA_SIM900;
    40c4:	73 e0       	ldi	r23, 0x03	; 3
    40c6:	77 2e       	mov	r7, r23
			zarejestrowane_komendy_od_SIM900[liczba_komend_w_kolejce_SIM900++] = CMTI_KOMENDA_SIM900;
    40c8:	e8 e0       	ldi	r30, 0x08	; 8
    40ca:	6e 2e       	mov	r6, r30
			zarejestrowane_komendy_od_SIM900[liczba_komend_w_kolejce_SIM900++] = DTMF_KOMENDA_SIM900;
    40cc:	f5 e1       	ldi	r31, 0x15	; 21
    40ce:	5f 2e       	mov	r5, r31
			zarejestrowane_komendy_od_SIM900[liczba_komend_w_kolejce_SIM900++] = MO_RING_KOMENDA_SIM900;
    40d0:	a2 e0       	ldi	r26, 0x02	; 2
    40d2:	4a 2e       	mov	r4, r26
			zarejestrowane_komendy_od_SIM900[liczba_komend_w_kolejce_SIM900++] = CMGS_KOMENDA_SIM900;
    40d4:	bd e0       	ldi	r27, 0x0D	; 13
    40d6:	3b 2e       	mov	r3, r27
			zarejestrowane_komendy_od_SIM900[liczba_komend_w_kolejce_SIM900++] = OK_KOMENDA_SIM900;
    40d8:	22 24       	eor	r2, r2
    40da:	23 94       	inc	r2
		const uchar sreg = SREG;
    40dc:	9f b7       	in	r25, 0x3f	; 63
		cli();
    40de:	f8 94       	cli
		uchar pom = czy_jest_nowe_polecenie_SIM900;
    40e0:	80 91 b2 03 	lds	r24, 0x03B2	; 0x8003b2 <czy_jest_nowe_polecenie_SIM900>
		if ( !pom )
    40e4:	81 11       	cpse	r24, r1
    40e6:	28 c0       	rjmp	.+80     	; 0x4138 <__stack+0x39>
			SREG = sreg;
    40e8:	9f bf       	out	0x3f, r25	; 63
			if ( liczba_komend_w_kolejce_SIM900 != 0 )
    40ea:	80 91 68 05 	lds	r24, 0x0568	; 0x800568 <liczba_komend_w_kolejce_SIM900>
    40ee:	88 23       	and	r24, r24
    40f0:	01 f1       	breq	.+64     	; 0x4132 <__stack+0x33>
				komenda_SIM900 = zarejestrowane_komendy_od_SIM900[--liczba_komend_w_kolejce_SIM900];
    40f2:	81 50       	subi	r24, 0x01	; 1
    40f4:	80 93 68 05 	sts	0x0568, r24	; 0x800568 <liczba_komend_w_kolejce_SIM900>
    40f8:	e8 2f       	mov	r30, r24
    40fa:	f0 e0       	ldi	r31, 0x00	; 0
    40fc:	e2 5a       	subi	r30, 0xA2	; 162
    40fe:	fa 4f       	sbci	r31, 0xFA	; 250
    4100:	80 81       	ld	r24, Z
    4102:	80 93 38 02 	sts	0x0238, r24	; 0x800238 <komenda_SIM900>
				zarejestrowane_komendy_od_SIM900[liczba_komend_w_kolejce_SIM900] = BRAK_KOMENDY_SIM900;
    4106:	10 82       	st	Z, r1
				return komenda_SIM900;
    4108:	80 91 38 02 	lds	r24, 0x0238	; 0x800238 <komenda_SIM900>
			zarejestrowane_komendy_od_SIM900[liczba_komend_w_kolejce_SIM900++] = CUSD_KOMENDA_SIM900;
			continue;
		}
	}
	return BRAK_KOMENDY_SIM900;
}
    410c:	df 91       	pop	r29
    410e:	cf 91       	pop	r28
    4110:	1f 91       	pop	r17
    4112:	0f 91       	pop	r16
    4114:	ff 90       	pop	r15
    4116:	ef 90       	pop	r14
    4118:	df 90       	pop	r13
    411a:	cf 90       	pop	r12
    411c:	bf 90       	pop	r11
    411e:	af 90       	pop	r10
    4120:	9f 90       	pop	r9
    4122:	8f 90       	pop	r8
    4124:	7f 90       	pop	r7
    4126:	6f 90       	pop	r6
    4128:	5f 90       	pop	r5
    412a:	4f 90       	pop	r4
    412c:	3f 90       	pop	r3
    412e:	2f 90       	pop	r2
    4130:	08 95       	ret
			return komenda_SIM900 = BRAK_KOMENDY_SIM900;
    4132:	10 92 38 02 	sts	0x0238, r1	; 0x800238 <komenda_SIM900>
    4136:	ea cf       	rjmp	.-44     	; 0x410c <__stack+0xd>
    4138:	85 30       	cpi	r24, 0x05	; 5
    413a:	08 f0       	brcs	.+2      	; 0x413e <__stack+0x3f>
    413c:	84 e0       	ldi	r24, 0x04	; 4
		const uint poczatek = polozenie_otrzymanych_komend_SIM900[pom];
    413e:	e8 2f       	mov	r30, r24
    4140:	f0 e0       	ldi	r31, 0x00	; 0
    4142:	ee 0f       	add	r30, r30
    4144:	ff 1f       	adc	r31, r31
    4146:	ed 5a       	subi	r30, 0xAD	; 173
    4148:	fa 4f       	sbci	r31, 0xFA	; 250
    414a:	c0 80       	ld	r12, Z
    414c:	d1 80       	ldd	r13, Z+1	; 0x01
		polozenie_otrzymanych_komend_SIM900[pom] = 0;
    414e:	11 82       	std	Z+1, r1	; 0x01
    4150:	10 82       	st	Z, r1
		const uint zakonczenie = polozenie_otrzymanych_komend_SIM900[--pom];
    4152:	81 50       	subi	r24, 0x01	; 1
    4154:	e8 2f       	mov	r30, r24
    4156:	f0 e0       	ldi	r31, 0x00	; 0
    4158:	ee 0f       	add	r30, r30
    415a:	ff 1f       	adc	r31, r31
    415c:	ed 5a       	subi	r30, 0xAD	; 173
    415e:	fa 4f       	sbci	r31, 0xFA	; 250
    4160:	20 81       	ld	r18, Z
    4162:	31 81       	ldd	r19, Z+1	; 0x01
		czy_jest_nowe_polecenie_SIM900 = pom;
    4164:	80 93 b2 03 	sts	0x03B2, r24	; 0x8003b2 <czy_jest_nowe_polecenie_SIM900>
		SREG = sreg;
    4168:	9f bf       	out	0x3f, r25	; 63
		if ( zakonczenie <= poczatek )
    416a:	c2 16       	cp	r12, r18
    416c:	d3 06       	cpc	r13, r19
    416e:	98 f5       	brcc	.+102    	; 0x41d6 <__stack+0xd7>
		if ( liczba_komend_w_kolejce_SIM900 >= MAX_LICZBA_ZAREJESTROWANYCH_KOMEND_OD_SIM900 )
    4170:	80 91 68 05 	lds	r24, 0x0568	; 0x800568 <liczba_komend_w_kolejce_SIM900>
    4174:	8a 30       	cpi	r24, 0x0A	; 10
    4176:	10 f0       	brcs	.+4      	; 0x417c <__stack+0x7d>
			liczba_komend_w_kolejce_SIM900 = MAX_LICZBA_ZAREJESTROWANYCH_KOMEND_OD_SIM900 - 1;
    4178:	90 92 68 05 	sts	0x0568, r9	; 0x800568 <liczba_komend_w_kolejce_SIM900>
		const uint z = zakonczenie - poczatek - 4;
    417c:	e9 01       	movw	r28, r18
    417e:	cc 19       	sub	r28, r12
    4180:	dd 09       	sbc	r29, r13
    4182:	24 97       	sbiw	r28, 0x04	; 4
		const uint p = poczatek+2;
    4184:	86 01       	movw	r16, r12
    4186:	0e 5f       	subi	r16, 0xFE	; 254
    4188:	1f 4f       	sbci	r17, 0xFF	; 255
		const uchar d0 = odebrany_blok_SIM900[zakonczenie-3];
    418a:	c9 01       	movw	r24, r18
    418c:	89 54       	subi	r24, 0x49	; 73
    418e:	9c 4f       	sbci	r25, 0xFC	; 252
    4190:	fc 01       	movw	r30, r24
    4192:	33 97       	sbiw	r30, 0x03	; 3
    4194:	e0 80       	ld	r14, Z
		const uchar d1 = odebrany_blok_SIM900[zakonczenie-4];
    4196:	31 97       	sbiw	r30, 0x01	; 1
    4198:	a0 80       	ld	r10, Z
		const uchar d5 = odebrany_blok_SIM900[poczatek+5];
    419a:	f6 01       	movw	r30, r12
    419c:	e9 54       	subi	r30, 0x49	; 73
    419e:	fc 4f       	sbci	r31, 0xFC	; 252
    41a0:	f5 80       	ldd	r15, Z+5	; 0x05
		if ( d0 == 'K' && d1 == 'O' && d2 != ' ' && zakonczenie > 5 )
    41a2:	4b e4       	ldi	r20, 0x4B	; 75
    41a4:	e4 12       	cpse	r14, r20
    41a6:	1c c0       	rjmp	.+56     	; 0x41e0 <__stack+0xe1>
    41a8:	ef e4       	ldi	r30, 0x4F	; 79
    41aa:	ae 12       	cpse	r10, r30
    41ac:	4a c1       	rjmp	.+660    	; 0x4442 <__stack+0x343>
		const uchar d2 = odebrany_blok_SIM900[zakonczenie-5];
    41ae:	05 97       	sbiw	r24, 0x05	; 5
		if ( d0 == 'K' && d1 == 'O' && d2 != ' ' && zakonczenie > 5 )
    41b0:	fc 01       	movw	r30, r24
    41b2:	80 81       	ld	r24, Z
    41b4:	80 32       	cpi	r24, 0x20	; 32
    41b6:	09 f4       	brne	.+2      	; 0x41ba <__stack+0xbb>
    41b8:	60 c1       	rjmp	.+704    	; 0x447a <__stack+0x37b>
    41ba:	26 30       	cpi	r18, 0x06	; 6
    41bc:	31 05       	cpc	r19, r1
    41be:	08 f4       	brcc	.+2      	; 0x41c2 <__stack+0xc3>
    41c0:	5c c1       	rjmp	.+696    	; 0x447a <__stack+0x37b>
			zarejestrowane_komendy_od_SIM900[liczba_komend_w_kolejce_SIM900++] = OK_KOMENDA_SIM900;
    41c2:	e0 91 68 05 	lds	r30, 0x0568	; 0x800568 <liczba_komend_w_kolejce_SIM900>
    41c6:	81 e0       	ldi	r24, 0x01	; 1
    41c8:	8e 0f       	add	r24, r30
    41ca:	80 93 68 05 	sts	0x0568, r24	; 0x800568 <liczba_komend_w_kolejce_SIM900>
    41ce:	f0 e0       	ldi	r31, 0x00	; 0
    41d0:	e2 5a       	subi	r30, 0xA2	; 162
    41d2:	fa 4f       	sbci	r31, 0xFA	; 250
    41d4:	20 82       	st	Z, r2
    41d6:	ba 94       	dec	r11
	for(uchar i = 8; i != 0; --i)
    41d8:	b1 10       	cpse	r11, r1
    41da:	80 cf       	rjmp	.-256    	; 0x40dc <polecenia_konczace_gsm+0x48>
	return BRAK_KOMENDY_SIM900;
    41dc:	80 e0       	ldi	r24, 0x00	; 0
    41de:	96 cf       	rjmp	.-212    	; 0x410c <__stack+0xd>
		if ( d5 == 'G' && czy_polecenie_sim(polecenie_CMGS) )
    41e0:	f7 e4       	ldi	r31, 0x47	; 71
    41e2:	ff 12       	cpse	r15, r31
    41e4:	14 c0       	rjmp	.+40     	; 0x420e <__stack+0x10f>
    41e6:	9e 01       	movw	r18, r28
    41e8:	46 e0       	ldi	r20, 0x06	; 6
    41ea:	b8 01       	movw	r22, r16
    41ec:	8b ed       	ldi	r24, 0xDB	; 219
    41ee:	93 e0       	ldi	r25, 0x03	; 3
    41f0:	0e 94 28 20 	call	0x4050	; 0x4050 <porownaj_znaki>
    41f4:	88 23       	and	r24, r24
    41f6:	59 f0       	breq	.+22     	; 0x420e <__stack+0x10f>
			zarejestrowane_komendy_od_SIM900[liczba_komend_w_kolejce_SIM900++] = CMGS_KOMENDA_SIM900;
    41f8:	e0 91 68 05 	lds	r30, 0x0568	; 0x800568 <liczba_komend_w_kolejce_SIM900>
    41fc:	81 e0       	ldi	r24, 0x01	; 1
    41fe:	8e 0f       	add	r24, r30
    4200:	80 93 68 05 	sts	0x0568, r24	; 0x800568 <liczba_komend_w_kolejce_SIM900>
    4204:	f0 e0       	ldi	r31, 0x00	; 0
    4206:	e2 5a       	subi	r30, 0xA2	; 162
    4208:	fa 4f       	sbci	r31, 0xFA	; 250
    420a:	30 82       	st	Z, r3
			continue;
    420c:	e4 cf       	rjmp	.-56     	; 0x41d6 <__stack+0xd7>
		if ( d1 == 'O' && czy_polecenie_sim(polecenie_ERROR) )
    420e:	4f e4       	ldi	r20, 0x4F	; 79
    4210:	a4 12       	cpse	r10, r20
    4212:	15 c0       	rjmp	.+42     	; 0x423e <__stack+0x13f>
    4214:	9e 01       	movw	r18, r28
    4216:	45 e0       	ldi	r20, 0x05	; 5
    4218:	b8 01       	movw	r22, r16
    421a:	85 ed       	ldi	r24, 0xD5	; 213
    421c:	93 e0       	ldi	r25, 0x03	; 3
    421e:	0e 94 28 20 	call	0x4050	; 0x4050 <porownaj_znaki>
    4222:	88 23       	and	r24, r24
    4224:	61 f0       	breq	.+24     	; 0x423e <__stack+0x13f>
			zarejestrowane_komendy_od_SIM900[liczba_komend_w_kolejce_SIM900++] = ERROR_KOMENDA_SIM900;
    4226:	e0 91 68 05 	lds	r30, 0x0568	; 0x800568 <liczba_komend_w_kolejce_SIM900>
    422a:	81 e0       	ldi	r24, 0x01	; 1
    422c:	8e 0f       	add	r24, r30
    422e:	80 93 68 05 	sts	0x0568, r24	; 0x800568 <liczba_komend_w_kolejce_SIM900>
    4232:	f0 e0       	ldi	r31, 0x00	; 0
    4234:	e2 5a       	subi	r30, 0xA2	; 162
    4236:	fa 4f       	sbci	r31, 0xFA	; 250
    4238:	84 e0       	ldi	r24, 0x04	; 4
			zarejestrowane_komendy_od_SIM900[liczba_komend_w_kolejce_SIM900++] = MO_CONNECTED_KOMENDA_SIM900;
    423a:	80 83       	st	Z, r24
			continue;
    423c:	cc cf       	rjmp	.-104    	; 0x41d6 <__stack+0xd7>
		if ( d0 == 'G' && czy_polecenie_sim(polecenie_MO_RING) )
    423e:	e7 e4       	ldi	r30, 0x47	; 71
    4240:	ee 12       	cpse	r14, r30
    4242:	15 c0       	rjmp	.+42     	; 0x426e <__stack+0x16f>
    4244:	9e 01       	movw	r18, r28
    4246:	47 e0       	ldi	r20, 0x07	; 7
    4248:	b8 01       	movw	r22, r16
    424a:	8d ec       	ldi	r24, 0xCD	; 205
    424c:	93 e0       	ldi	r25, 0x03	; 3
    424e:	0e 94 28 20 	call	0x4050	; 0x4050 <porownaj_znaki>
    4252:	88 23       	and	r24, r24
    4254:	09 f4       	brne	.+2      	; 0x4258 <__stack+0x159>
    4256:	f9 c0       	rjmp	.+498    	; 0x444a <__stack+0x34b>
			zarejestrowane_komendy_od_SIM900[liczba_komend_w_kolejce_SIM900++] = MO_RING_KOMENDA_SIM900;
    4258:	e0 91 68 05 	lds	r30, 0x0568	; 0x800568 <liczba_komend_w_kolejce_SIM900>
    425c:	81 e0       	ldi	r24, 0x01	; 1
    425e:	8e 0f       	add	r24, r30
    4260:	80 93 68 05 	sts	0x0568, r24	; 0x800568 <liczba_komend_w_kolejce_SIM900>
    4264:	f0 e0       	ldi	r31, 0x00	; 0
    4266:	e2 5a       	subi	r30, 0xA2	; 162
    4268:	fa 4f       	sbci	r31, 0xFA	; 250
    426a:	40 82       	st	Z, r4
			continue;
    426c:	b4 cf       	rjmp	.-152    	; 0x41d6 <__stack+0xd7>
		if ( d0 == 'D' && czy_polecenie_sim(polecenie_MO_CONNECTED) )
    426e:	f4 e4       	ldi	r31, 0x44	; 68
    4270:	ef 12       	cpse	r14, r31
    4272:	eb c0       	rjmp	.+470    	; 0x444a <__stack+0x34b>
    4274:	9e 01       	movw	r18, r28
    4276:	4c e0       	ldi	r20, 0x0C	; 12
    4278:	b8 01       	movw	r22, r16
    427a:	80 ec       	ldi	r24, 0xC0	; 192
    427c:	93 e0       	ldi	r25, 0x03	; 3
    427e:	0e 94 28 20 	call	0x4050	; 0x4050 <porownaj_znaki>
    4282:	88 23       	and	r24, r24
    4284:	09 f4       	brne	.+2      	; 0x4288 <__stack+0x189>
    4286:	e1 c0       	rjmp	.+450    	; 0x444a <__stack+0x34b>
			zarejestrowane_komendy_od_SIM900[liczba_komend_w_kolejce_SIM900++] = MO_CONNECTED_KOMENDA_SIM900;
    4288:	e0 91 68 05 	lds	r30, 0x0568	; 0x800568 <liczba_komend_w_kolejce_SIM900>
    428c:	81 e0       	ldi	r24, 0x01	; 1
    428e:	8e 0f       	add	r24, r30
    4290:	80 93 68 05 	sts	0x0568, r24	; 0x800568 <liczba_komend_w_kolejce_SIM900>
    4294:	f0 e0       	ldi	r31, 0x00	; 0
    4296:	e2 5a       	subi	r30, 0xA2	; 162
    4298:	fa 4f       	sbci	r31, 0xFA	; 250
    429a:	8c e0       	ldi	r24, 0x0C	; 12
    429c:	ce cf       	rjmp	.-100    	; 0x423a <__stack+0x13b>
		if ( d5 == 'M' && czy_polecenie_sim(polecenie_DTMF) )
    429e:	8d e4       	ldi	r24, 0x4D	; 77
    42a0:	f8 12       	cpse	r15, r24
    42a2:	14 c0       	rjmp	.+40     	; 0x42cc <__stack+0x1cd>
    42a4:	9e 01       	movw	r18, r28
    42a6:	46 e0       	ldi	r20, 0x06	; 6
    42a8:	b8 01       	movw	r22, r16
    42aa:	82 eb       	ldi	r24, 0xB2	; 178
    42ac:	93 e0       	ldi	r25, 0x03	; 3
    42ae:	0e 94 28 20 	call	0x4050	; 0x4050 <porownaj_znaki>
    42b2:	88 23       	and	r24, r24
    42b4:	11 f1       	breq	.+68     	; 0x42fa <__stack+0x1fb>
			zarejestrowane_komendy_od_SIM900[liczba_komend_w_kolejce_SIM900++] = DTMF_KOMENDA_SIM900;
    42b6:	e0 91 68 05 	lds	r30, 0x0568	; 0x800568 <liczba_komend_w_kolejce_SIM900>
    42ba:	81 e0       	ldi	r24, 0x01	; 1
    42bc:	8e 0f       	add	r24, r30
    42be:	80 93 68 05 	sts	0x0568, r24	; 0x800568 <liczba_komend_w_kolejce_SIM900>
    42c2:	f0 e0       	ldi	r31, 0x00	; 0
    42c4:	e2 5a       	subi	r30, 0xA2	; 162
    42c6:	fa 4f       	sbci	r31, 0xFA	; 250
    42c8:	50 82       	st	Z, r5
			continue;
    42ca:	85 cf       	rjmp	.-246    	; 0x41d6 <__stack+0xd7>
		if ( d5 == 'T' && czy_polecenie_sim(polecenie_CMTI) )
    42cc:	e4 e5       	ldi	r30, 0x54	; 84
    42ce:	fe 12       	cpse	r15, r30
    42d0:	14 c0       	rjmp	.+40     	; 0x42fa <__stack+0x1fb>
    42d2:	9e 01       	movw	r18, r28
    42d4:	46 e0       	ldi	r20, 0x06	; 6
    42d6:	b8 01       	movw	r22, r16
    42d8:	8b ea       	ldi	r24, 0xAB	; 171
    42da:	93 e0       	ldi	r25, 0x03	; 3
    42dc:	0e 94 28 20 	call	0x4050	; 0x4050 <porownaj_znaki>
    42e0:	88 23       	and	r24, r24
    42e2:	59 f0       	breq	.+22     	; 0x42fa <__stack+0x1fb>
			zarejestrowane_komendy_od_SIM900[liczba_komend_w_kolejce_SIM900++] = CMTI_KOMENDA_SIM900;
    42e4:	e0 91 68 05 	lds	r30, 0x0568	; 0x800568 <liczba_komend_w_kolejce_SIM900>
    42e8:	81 e0       	ldi	r24, 0x01	; 1
    42ea:	8e 0f       	add	r24, r30
    42ec:	80 93 68 05 	sts	0x0568, r24	; 0x800568 <liczba_komend_w_kolejce_SIM900>
    42f0:	f0 e0       	ldi	r31, 0x00	; 0
    42f2:	e2 5a       	subi	r30, 0xA2	; 162
    42f4:	fa 4f       	sbci	r31, 0xFA	; 250
    42f6:	60 82       	st	Z, r6
			continue;
    42f8:	6e cf       	rjmp	.-292    	; 0x41d6 <__stack+0xd7>
		if ( d1 == 'E' && czy_polecenie_sim(polecenie_NO_CARRIER) )
    42fa:	f5 e4       	ldi	r31, 0x45	; 69
    42fc:	af 12       	cpse	r10, r31
    42fe:	14 c0       	rjmp	.+40     	; 0x4328 <__stack+0x229>
    4300:	9e 01       	movw	r18, r28
    4302:	4a e0       	ldi	r20, 0x0A	; 10
    4304:	b8 01       	movw	r22, r16
    4306:	80 ea       	ldi	r24, 0xA0	; 160
    4308:	93 e0       	ldi	r25, 0x03	; 3
    430a:	0e 94 28 20 	call	0x4050	; 0x4050 <porownaj_znaki>
    430e:	88 23       	and	r24, r24
    4310:	59 f0       	breq	.+22     	; 0x4328 <__stack+0x229>
			zarejestrowane_komendy_od_SIM900[liczba_komend_w_kolejce_SIM900++] = NO_CARRIER_KOMENDA_SIM900;
    4312:	e0 91 68 05 	lds	r30, 0x0568	; 0x800568 <liczba_komend_w_kolejce_SIM900>
    4316:	81 e0       	ldi	r24, 0x01	; 1
    4318:	8e 0f       	add	r24, r30
    431a:	80 93 68 05 	sts	0x0568, r24	; 0x800568 <liczba_komend_w_kolejce_SIM900>
    431e:	f0 e0       	ldi	r31, 0x00	; 0
    4320:	e2 5a       	subi	r30, 0xA2	; 162
    4322:	fa 4f       	sbci	r31, 0xFA	; 250
    4324:	70 82       	st	Z, r7
			continue;
    4326:	57 cf       	rjmp	.-338    	; 0x41d6 <__stack+0xd7>
		if ( d0 == 'E' && czy_polecenie_sim(polecenie_NO_DIALTONE) )
    4328:	45 e4       	ldi	r20, 0x45	; 69
    432a:	e4 12       	cpse	r14, r20
    432c:	14 c0       	rjmp	.+40     	; 0x4356 <__stack+0x257>
    432e:	9e 01       	movw	r18, r28
    4330:	4b e0       	ldi	r20, 0x0B	; 11
    4332:	b8 01       	movw	r22, r16
    4334:	84 e9       	ldi	r24, 0x94	; 148
    4336:	93 e0       	ldi	r25, 0x03	; 3
    4338:	0e 94 28 20 	call	0x4050	; 0x4050 <porownaj_znaki>
    433c:	88 23       	and	r24, r24
    433e:	11 f1       	breq	.+68     	; 0x4384 <__stack+0x285>
			zarejestrowane_komendy_od_SIM900[liczba_komend_w_kolejce_SIM900++] = NO_DIALTONE_KOMENDA_SIM900;
    4340:	e0 91 68 05 	lds	r30, 0x0568	; 0x800568 <liczba_komend_w_kolejce_SIM900>
    4344:	81 e0       	ldi	r24, 0x01	; 1
    4346:	8e 0f       	add	r24, r30
    4348:	80 93 68 05 	sts	0x0568, r24	; 0x800568 <liczba_komend_w_kolejce_SIM900>
    434c:	f0 e0       	ldi	r31, 0x00	; 0
    434e:	e2 5a       	subi	r30, 0xA2	; 162
    4350:	fa 4f       	sbci	r31, 0xFA	; 250
    4352:	90 82       	st	Z, r9
			continue;
    4354:	40 cf       	rjmp	.-384    	; 0x41d6 <__stack+0xd7>
		if ( d0 == 'Y' && czy_polecenie_sim(polecenie_BUSY) )
    4356:	89 e5       	ldi	r24, 0x59	; 89
    4358:	e8 12       	cpse	r14, r24
    435a:	14 c0       	rjmp	.+40     	; 0x4384 <__stack+0x285>
    435c:	9e 01       	movw	r18, r28
    435e:	44 e0       	ldi	r20, 0x04	; 4
    4360:	b8 01       	movw	r22, r16
    4362:	8f e8       	ldi	r24, 0x8F	; 143
    4364:	93 e0       	ldi	r25, 0x03	; 3
    4366:	0e 94 28 20 	call	0x4050	; 0x4050 <porownaj_znaki>
    436a:	88 23       	and	r24, r24
    436c:	59 f0       	breq	.+22     	; 0x4384 <__stack+0x285>
			zarejestrowane_komendy_od_SIM900[liczba_komend_w_kolejce_SIM900++] = BUSY_KOMENDA_SIM900;
    436e:	e0 91 68 05 	lds	r30, 0x0568	; 0x800568 <liczba_komend_w_kolejce_SIM900>
    4372:	81 e0       	ldi	r24, 0x01	; 1
    4374:	8e 0f       	add	r24, r30
    4376:	80 93 68 05 	sts	0x0568, r24	; 0x800568 <liczba_komend_w_kolejce_SIM900>
    437a:	f0 e0       	ldi	r31, 0x00	; 0
    437c:	e2 5a       	subi	r30, 0xA2	; 162
    437e:	fa 4f       	sbci	r31, 0xFA	; 250
    4380:	80 82       	st	Z, r8
			continue;
    4382:	29 cf       	rjmp	.-430    	; 0x41d6 <__stack+0xd7>
		if ( d5 == 'E' && czy_polecenie_sim(polecenie_CMEERROR) )
    4384:	e5 e4       	ldi	r30, 0x45	; 69
    4386:	fe 12       	cpse	r15, r30
    4388:	23 c0       	rjmp	.+70     	; 0x43d0 <__stack+0x2d1>
    438a:	9e 01       	movw	r18, r28
    438c:	4b e0       	ldi	r20, 0x0B	; 11
    438e:	b8 01       	movw	r22, r16
    4390:	83 e8       	ldi	r24, 0x83	; 131
    4392:	93 e0       	ldi	r25, 0x03	; 3
    4394:	0e 94 28 20 	call	0x4050	; 0x4050 <porownaj_znaki>
    4398:	88 23       	and	r24, r24
    439a:	09 f4       	brne	.+2      	; 0x439e <__stack+0x29f>
    439c:	1c cf       	rjmp	.-456    	; 0x41d6 <__stack+0xd7>
				strtoul(&odebrany_blok_SIM900[p+strlen_R(polecenie_CMEERROR)+1], NULL, 10);
    439e:	4a e0       	ldi	r20, 0x0A	; 10
    43a0:	50 e0       	ldi	r21, 0x00	; 0
    43a2:	70 e0       	ldi	r23, 0x00	; 0
    43a4:	60 e0       	ldi	r22, 0x00	; 0
    43a6:	c6 01       	movw	r24, r12
    43a8:	8b 53       	subi	r24, 0x3B	; 59
    43aa:	9c 4f       	sbci	r25, 0xFC	; 252
    43ac:	0e 94 bf 2d 	call	0x5b7e	; 0x5b7e <strtoul>
			numer_bledu_cme = (uint) 
    43b0:	70 93 3d 02 	sts	0x023D, r23	; 0x80023d <numer_bledu_cme+0x1>
    43b4:	60 93 3c 02 	sts	0x023C, r22	; 0x80023c <numer_bledu_cme>
			zarejestrowane_komendy_od_SIM900[liczba_komend_w_kolejce_SIM900++] = CME_ERROR_KOMENDA_SIM900;
    43b8:	e0 91 68 05 	lds	r30, 0x0568	; 0x800568 <liczba_komend_w_kolejce_SIM900>
    43bc:	81 e0       	ldi	r24, 0x01	; 1
    43be:	8e 0f       	add	r24, r30
    43c0:	80 93 68 05 	sts	0x0568, r24	; 0x800568 <liczba_komend_w_kolejce_SIM900>
    43c4:	f0 e0       	ldi	r31, 0x00	; 0
    43c6:	e2 5a       	subi	r30, 0xA2	; 162
    43c8:	fa 4f       	sbci	r31, 0xFA	; 250
    43ca:	45 e0       	ldi	r20, 0x05	; 5
			zarejestrowane_komendy_od_SIM900[liczba_komend_w_kolejce_SIM900++] = CUSD_KOMENDA_SIM900;
    43cc:	40 83       	st	Z, r20
			continue;
    43ce:	03 cf       	rjmp	.-506    	; 0x41d6 <__stack+0xd7>
		if ( d5 == 'S' && czy_polecenie_sim(polecenie_CMSERROR) )
    43d0:	83 e5       	ldi	r24, 0x53	; 83
    43d2:	f8 12       	cpse	r15, r24
    43d4:	00 cf       	rjmp	.-512    	; 0x41d6 <__stack+0xd7>
    43d6:	9e 01       	movw	r18, r28
    43d8:	4b e0       	ldi	r20, 0x0B	; 11
    43da:	b8 01       	movw	r22, r16
    43dc:	87 e7       	ldi	r24, 0x77	; 119
    43de:	93 e0       	ldi	r25, 0x03	; 3
    43e0:	0e 94 28 20 	call	0x4050	; 0x4050 <porownaj_znaki>
    43e4:	88 23       	and	r24, r24
    43e6:	c1 f0       	breq	.+48     	; 0x4418 <__stack+0x319>
				strtoul(&odebrany_blok_SIM900[p+strlen_R(polecenie_CMSERROR)+1], NULL, 10);
    43e8:	4a e0       	ldi	r20, 0x0A	; 10
    43ea:	50 e0       	ldi	r21, 0x00	; 0
    43ec:	70 e0       	ldi	r23, 0x00	; 0
    43ee:	60 e0       	ldi	r22, 0x00	; 0
    43f0:	c6 01       	movw	r24, r12
    43f2:	8b 53       	subi	r24, 0x3B	; 59
    43f4:	9c 4f       	sbci	r25, 0xFC	; 252
    43f6:	0e 94 bf 2d 	call	0x5b7e	; 0x5b7e <strtoul>
			numer_bledu_cms = (uint) 
    43fa:	70 93 3b 02 	sts	0x023B, r23	; 0x80023b <numer_bledu_cms+0x1>
    43fe:	60 93 3a 02 	sts	0x023A, r22	; 0x80023a <numer_bledu_cms>
			zarejestrowane_komendy_od_SIM900[liczba_komend_w_kolejce_SIM900++] = CMS_ERROR_KOMENDA_SIM900;
    4402:	e0 91 68 05 	lds	r30, 0x0568	; 0x800568 <liczba_komend_w_kolejce_SIM900>
    4406:	81 e0       	ldi	r24, 0x01	; 1
    4408:	8e 0f       	add	r24, r30
    440a:	80 93 68 05 	sts	0x0568, r24	; 0x800568 <liczba_komend_w_kolejce_SIM900>
    440e:	f0 e0       	ldi	r31, 0x00	; 0
    4410:	e2 5a       	subi	r30, 0xA2	; 162
    4412:	fa 4f       	sbci	r31, 0xFA	; 250
    4414:	86 e0       	ldi	r24, 0x06	; 6
    4416:	11 cf       	rjmp	.-478    	; 0x423a <__stack+0x13b>
		if ( d5 == 'S' && czy_polecenie_sim(polecenie_CUSD) )
    4418:	9e 01       	movw	r18, r28
    441a:	46 e0       	ldi	r20, 0x06	; 6
    441c:	b8 01       	movw	r22, r16
    441e:	80 e7       	ldi	r24, 0x70	; 112
    4420:	93 e0       	ldi	r25, 0x03	; 3
    4422:	0e 94 28 20 	call	0x4050	; 0x4050 <porownaj_znaki>
    4426:	88 23       	and	r24, r24
    4428:	09 f4       	brne	.+2      	; 0x442c <__stack+0x32d>
    442a:	d5 ce       	rjmp	.-598    	; 0x41d6 <__stack+0xd7>
			zarejestrowane_komendy_od_SIM900[liczba_komend_w_kolejce_SIM900++] = CUSD_KOMENDA_SIM900;
    442c:	e0 91 68 05 	lds	r30, 0x0568	; 0x800568 <liczba_komend_w_kolejce_SIM900>
    4430:	81 e0       	ldi	r24, 0x01	; 1
    4432:	8e 0f       	add	r24, r30
    4434:	80 93 68 05 	sts	0x0568, r24	; 0x800568 <liczba_komend_w_kolejce_SIM900>
    4438:	f0 e0       	ldi	r31, 0x00	; 0
    443a:	e2 5a       	subi	r30, 0xA2	; 162
    443c:	fa 4f       	sbci	r31, 0xFA	; 250
    443e:	4e e0       	ldi	r20, 0x0E	; 14
    4440:	c5 cf       	rjmp	.-118    	; 0x43cc <__stack+0x2cd>
		if ( d5 == 'G' && czy_polecenie_sim(polecenie_CMGS) )
    4442:	87 e4       	ldi	r24, 0x47	; 71
    4444:	f8 16       	cp	r15, r24
    4446:	09 f4       	brne	.+2      	; 0x444a <__stack+0x34b>
    4448:	ce ce       	rjmp	.-612    	; 0x41e6 <__stack+0xe7>
		if ( d5 == 'I' && czy_polecenie_sim(polecenie_CLIP) )
    444a:	49 e4       	ldi	r20, 0x49	; 73
    444c:	f4 12       	cpse	r15, r20
    444e:	27 cf       	rjmp	.-434    	; 0x429e <__stack+0x19f>
    4450:	9e 01       	movw	r18, r28
    4452:	46 e0       	ldi	r20, 0x06	; 6
    4454:	b8 01       	movw	r22, r16
    4456:	89 eb       	ldi	r24, 0xB9	; 185
    4458:	93 e0       	ldi	r25, 0x03	; 3
    445a:	0e 94 28 20 	call	0x4050	; 0x4050 <porownaj_znaki>
    445e:	88 23       	and	r24, r24
    4460:	09 f4       	brne	.+2      	; 0x4464 <__stack+0x365>
    4462:	4b cf       	rjmp	.-362    	; 0x42fa <__stack+0x1fb>
			zarejestrowane_komendy_od_SIM900[liczba_komend_w_kolejce_SIM900++] = CLIP_KOMENDA_SIM900;
    4464:	e0 91 68 05 	lds	r30, 0x0568	; 0x800568 <liczba_komend_w_kolejce_SIM900>
    4468:	81 e0       	ldi	r24, 0x01	; 1
    446a:	8e 0f       	add	r24, r30
    446c:	80 93 68 05 	sts	0x0568, r24	; 0x800568 <liczba_komend_w_kolejce_SIM900>
    4470:	f0 e0       	ldi	r31, 0x00	; 0
    4472:	e2 5a       	subi	r30, 0xA2	; 162
    4474:	fa 4f       	sbci	r31, 0xFA	; 250
    4476:	8a e0       	ldi	r24, 0x0A	; 10
    4478:	e0 ce       	rjmp	.-576    	; 0x423a <__stack+0x13b>
		if ( d5 == 'G' && czy_polecenie_sim(polecenie_CMGS) )
    447a:	e7 e4       	ldi	r30, 0x47	; 71
    447c:	fe 12       	cpse	r15, r30
    447e:	ca ce       	rjmp	.-620    	; 0x4214 <__stack+0x115>
    4480:	b2 ce       	rjmp	.-668    	; 0x41e6 <__stack+0xe7>

00004482 <czy_jest_nowa_komenda_SIM900>:

uchar czy_jest_nowa_komenda_SIM900(void)
{
    4482:	cf 93       	push	r28
	if ( polecenia_konczace_gsm() )
    4484:	0e 94 4a 20 	call	0x4094	; 0x4094 <polecenia_konczace_gsm>
    4488:	88 23       	and	r24, r24
    448a:	d9 f0       	breq	.+54     	; 0x44c2 <czy_jest_nowa_komenda_SIM900+0x40>
	{
		switch ( komenda_SIM900 )
    448c:	80 91 38 02 	lds	r24, 0x0238	; 0x800238 <komenda_SIM900>
    4490:	84 30       	cpi	r24, 0x04	; 4
    4492:	21 f0       	breq	.+8      	; 0x449c <czy_jest_nowa_komenda_SIM900+0x1a>
    4494:	83 31       	cpi	r24, 0x13	; 19
    4496:	11 f0       	breq	.+4      	; 0x449c <czy_jest_nowa_komenda_SIM900+0x1a>
    4498:	81 30       	cpi	r24, 0x01	; 1
    449a:	89 f4       	brne	.+34     	; 0x44be <czy_jest_nowa_komenda_SIM900+0x3c>
		{
		case OK_KOMENDA_SIM900:
		case ERROR_KOMENDA_SIM900:
		case DANE_ZE_STRONY_INTERNETOWEJ_KOMENDA_SIM900:
		{
			const uchar sreg = SREG;
    449c:	cf b7       	in	r28, 0x3f	; 63
			cli();
    449e:	f8 94       	cli
			resetuj_polecenie_konczace();
    44a0:	0e 94 3e 20 	call	0x407c	; 0x407c <resetuj_polecenie_konczace>
			zakoncz_odbieranie_SIM900();
    44a4:	45 9a       	sbi	0x08, 5	; 8
    44a6:	f8 94       	cli
    44a8:	80 91 c1 00 	lds	r24, 0x00C1	; 0x8000c1 <__TEXT_REGION_LENGTH__+0x7e00c1>
    44ac:	8f 77       	andi	r24, 0x7F	; 127
    44ae:	80 93 c1 00 	sts	0x00C1, r24	; 0x8000c1 <__TEXT_REGION_LENGTH__+0x7e00c1>
    44b2:	80 b7       	in	r24, 0x30	; 48
    44b4:	8d 7f       	andi	r24, 0xFD	; 253
    44b6:	80 bf       	out	0x30, r24	; 48
    44b8:	78 94       	sei
    44ba:	00 00       	nop
			SREG = sreg;
    44bc:	cf bf       	out	0x3f, r28	; 63
		}
		}
		return komenda_SIM900;
    44be:	80 91 38 02 	lds	r24, 0x0238	; 0x800238 <komenda_SIM900>
	}
	return BRAK_KOMENDY_SIM900;
}
    44c2:	cf 91       	pop	r28
    44c4:	08 95       	ret

000044c6 <sprawdz_kod>:

#define przeskocz_biale_znaki(BUF)                                             \
  while (isspace(*BUF))                                                        \
  ++BUF

uchar sprawdz_kod(const uchar **buf_sms) {
    44c6:	ff 92       	push	r15
    44c8:	0f 93       	push	r16
    44ca:	1f 93       	push	r17
    44cc:	cf 93       	push	r28
    44ce:	df 93       	push	r29
    44d0:	8c 01       	movw	r16, r24
  przeskocz_biale_znaki(*buf_sms);
    44d2:	f8 01       	movw	r30, r16
    44d4:	c0 81       	ld	r28, Z
    44d6:	d1 81       	ldd	r29, Z+1	; 0x01
    44d8:	f8 80       	ld	r15, Y
    44da:	8f 2d       	mov	r24, r15
    44dc:	90 e0       	ldi	r25, 0x00	; 0
    44de:	0e 94 c2 2e 	call	0x5d84	; 0x5d84 <isspace>
    44e2:	89 2b       	or	r24, r25
    44e4:	f1 f4       	brne	.+60     	; 0x4522 <sprawdz_kod+0x5c>
  if ((*buf_sms)[0] == kod_modulu[0] && (*buf_sms)[1] == kod_modulu[1] &&
    44e6:	80 91 6f 03 	lds	r24, 0x036F	; 0x80036f <kod_modulu>
    44ea:	f8 12       	cpse	r15, r24
    44ec:	1f c0       	rjmp	.+62     	; 0x452c <sprawdz_kod+0x66>
    44ee:	99 81       	ldd	r25, Y+1	; 0x01
    44f0:	80 91 70 03 	lds	r24, 0x0370	; 0x800370 <kod_modulu+0x1>
    44f4:	98 13       	cpse	r25, r24
    44f6:	1a c0       	rjmp	.+52     	; 0x452c <sprawdz_kod+0x66>
    44f8:	9a 81       	ldd	r25, Y+2	; 0x02
    44fa:	80 91 71 03 	lds	r24, 0x0371	; 0x800371 <kod_modulu+0x2>
    44fe:	98 13       	cpse	r25, r24
    4500:	15 c0       	rjmp	.+42     	; 0x452c <sprawdz_kod+0x66>
      (*buf_sms)[2] == kod_modulu[2] && (*buf_sms)[3] == kod_modulu[3]) {
    4502:	9b 81       	ldd	r25, Y+3	; 0x03
    4504:	80 91 72 03 	lds	r24, 0x0372	; 0x800372 <kod_modulu+0x3>
    4508:	98 13       	cpse	r25, r24
    450a:	10 c0       	rjmp	.+32     	; 0x452c <sprawdz_kod+0x66>
    *buf_sms += LICZBA_BAJTOW_KODU_DOSTEPU;
    450c:	24 96       	adiw	r28, 0x04	; 4
    450e:	f8 01       	movw	r30, r16
    4510:	d1 83       	std	Z+1, r29	; 0x01
    4512:	c0 83       	st	Z, r28
    return TRUE;
    4514:	8f ef       	ldi	r24, 0xFF	; 255
  } else
    return FALSE;
}
    4516:	df 91       	pop	r29
    4518:	cf 91       	pop	r28
    451a:	1f 91       	pop	r17
    451c:	0f 91       	pop	r16
    451e:	ff 90       	pop	r15
    4520:	08 95       	ret
  przeskocz_biale_znaki(*buf_sms);
    4522:	21 96       	adiw	r28, 0x01	; 1
    4524:	f8 01       	movw	r30, r16
    4526:	d1 83       	std	Z+1, r29	; 0x01
    4528:	c0 83       	st	Z, r28
    452a:	d3 cf       	rjmp	.-90     	; 0x44d2 <sprawdz_kod+0xc>
    return FALSE;
    452c:	80 e0       	ldi	r24, 0x00	; 0
    452e:	f3 cf       	rjmp	.-26     	; 0x4516 <sprawdz_kod+0x50>

00004530 <sprawdz_reset_ustawien>:

uchar sprawdz_reset_ustawien(const uchar *buf) {
  static const char res_ust[] PROGMEM =
      INSTRUKCJA_SMS_RESET_WSZYSTKICH_USTAWIEN;
  return memcmp_R(buf, res_ust) == 0;
    4530:	44 e0       	ldi	r20, 0x04	; 4
    4532:	50 e0       	ldi	r21, 0x00	; 0
    4534:	64 ef       	ldi	r22, 0xF4	; 244
    4536:	73 e0       	ldi	r23, 0x03	; 3
    4538:	0e 94 d3 2e 	call	0x5da6	; 0x5da6 <memcmp_P>
    453c:	21 e0       	ldi	r18, 0x01	; 1
    453e:	89 2b       	or	r24, r25
    4540:	09 f0       	breq	.+2      	; 0x4544 <sprawdz_reset_ustawien+0x14>
    4542:	20 e0       	ldi	r18, 0x00	; 0
}
    4544:	82 2f       	mov	r24, r18
    4546:	08 95       	ret

00004548 <interpretuj_instrukcje_sms>:
  INSTRUKCJA_STOP,
  INSTRUKCJA_SUB,
};

uchar interpretuj_instrukcje_sms(const uchar **buf_sms, const uchar start,
                                 const uchar end) {
    4548:	6f 92       	push	r6
    454a:	7f 92       	push	r7
    454c:	8f 92       	push	r8
    454e:	9f 92       	push	r9
    4550:	af 92       	push	r10
    4552:	bf 92       	push	r11
    4554:	cf 92       	push	r12
    4556:	df 92       	push	r13
    4558:	ef 92       	push	r14
    455a:	ff 92       	push	r15
    455c:	0f 93       	push	r16
    455e:	1f 93       	push	r17
    4560:	cf 93       	push	r28
    4562:	df 93       	push	r29
    4564:	5c 01       	movw	r10, r24
    4566:	76 2e       	mov	r7, r22
    4568:	64 2e       	mov	r6, r20
  przeskocz_biale_znaki(*buf_sms);
    456a:	f5 01       	movw	r30, r10
    456c:	00 81       	ld	r16, Z
    456e:	11 81       	ldd	r17, Z+1	; 0x01
    4570:	f8 01       	movw	r30, r16
    4572:	80 81       	ld	r24, Z
    4574:	90 e0       	ldi	r25, 0x00	; 0
    4576:	0e 94 c2 2e 	call	0x5d84	; 0x5d84 <isspace>
    457a:	89 2b       	or	r24, r25
    457c:	b9 f5       	brne	.+110    	; 0x45ec <interpretuj_instrukcje_sms+0xa4>
    457e:	f8 e0       	ldi	r31, 0x08	; 8
    4580:	7f 9e       	mul	r7, r31
    4582:	c0 01       	movw	r24, r0
    4584:	11 24       	eor	r1, r1
    4586:	d1 2c       	mov	r13, r1
    4588:	c1 2c       	mov	r12, r1
  uchar i;
  for (i = start; i < end; ++i) {
    const void *p =
        &instrukcja_sms[0][0] + i * MAX_LICZBA_ZNAKOW_INSTRUKCJI_SMS;
    const uchar l = pgm_read_byte(p);
    458a:	9c 01       	movw	r18, r24
    458c:	27 50       	subi	r18, 0x07	; 7
    458e:	3c 4f       	sbci	r19, 0xFC	; 252
    4590:	49 01       	movw	r8, r18
    if (memcmp_P(*buf_sms, p + 1, l) == 0) {
    4592:	fc 01       	movw	r30, r24
    4594:	e6 50       	subi	r30, 0x06	; 6
    4596:	fc 4f       	sbci	r31, 0xFC	; 252
    4598:	7f 01       	movw	r14, r30
  for (i = start; i < end; ++i) {
    459a:	76 14       	cp	r7, r6
    459c:	b8 f4       	brcc	.+46     	; 0x45cc <interpretuj_instrukcje_sms+0x84>
    const uchar l = pgm_read_byte(p);
    459e:	f4 01       	movw	r30, r8
    45a0:	ec 0d       	add	r30, r12
    45a2:	fd 1d       	adc	r31, r13
    45a4:	e4 91       	lpm	r30, Z
    if (memcmp_P(*buf_sms, p + 1, l) == 0) {
    45a6:	ce 2f       	mov	r28, r30
    45a8:	d0 e0       	ldi	r29, 0x00	; 0
    45aa:	b7 01       	movw	r22, r14
    45ac:	6c 0d       	add	r22, r12
    45ae:	7d 1d       	adc	r23, r13
    45b0:	ae 01       	movw	r20, r28
    45b2:	c8 01       	movw	r24, r16
    45b4:	0e 94 d3 2e 	call	0x5da6	; 0x5da6 <memcmp_P>
    45b8:	f8 e0       	ldi	r31, 0x08	; 8
    45ba:	cf 0e       	add	r12, r31
    45bc:	d1 1c       	adc	r13, r1
    45be:	89 2b       	or	r24, r25
    45c0:	d9 f4       	brne	.+54     	; 0x45f8 <interpretuj_instrukcje_sms+0xb0>
      *buf_sms += l;
    45c2:	c0 0f       	add	r28, r16
    45c4:	d1 1f       	adc	r29, r17
    45c6:	f5 01       	movw	r30, r10
    45c8:	d1 83       	std	Z+1, r29	; 0x01
    45ca:	c0 83       	st	Z, r28
      return i;
    }
  }
  return i;
}
    45cc:	87 2d       	mov	r24, r7
    45ce:	df 91       	pop	r29
    45d0:	cf 91       	pop	r28
    45d2:	1f 91       	pop	r17
    45d4:	0f 91       	pop	r16
    45d6:	ff 90       	pop	r15
    45d8:	ef 90       	pop	r14
    45da:	df 90       	pop	r13
    45dc:	cf 90       	pop	r12
    45de:	bf 90       	pop	r11
    45e0:	af 90       	pop	r10
    45e2:	9f 90       	pop	r9
    45e4:	8f 90       	pop	r8
    45e6:	7f 90       	pop	r7
    45e8:	6f 90       	pop	r6
    45ea:	08 95       	ret
  przeskocz_biale_znaki(*buf_sms);
    45ec:	0f 5f       	subi	r16, 0xFF	; 255
    45ee:	1f 4f       	sbci	r17, 0xFF	; 255
    45f0:	f5 01       	movw	r30, r10
    45f2:	11 83       	std	Z+1, r17	; 0x01
    45f4:	00 83       	st	Z, r16
    45f6:	b9 cf       	rjmp	.-142    	; 0x456a <interpretuj_instrukcje_sms+0x22>
  for (i = start; i < end; ++i) {
    45f8:	73 94       	inc	r7
    45fa:	cf cf       	rjmp	.-98     	; 0x459a <interpretuj_instrukcje_sms+0x52>

000045fc <pobierz_long>:

uchar pobierz_long(const uchar **buf_sms, long *wartosc) {
    45fc:	ef 92       	push	r14
    45fe:	ff 92       	push	r15
    4600:	0f 93       	push	r16
    4602:	1f 93       	push	r17
    4604:	cf 93       	push	r28
    4606:	df 93       	push	r29
    4608:	ec 01       	movw	r28, r24
    460a:	7b 01       	movw	r14, r22
  const uchar *buf_sms_pom = *buf_sms;
    460c:	08 81       	ld	r16, Y
    460e:	19 81       	ldd	r17, Y+1	; 0x01
  *wartosc = strtol(*buf_sms, (char **)buf_sms, 10);
    4610:	4a e0       	ldi	r20, 0x0A	; 10
    4612:	50 e0       	ldi	r21, 0x00	; 0
    4614:	bc 01       	movw	r22, r24
    4616:	c8 01       	movw	r24, r16
    4618:	0e 94 91 2c 	call	0x5922	; 0x5922 <strtol>
    461c:	f7 01       	movw	r30, r14
    461e:	60 83       	st	Z, r22
    4620:	71 83       	std	Z+1, r23	; 0x01
    4622:	82 83       	std	Z+2, r24	; 0x02
    4624:	93 83       	std	Z+3, r25	; 0x03
  return *buf_sms != buf_sms_pom;
    4626:	81 e0       	ldi	r24, 0x01	; 1
    4628:	28 81       	ld	r18, Y
    462a:	39 81       	ldd	r19, Y+1	; 0x01
    462c:	20 17       	cp	r18, r16
    462e:	31 07       	cpc	r19, r17
    4630:	09 f4       	brne	.+2      	; 0x4634 <pobierz_long+0x38>
    4632:	80 e0       	ldi	r24, 0x00	; 0
}
    4634:	df 91       	pop	r29
    4636:	cf 91       	pop	r28
    4638:	1f 91       	pop	r17
    463a:	0f 91       	pop	r16
    463c:	ff 90       	pop	r15
    463e:	ef 90       	pop	r14
    4640:	08 95       	ret

00004642 <pomin_znak>:

uchar pomin_znak(const uchar **buf_sms, const uchar wartosc) {
    4642:	df 92       	push	r13
    4644:	ef 92       	push	r14
    4646:	ff 92       	push	r15
    4648:	0f 93       	push	r16
    464a:	1f 93       	push	r17
    464c:	cf 93       	push	r28
    464e:	df 93       	push	r29
    4650:	7c 01       	movw	r14, r24
    4652:	d6 2e       	mov	r13, r22
  przeskocz_biale_znaki(*buf_sms);
    4654:	f7 01       	movw	r30, r14
    4656:	c0 81       	ld	r28, Z
    4658:	d1 81       	ldd	r29, Z+1	; 0x01
    465a:	08 81       	ld	r16, Y
    465c:	10 e0       	ldi	r17, 0x00	; 0
    465e:	c8 01       	movw	r24, r16
    4660:	0e 94 c2 2e 	call	0x5d84	; 0x5d84 <isspace>
    4664:	89 2b       	or	r24, r25
    4666:	a1 f4       	brne	.+40     	; 0x4690 <pomin_znak+0x4e>
  if (**buf_sms == toupper(wartosc)) {
    4668:	8d 2d       	mov	r24, r13
    466a:	90 e0       	ldi	r25, 0x00	; 0
    466c:	0e 94 cb 2e 	call	0x5d96	; 0x5d96 <toupper>
    4670:	08 17       	cp	r16, r24
    4672:	19 07       	cpc	r17, r25
    4674:	91 f4       	brne	.+36     	; 0x469a <pomin_znak+0x58>
    ++*buf_sms;
    4676:	21 96       	adiw	r28, 0x01	; 1
    4678:	f7 01       	movw	r30, r14
    467a:	d1 83       	std	Z+1, r29	; 0x01
    467c:	c0 83       	st	Z, r28
    return TRUE;
    467e:	8f ef       	ldi	r24, 0xFF	; 255
  } else
    return FALSE;
}
    4680:	df 91       	pop	r29
    4682:	cf 91       	pop	r28
    4684:	1f 91       	pop	r17
    4686:	0f 91       	pop	r16
    4688:	ff 90       	pop	r15
    468a:	ef 90       	pop	r14
    468c:	df 90       	pop	r13
    468e:	08 95       	ret
  przeskocz_biale_znaki(*buf_sms);
    4690:	21 96       	adiw	r28, 0x01	; 1
    4692:	f7 01       	movw	r30, r14
    4694:	d1 83       	std	Z+1, r29	; 0x01
    4696:	c0 83       	st	Z, r28
    4698:	dd cf       	rjmp	.-70     	; 0x4654 <pomin_znak+0x12>
    return FALSE;
    469a:	80 e0       	ldi	r24, 0x00	; 0
    469c:	f1 cf       	rjmp	.-30     	; 0x4680 <pomin_znak+0x3e>

0000469e <czy_jest_znak>:

uchar czy_jest_znak(const uchar **buf_sms, const uchar wartosc) {
    469e:	df 92       	push	r13
    46a0:	ef 92       	push	r14
    46a2:	ff 92       	push	r15
    46a4:	0f 93       	push	r16
    46a6:	1f 93       	push	r17
    46a8:	cf 93       	push	r28
    46aa:	df 93       	push	r29
    46ac:	8c 01       	movw	r16, r24
    46ae:	d6 2e       	mov	r13, r22
  przeskocz_biale_znaki(*buf_sms);
    46b0:	f8 01       	movw	r30, r16
    46b2:	c0 81       	ld	r28, Z
    46b4:	d1 81       	ldd	r29, Z+1	; 0x01
    46b6:	fe 01       	movw	r30, r28
    46b8:	81 91       	ld	r24, Z+
    46ba:	7f 01       	movw	r14, r30
    46bc:	90 e0       	ldi	r25, 0x00	; 0
    46be:	0e 94 c2 2e 	call	0x5d84	; 0x5d84 <isspace>
    46c2:	89 2b       	or	r24, r25
    46c4:	99 f4       	brne	.+38     	; 0x46ec <czy_jest_znak+0x4e>
  const uchar *buf_sms_pom = *buf_sms;
  const uchar w = toupper(wartosc);
    46c6:	8d 2d       	mov	r24, r13
    46c8:	90 e0       	ldi	r25, 0x00	; 0
    46ca:	0e 94 cb 2e 	call	0x5d96	; 0x5d96 <toupper>
    46ce:	98 2f       	mov	r25, r24
  uchar ch;
  while ((ch = *buf_sms_pom++) != '\0' && ch != w)
    46d0:	9e 01       	movw	r18, r28
    46d2:	2f 5f       	subi	r18, 0xFF	; 255
    46d4:	3f 4f       	sbci	r19, 0xFF	; 255
    46d6:	88 81       	ld	r24, Y
    46d8:	88 23       	and	r24, r24
    46da:	61 f0       	breq	.+24     	; 0x46f4 <czy_jest_znak+0x56>
    46dc:	e9 01       	movw	r28, r18
    46de:	98 13       	cpse	r25, r24
    46e0:	f7 cf       	rjmp	.-18     	; 0x46d0 <czy_jest_znak+0x32>
    ;
  if (ch == w) {
    *buf_sms = buf_sms_pom;
    46e2:	f8 01       	movw	r30, r16
    46e4:	31 83       	std	Z+1, r19	; 0x01
    46e6:	20 83       	st	Z, r18
    return TRUE;
    46e8:	8f ef       	ldi	r24, 0xFF	; 255
    46ea:	06 c0       	rjmp	.+12     	; 0x46f8 <czy_jest_znak+0x5a>
  przeskocz_biale_znaki(*buf_sms);
    46ec:	f8 01       	movw	r30, r16
    46ee:	f1 82       	std	Z+1, r15	; 0x01
    46f0:	e0 82       	st	Z, r14
    46f2:	de cf       	rjmp	.-68     	; 0x46b0 <czy_jest_znak+0x12>
  if (ch == w) {
    46f4:	99 23       	and	r25, r25
    46f6:	a9 f3       	breq	.-22     	; 0x46e2 <czy_jest_znak+0x44>
  } else
    return FALSE;
}
    46f8:	df 91       	pop	r29
    46fa:	cf 91       	pop	r28
    46fc:	1f 91       	pop	r17
    46fe:	0f 91       	pop	r16
    4700:	ff 90       	pop	r15
    4702:	ef 90       	pop	r14
    4704:	df 90       	pop	r13
    4706:	08 95       	ret

00004708 <pobierz_wyraz>:

void pobierz_wyraz(const uchar **buf_sms, uchar *buf, uchar max_liczba_znakow) {
    4708:	cf 92       	push	r12
    470a:	df 92       	push	r13
    470c:	ef 92       	push	r14
    470e:	ff 92       	push	r15
    4710:	0f 93       	push	r16
    4712:	1f 93       	push	r17
    4714:	cf 93       	push	r28
    4716:	df 93       	push	r29
    4718:	8c 01       	movw	r16, r24
    471a:	d6 2e       	mov	r13, r22
    471c:	f7 2e       	mov	r15, r23
    471e:	e4 2e       	mov	r14, r20
  przeskocz_biale_znaki(*buf_sms);
    4720:	f8 01       	movw	r30, r16
    4722:	c0 81       	ld	r28, Z
    4724:	d1 81       	ldd	r29, Z+1	; 0x01
    4726:	88 81       	ld	r24, Y
    4728:	90 e0       	ldi	r25, 0x00	; 0
    472a:	0e 94 c2 2e 	call	0x5d84	; 0x5d84 <isspace>
    472e:	89 2b       	or	r24, r25
    4730:	81 f4       	brne	.+32     	; 0x4752 <pobierz_wyraz+0x4a>
    4732:	cd 2d       	mov	r28, r13
    4734:	df 2d       	mov	r29, r15
    4736:	6e 01       	movw	r12, r28
  while (max_liczba_znakow-- && !isspace(**buf_sms) &&
    4738:	e1 10       	cpse	r14, r1
    473a:	10 c0       	rjmp	.+32     	; 0x475c <pobierz_wyraz+0x54>
         (*buf = **buf_sms) != '\0') {
    buf++;
    (*buf_sms)++;
  }
  *buf = '\0';
    473c:	f6 01       	movw	r30, r12
    473e:	10 82       	st	Z, r1
}
    4740:	df 91       	pop	r29
    4742:	cf 91       	pop	r28
    4744:	1f 91       	pop	r17
    4746:	0f 91       	pop	r16
    4748:	ff 90       	pop	r15
    474a:	ef 90       	pop	r14
    474c:	df 90       	pop	r13
    474e:	cf 90       	pop	r12
    4750:	08 95       	ret
  przeskocz_biale_znaki(*buf_sms);
    4752:	21 96       	adiw	r28, 0x01	; 1
    4754:	d8 01       	movw	r26, r16
    4756:	cd 93       	st	X+, r28
    4758:	dc 93       	st	X, r29
    475a:	e2 cf       	rjmp	.-60     	; 0x4720 <pobierz_wyraz+0x18>
  while (max_liczba_znakow-- && !isspace(**buf_sms) &&
    475c:	d8 01       	movw	r26, r16
    475e:	ed 91       	ld	r30, X+
    4760:	fc 91       	ld	r31, X
    4762:	f0 80       	ld	r15, Z
    4764:	8f 2d       	mov	r24, r15
    4766:	90 e0       	ldi	r25, 0x00	; 0
    4768:	0e 94 c2 2e 	call	0x5d84	; 0x5d84 <isspace>
    476c:	89 2b       	or	r24, r25
    476e:	31 f7       	brne	.-52     	; 0x473c <pobierz_wyraz+0x34>
         (*buf = **buf_sms) != '\0') {
    4770:	f9 92       	st	Y+, r15
    4772:	ea 94       	dec	r14
  while (max_liczba_znakow-- && !isspace(**buf_sms) &&
    4774:	ff 20       	and	r15, r15
    4776:	11 f3       	breq	.-60     	; 0x473c <pobierz_wyraz+0x34>
    (*buf_sms)++;
    4778:	d8 01       	movw	r26, r16
    477a:	8d 91       	ld	r24, X+
    477c:	9c 91       	ld	r25, X
    477e:	11 97       	sbiw	r26, 0x01	; 1
    4780:	01 96       	adiw	r24, 0x01	; 1
    4782:	8d 93       	st	X+, r24
    4784:	9c 93       	st	X, r25
    4786:	d7 cf       	rjmp	.-82     	; 0x4736 <pobierz_wyraz+0x2e>

00004788 <pobierz_numer_telefonu>:

uchar pobierz_numer_telefonu(const uchar **buf_sms, uchar *buf_telefon,
                             const uchar rozmiar_bufora) {
    4788:	8f 92       	push	r8
    478a:	9f 92       	push	r9
    478c:	af 92       	push	r10
    478e:	bf 92       	push	r11
    4790:	cf 92       	push	r12
    4792:	df 92       	push	r13
    4794:	ef 92       	push	r14
    4796:	ff 92       	push	r15
    4798:	0f 93       	push	r16
    479a:	1f 93       	push	r17
    479c:	cf 93       	push	r28
    479e:	df 93       	push	r29
    47a0:	cd b7       	in	r28, 0x3d	; 61
    47a2:	de b7       	in	r29, 0x3e	; 62
    47a4:	64 97       	sbiw	r28, 0x14	; 20
    47a6:	0f b6       	in	r0, 0x3f	; 63
    47a8:	f8 94       	cli
    47aa:	de bf       	out	0x3e, r29	; 62
    47ac:	0f be       	out	0x3f, r0	; 63
    47ae:	cd bf       	out	0x3d, r28	; 61
    47b0:	6c 01       	movw	r12, r24
    47b2:	5b 01       	movw	r10, r22
    47b4:	04 2f       	mov	r16, r20
  przeskocz_biale_znaki(*buf_sms);
    47b6:	f6 01       	movw	r30, r12
    47b8:	e0 80       	ld	r14, Z
    47ba:	f1 80       	ldd	r15, Z+1	; 0x01
    47bc:	d7 01       	movw	r26, r14
    47be:	8c 91       	ld	r24, X
    47c0:	90 e0       	ldi	r25, 0x00	; 0
    47c2:	0e 94 c2 2e 	call	0x5d84	; 0x5d84 <isspace>
    47c6:	89 2b       	or	r24, r25
    47c8:	09 f0       	breq	.+2      	; 0x47cc <pobierz_numer_telefonu+0x44>
    47ca:	43 c0       	rjmp	.+134    	; 0x4852 <pobierz_numer_telefonu+0xca>
  const uchar *tel = *buf_sms;

  // Bufor tymczasowy dla wszystkich cyfr
  uchar temp_digits[20];
  uchar digit_count = 0;
    47cc:	10 e0       	ldi	r17, 0x00	; 0
    47ce:	47 01       	movw	r8, r14

  // Zbierz wszystkie cyfry (0-9), pomijajc +, #, *, spacje
  while (*tel != '\0' && digit_count < 20) {
    47d0:	f7 01       	movw	r30, r14
    47d2:	81 91       	ld	r24, Z+
    47d4:	7f 01       	movw	r14, r30
    47d6:	88 23       	and	r24, r24
    47d8:	41 f0       	breq	.+16     	; 0x47ea <pobierz_numer_telefonu+0x62>
    47da:	14 31       	cpi	r17, 0x14	; 20
    47dc:	30 f4       	brcc	.+12     	; 0x47ea <pobierz_numer_telefonu+0x62>
    // Pomi spacje
    if (*tel == ' ') {
    47de:	80 32       	cpi	r24, 0x20	; 32
    47e0:	b1 f3       	breq	.-20     	; 0x47ce <pobierz_numer_telefonu+0x46>
      tel++;
      continue;
    }

    // Sprawd czy to poprawny znak numeru
    if (konwersja_znaku_telefonu(*tel) == ZNAK_NUMERU_TELEFONU_NIEZNANY) {
    47e2:	0e 94 ac 27 	call	0x4f58	; 0x4f58 <konwersja_znaku_telefonu>
    47e6:	8d 30       	cpi	r24, 0x0D	; 13
    47e8:	d9 f5       	brne	.+118    	; 0x4860 <pobierz_numer_telefonu+0xd8>
    }
    tel++;
  }

  // Skopiuj OSTATNIE 9 cyfr do bufora wyjciowego
  uchar start_pos = (digit_count > 9) ? (digit_count - 9) : 0;
    47ea:	81 2f       	mov	r24, r17
    47ec:	19 30       	cpi	r17, 0x09	; 9
    47ee:	08 f4       	brcc	.+2      	; 0x47f2 <pobierz_numer_telefonu+0x6a>
    47f0:	89 e0       	ldi	r24, 0x09	; 9
    47f2:	89 50       	subi	r24, 0x09	; 9
  uchar copy_count = (digit_count > 9) ? 9 : digit_count;
    47f4:	e1 2f       	mov	r30, r17
    47f6:	1a 30       	cpi	r17, 0x0A	; 10
    47f8:	08 f0       	brcs	.+2      	; 0x47fc <pobierz_numer_telefonu+0x74>
    47fa:	e9 e0       	ldi	r30, 0x09	; 9
    47fc:	a5 01       	movw	r20, r10

  for (uchar i = 0; i < copy_count && i < rozmiar_bufora - 1; i++) {
    47fe:	30 e0       	ldi	r19, 0x00	; 0
    4800:	20 e0       	ldi	r18, 0x00	; 0
    4802:	01 50       	subi	r16, 0x01	; 1
    4804:	11 0b       	sbc	r17, r17
    buf_telefon[i] = temp_digits[start_pos + i];
    4806:	90 e0       	ldi	r25, 0x00	; 0
  for (uchar i = 0; i < copy_count && i < rozmiar_bufora - 1; i++) {
    4808:	2e 17       	cp	r18, r30
    480a:	18 f4       	brcc	.+6      	; 0x4812 <pobierz_numer_telefonu+0x8a>
    480c:	20 17       	cp	r18, r16
    480e:	31 07       	cpc	r19, r17
    4810:	c4 f1       	brlt	.+112    	; 0x4882 <pobierz_numer_telefonu+0xfa>
  }
  buf_telefon[copy_count] = '\0';
    4812:	ea 0d       	add	r30, r10
    4814:	fb 2d       	mov	r31, r11
    4816:	f1 1d       	adc	r31, r1
    4818:	10 82       	st	Z, r1

  if (buf_telefon[0] != '\0') {
    481a:	f5 01       	movw	r30, r10
    481c:	80 81       	ld	r24, Z
    481e:	88 23       	and	r24, r24
    4820:	29 f0       	breq	.+10     	; 0x482c <pobierz_numer_telefonu+0xa4>
    *buf_sms = tel;
    4822:	d6 01       	movw	r26, r12
    4824:	8c 92       	st	X, r8
    4826:	11 96       	adiw	r26, 0x01	; 1
    4828:	9c 92       	st	X, r9
    return TRUE;
    482a:	8f ef       	ldi	r24, 0xFF	; 255
  } else
    return FALSE;
}
    482c:	64 96       	adiw	r28, 0x14	; 20
    482e:	0f b6       	in	r0, 0x3f	; 63
    4830:	f8 94       	cli
    4832:	de bf       	out	0x3e, r29	; 62
    4834:	0f be       	out	0x3f, r0	; 63
    4836:	cd bf       	out	0x3d, r28	; 61
    4838:	df 91       	pop	r29
    483a:	cf 91       	pop	r28
    483c:	1f 91       	pop	r17
    483e:	0f 91       	pop	r16
    4840:	ff 90       	pop	r15
    4842:	ef 90       	pop	r14
    4844:	df 90       	pop	r13
    4846:	cf 90       	pop	r12
    4848:	bf 90       	pop	r11
    484a:	af 90       	pop	r10
    484c:	9f 90       	pop	r9
    484e:	8f 90       	pop	r8
    4850:	08 95       	ret
  przeskocz_biale_znaki(*buf_sms);
    4852:	6f ef       	ldi	r22, 0xFF	; 255
    4854:	e6 1a       	sub	r14, r22
    4856:	f6 0a       	sbc	r15, r22
    4858:	d6 01       	movw	r26, r12
    485a:	ed 92       	st	X+, r14
    485c:	fc 92       	st	X, r15
    485e:	ab cf       	rjmp	.-170    	; 0x47b6 <pobierz_numer_telefonu+0x2e>
    if (*tel >= '0' && *tel <= '9') {
    4860:	f7 01       	movw	r30, r14
    4862:	31 97       	sbiw	r30, 0x01	; 1
    4864:	80 81       	ld	r24, Z
    4866:	90 ed       	ldi	r25, 0xD0	; 208
    4868:	98 0f       	add	r25, r24
    486a:	9a 30       	cpi	r25, 0x0A	; 10
    486c:	08 f0       	brcs	.+2      	; 0x4870 <pobierz_numer_telefonu+0xe8>
    486e:	af cf       	rjmp	.-162    	; 0x47ce <pobierz_numer_telefonu+0x46>
      temp_digits[digit_count++] = *tel;
    4870:	e1 e0       	ldi	r30, 0x01	; 1
    4872:	f0 e0       	ldi	r31, 0x00	; 0
    4874:	ec 0f       	add	r30, r28
    4876:	fd 1f       	adc	r31, r29
    4878:	e1 0f       	add	r30, r17
    487a:	f1 1d       	adc	r31, r1
    487c:	80 83       	st	Z, r24
    487e:	1f 5f       	subi	r17, 0xFF	; 255
    4880:	a6 cf       	rjmp	.-180    	; 0x47ce <pobierz_numer_telefonu+0x46>
    buf_telefon[i] = temp_digits[start_pos + i];
    4882:	dc 01       	movw	r26, r24
    4884:	a2 0f       	add	r26, r18
    4886:	b3 1f       	adc	r27, r19
    4888:	61 e0       	ldi	r22, 0x01	; 1
    488a:	70 e0       	ldi	r23, 0x00	; 0
    488c:	6c 0f       	add	r22, r28
    488e:	7d 1f       	adc	r23, r29
    4890:	a6 0f       	add	r26, r22
    4892:	b7 1f       	adc	r27, r23
    4894:	6c 91       	ld	r22, X
    4896:	da 01       	movw	r26, r20
    4898:	6d 93       	st	X+, r22
    489a:	ad 01       	movw	r20, r26
    489c:	2f 5f       	subi	r18, 0xFF	; 255
    489e:	3f 4f       	sbci	r19, 0xFF	; 255
    48a0:	b3 cf       	rjmp	.-154    	; 0x4808 <pobierz_numer_telefonu+0x80>

000048a2 <interpretuj_wiadomosc_sms>:

uchar interpretuj_wiadomosc_sms(const uchar *sms) {
    48a2:	ef 92       	push	r14
    48a4:	ff 92       	push	r15
    48a6:	0f 93       	push	r16
    48a8:	1f 93       	push	r17
    48aa:	cf 93       	push	r28
    48ac:	df 93       	push	r29
    48ae:	cd b7       	in	r28, 0x3d	; 61
    48b0:	de b7       	in	r29, 0x3e	; 62
    48b2:	62 97       	sbiw	r28, 0x12	; 18
    48b4:	0f b6       	in	r0, 0x3f	; 63
    48b6:	f8 94       	cli
    48b8:	de bf       	out	0x3e, r29	; 62
    48ba:	0f be       	out	0x3f, r0	; 63
    48bc:	cd bf       	out	0x3d, r28	; 61
    48be:	9a 8b       	std	Y+18, r25	; 0x12
    48c0:	89 8b       	std	Y+17, r24	; 0x11
  memcpy(bufor_eeprom, sms, MAX_BUFOR_EEPROM);
    48c2:	7c 01       	movw	r14, r24
    48c4:	82 e3       	ldi	r24, 0x32	; 50
    48c6:	f7 01       	movw	r30, r14
    48c8:	ad ed       	ldi	r26, 0xDD	; 221
    48ca:	b7 e0       	ldi	r27, 0x07	; 7
    48cc:	01 90       	ld	r0, Z+
    48ce:	0d 92       	st	X+, r0
    48d0:	8a 95       	dec	r24
    48d2:	e1 f7       	brne	.-8      	; 0x48cc <interpretuj_wiadomosc_sms+0x2a>
  const uchar *sms_pom = sms;
  if (!sprawdz_kod(&sms)) {
    48d4:	ce 01       	movw	r24, r28
    48d6:	41 96       	adiw	r24, 0x11	; 17
    48d8:	0e 94 63 22 	call	0x44c6	; 0x44c6 <sprawdz_kod>
    48dc:	29 89       	ldd	r18, Y+17	; 0x11
    48de:	9a 89       	ldd	r25, Y+18	; 0x12
    48e0:	81 11       	cpse	r24, r1
    48e2:	08 c0       	rjmp	.+16     	; 0x48f4 <interpretuj_wiadomosc_sms+0x52>
    if (sprawdz_reset_ustawien(sms))
    48e4:	82 2f       	mov	r24, r18
    48e6:	0e 94 98 22 	call	0x4530	; 0x4530 <sprawdz_reset_ustawien>
    48ea:	88 23       	and	r24, r24
    48ec:	09 f4       	brne	.+2      	; 0x48f0 <interpretuj_wiadomosc_sms+0x4e>
    48ee:	70 c0       	rjmp	.+224    	; 0x49d0 <interpretuj_wiadomosc_sms+0x12e>
      return INTERPRETACJA_SMS_RESET_WSZYSTKICH_USTAWIEN;
    48f0:	8b e0       	ldi	r24, 0x0B	; 11
    48f2:	6e c0       	rjmp	.+220    	; 0x49d0 <interpretuj_wiadomosc_sms+0x12e>
    48f4:	02 2f       	mov	r16, r18
    48f6:	19 2f       	mov	r17, r25
    return INTERPRETACJA_SMS_BRAK_KODU;
  }
  { // mona wstawi ten kod do kolejki i w nastpnym kroku interpretowa
    for (uchar *ptr = (uchar *)sms; *ptr != '\0'; ++ptr)
    48f8:	f8 01       	movw	r30, r16
    48fa:	81 91       	ld	r24, Z+
    48fc:	8f 01       	movw	r16, r30
    48fe:	81 11       	cpse	r24, r1
    4900:	20 c0       	rjmp	.+64     	; 0x4942 <interpretuj_wiadomosc_sms+0xa0>
      *ptr = toupper(*ptr);
  }

  switch (
      interpretuj_instrukcje_sms(&sms, INSTRUKCJA_CODE, INSTRUKCJA_SUB + 1)) {
    4902:	41 e1       	ldi	r20, 0x11	; 17
    4904:	60 e0       	ldi	r22, 0x00	; 0
    4906:	ce 01       	movw	r24, r28
    4908:	41 96       	adiw	r24, 0x11	; 17
    490a:	0e 94 a4 22 	call	0x4548	; 0x4548 <interpretuj_instrukcje_sms>
  switch (
    490e:	81 31       	cpi	r24, 0x11	; 17
    4910:	08 f0       	brcs	.+2      	; 0x4914 <interpretuj_wiadomosc_sms+0x72>
    4912:	a3 c2       	rjmp	.+1350   	; 0x4e5a <interpretuj_wiadomosc_sms+0x5b8>
    4914:	e8 2f       	mov	r30, r24
    4916:	f0 e0       	ldi	r31, 0x00	; 0
    4918:	e0 57       	subi	r30, 0x70	; 112
    491a:	fb 4d       	sbci	r31, 0xDB	; 219
    491c:	0c 94 74 2c 	jmp	0x58e8	; 0x58e8 <__tablejump2__>
    4920:	ac 24       	eor	r10, r12
    4922:	f5 24       	eor	r15, r5
    4924:	02 25       	eor	r16, r2
    4926:	78 24       	eor	r7, r8
    4928:	2f 27       	eor	r18, r31
    492a:	de 24       	eor	r13, r14
    492c:	0e 25       	eor	r16, r14
    492e:	36 25       	eor	r19, r6
    4930:	2d 27       	eor	r18, r29
    4932:	2d 27       	eor	r18, r29
    4934:	58 25       	eor	r21, r8
    4936:	e2 25       	eor	r30, r2
    4938:	9d 26       	eor	r9, r29
    493a:	14 27       	eor	r17, r20
    493c:	16 27       	eor	r17, r22
    493e:	1b 27       	eor	r17, r27
    4940:	21 27       	eor	r18, r17
      *ptr = toupper(*ptr);
    4942:	90 e0       	ldi	r25, 0x00	; 0
    4944:	0e 94 cb 2e 	call	0x5d96	; 0x5d96 <toupper>
    4948:	f8 01       	movw	r30, r16
    494a:	31 97       	sbiw	r30, 0x01	; 1
    494c:	80 83       	st	Z, r24
    494e:	d4 cf       	rjmp	.-88     	; 0x48f8 <interpretuj_wiadomosc_sms+0x56>
  case INSTRUKCJA_CODE: {
    przeskocz_biale_znaki(sms);
    4950:	0f 5f       	subi	r16, 0xFF	; 255
    4952:	1f 4f       	sbci	r17, 0xFF	; 255
    4954:	1a 8b       	std	Y+18, r17	; 0x12
    4956:	09 8b       	std	Y+17, r16	; 0x11
    4958:	09 89       	ldd	r16, Y+17	; 0x11
    495a:	1a 89       	ldd	r17, Y+18	; 0x12
    495c:	f8 01       	movw	r30, r16
    495e:	80 81       	ld	r24, Z
    4960:	90 e0       	ldi	r25, 0x00	; 0
    4962:	0e 94 c2 2e 	call	0x5d84	; 0x5d84 <isspace>
    4966:	89 2b       	or	r24, r25
    4968:	99 f7       	brne	.-26     	; 0x4950 <interpretuj_wiadomosc_sms+0xae>
    496a:	c8 01       	movw	r24, r16
    496c:	8e 19       	sub	r24, r14
    496e:	9f 09       	sbc	r25, r15
    4970:	fc 01       	movw	r30, r24
    4972:	e3 52       	subi	r30, 0x23	; 35
    4974:	f8 4f       	sbci	r31, 0xF8	; 248
    4976:	34 e0       	ldi	r19, 0x04	; 4
    for (uchar i = 0; i < LICZBA_BAJTOW_KODU_DOSTEPU; ++i) {
      const uchar znak = bufor_eeprom[(sms - sms_pom) + i];
    4978:	21 91       	ld	r18, Z+
      if (not((znak >= 'A' && znak <= 'Z') || (znak >= '0' && znak <= '9')))
    497a:	4f eb       	ldi	r20, 0xBF	; 191
    497c:	42 0f       	add	r20, r18
    497e:	4a 31       	cpi	r20, 0x1A	; 26
    4980:	28 f0       	brcs	.+10     	; 0x498c <interpretuj_wiadomosc_sms+0xea>
    4982:	20 53       	subi	r18, 0x30	; 48
    4984:	2a 30       	cpi	r18, 0x0A	; 10
    4986:	10 f0       	brcs	.+4      	; 0x498c <interpretuj_wiadomosc_sms+0xea>
          if (limit_value < 1 ||
              limit_value > MAX_LICZBA_NUMEROW_TELEFONOW_BRAMA) {
            return INTERPRETACJA_SMS_BLEDNE_DANE;
          }
        } else {
          return INTERPRETACJA_SMS_BLEDNE_DANE;
    4988:	82 e0       	ldi	r24, 0x02	; 2
    498a:	22 c0       	rjmp	.+68     	; 0x49d0 <interpretuj_wiadomosc_sms+0x12e>
    498c:	31 50       	subi	r19, 0x01	; 1
    for (uchar i = 0; i < LICZBA_BAJTOW_KODU_DOSTEPU; ++i) {
    498e:	a1 f7       	brne	.-24     	; 0x4978 <interpretuj_wiadomosc_sms+0xd6>
    memcpy(kod_modulu, bufor_eeprom + (sms - sms_pom),
    4990:	83 52       	subi	r24, 0x23	; 35
    4992:	98 4f       	sbci	r25, 0xF8	; 248
    4994:	fc 01       	movw	r30, r24
    4996:	40 81       	ld	r20, Z
    4998:	51 81       	ldd	r21, Z+1	; 0x01
    499a:	62 81       	ldd	r22, Z+2	; 0x02
    499c:	73 81       	ldd	r23, Z+3	; 0x03
    499e:	40 93 6f 03 	sts	0x036F, r20	; 0x80036f <kod_modulu>
    49a2:	50 93 70 03 	sts	0x0370, r21	; 0x800370 <kod_modulu+0x1>
    49a6:	60 93 71 03 	sts	0x0371, r22	; 0x800371 <kod_modulu+0x2>
    49aa:	70 93 72 03 	sts	0x0372, r23	; 0x800372 <kod_modulu+0x3>
    zapisz_znaki_w_eeprom(bufor_eeprom + (sms - sms_pom),
    49ae:	44 e0       	ldi	r20, 0x04	; 4
    49b0:	61 e0       	ldi	r22, 0x01	; 1
    49b2:	70 e0       	ldi	r23, 0x00	; 0
    49b4:	0e 94 66 29 	call	0x52cc	; 0x52cc <zapisz_znaki_w_eeprom>

      // Automatycznie ustaw OPEN CLIP (tryb publiczny = 1)
      tryb_pracy = 1; // Aktualizuj RAM
      zapisz_znak_w_eeprom(1, ADRES_EEPROM_TRYB_PRACY);

      return INTERPRETACJA_SMS_POPRAWNY;
    49b8:	83 e0       	ldi	r24, 0x03	; 3
    49ba:	0a c0       	rjmp	.+20     	; 0x49d0 <interpretuj_wiadomosc_sms+0x12e>
    if (pobierz_numer_telefonu(&sms, &numer_telefonu_do_ktorego_dzwonic[0], 14))
    49bc:	4e e0       	ldi	r20, 0x0E	; 14
    49be:	6b e4       	ldi	r22, 0x4B	; 75
    49c0:	73 e0       	ldi	r23, 0x03	; 3
    49c2:	ce 01       	movw	r24, r28
    49c4:	41 96       	adiw	r24, 0x11	; 17
    49c6:	0e 94 c4 23 	call	0x4788	; 0x4788 <pobierz_numer_telefonu>
    49ca:	81 11       	cpse	r24, r1
    49cc:	4a c2       	rjmp	.+1172   	; 0x4e62 <interpretuj_wiadomosc_sms+0x5c0>
    return INTERPRETACJA_SMS_USER_BEZ_NUMERU;
    49ce:	86 e0       	ldi	r24, 0x06	; 6
    dodaj_komende(KOMENDA_KOLEJKI_DODAJ_SUPER_USERA);
    return INTERPRETACJA_SMS_POPRAWNY;
  }
  }
  return INTERPRETACJA_SMS_ZLY_FORMAT;
}
    49d0:	62 96       	adiw	r28, 0x12	; 18
    49d2:	0f b6       	in	r0, 0x3f	; 63
    49d4:	f8 94       	cli
    49d6:	de bf       	out	0x3e, r29	; 62
    49d8:	0f be       	out	0x3f, r0	; 63
    49da:	cd bf       	out	0x3d, r28	; 61
    49dc:	df 91       	pop	r29
    49de:	cf 91       	pop	r28
    49e0:	1f 91       	pop	r17
    49e2:	0f 91       	pop	r16
    49e4:	ff 90       	pop	r15
    49e6:	ef 90       	pop	r14
    49e8:	08 95       	ret
    if (not pobierz_numer_telefonu(&sms, &numer_telefonu_do_ktorego_dzwonic[0],
    49ea:	4e e0       	ldi	r20, 0x0E	; 14
    49ec:	6b e4       	ldi	r22, 0x4B	; 75
    49ee:	73 e0       	ldi	r23, 0x03	; 3
    49f0:	ce 01       	movw	r24, r28
    49f2:	41 96       	adiw	r24, 0x11	; 17
    49f4:	0e 94 c4 23 	call	0x4788	; 0x4788 <pobierz_numer_telefonu>
    49f8:	88 23       	and	r24, r24
    49fa:	31 f2       	breq	.-116    	; 0x4988 <interpretuj_wiadomosc_sms+0xe6>
    dodaj_komende(KOMENDA_KOLEJKI_DODAJ_UZYTKOWNIKA_BRAMA);
    49fc:	85 e8       	ldi	r24, 0x85	; 133
    dodaj_komende(KOMENDA_KOLEJKI_DODAJ_SUPER_USERA);
    49fe:	0e 94 54 27 	call	0x4ea8	; 0x4ea8 <dodaj_komende>
    4a02:	da cf       	rjmp	.-76     	; 0x49b8 <interpretuj_wiadomosc_sms+0x116>
    if (not pobierz_numer_telefonu(&sms, &numer_telefonu_do_ktorego_dzwonic[0],
    4a04:	4e e0       	ldi	r20, 0x0E	; 14
    4a06:	6b e4       	ldi	r22, 0x4B	; 75
    4a08:	73 e0       	ldi	r23, 0x03	; 3
    4a0a:	ce 01       	movw	r24, r28
    4a0c:	41 96       	adiw	r24, 0x11	; 17
    4a0e:	0e 94 c4 23 	call	0x4788	; 0x4788 <pobierz_numer_telefonu>
    4a12:	88 23       	and	r24, r24
    4a14:	09 f4       	brne	.+2      	; 0x4a18 <interpretuj_wiadomosc_sms+0x176>
    4a16:	b8 cf       	rjmp	.-144    	; 0x4988 <interpretuj_wiadomosc_sms+0xe6>
    dodaj_komende(KOMENDA_KOLEJKI_USUN_UZYTKOWNIKA_BRAMA);
    4a18:	88 e8       	ldi	r24, 0x88	; 136
    4a1a:	f1 cf       	rjmp	.-30     	; 0x49fe <interpretuj_wiadomosc_sms+0x15c>
    const uchar podtryb =
    4a1c:	4a e0       	ldi	r20, 0x0A	; 10
    4a1e:	68 e0       	ldi	r22, 0x08	; 8
    4a20:	ce 01       	movw	r24, r28
    4a22:	41 96       	adiw	r24, 0x11	; 17
    4a24:	0e 94 a4 22 	call	0x4548	; 0x4548 <interpretuj_instrukcje_sms>
    if (podtryb == INSTRUKCJA_CLIP) {
    4a28:	88 30       	cpi	r24, 0x08	; 8
    4a2a:	71 f4       	brne	.+28     	; 0x4a48 <interpretuj_wiadomosc_sms+0x1a6>
      tryb_pracy = 1; // Publiczny
    4a2c:	81 e0       	ldi	r24, 0x01	; 1
    4a2e:	80 93 00 01 	sts	0x0100, r24	; 0x800100 <tryb_pracy>
      zapisz_znak_w_eeprom(1, ADRES_EEPROM_TRYB_PRACY);
    4a32:	6e ef       	ldi	r22, 0xFE	; 254
    4a34:	7f e0       	ldi	r23, 0x0F	; 15
      zapisz_znak_w_eeprom(0, ADRES_EEPROM_TRYB_PRACY);
    4a36:	0e 94 91 29 	call	0x5322	; 0x5322 <zapisz_znak_w_eeprom>
      tryb_clip = TRUE;
    4a3a:	8f ef       	ldi	r24, 0xFF	; 255
    4a3c:	80 93 01 01 	sts	0x0101, r24	; 0x800101 <tryb_clip>
      zapisz_znak_w_eeprom(1, ADRES_EEPROM_TRYB_CLIP_DTMF);
    4a40:	6f ef       	ldi	r22, 0xFF	; 255
    4a42:	7f e0       	ldi	r23, 0x0F	; 15
    zapisz_znak_w_eeprom(1, ADRES_EEPROM_BLOKADA_SYSTEMU);
    4a44:	81 e0       	ldi	r24, 0x01	; 1
    4a46:	0f c0       	rjmp	.+30     	; 0x4a66 <interpretuj_wiadomosc_sms+0x1c4>
    } else if (podtryb == INSTRUKCJA_DTMF) {
    4a48:	89 30       	cpi	r24, 0x09	; 9
    4a4a:	09 f0       	breq	.+2      	; 0x4a4e <interpretuj_wiadomosc_sms+0x1ac>
    4a4c:	2b c2       	rjmp	.+1110   	; 0x4ea4 <interpretuj_wiadomosc_sms+0x602>
      tryb_pracy = 1; // Publiczny
    4a4e:	81 e0       	ldi	r24, 0x01	; 1
    4a50:	80 93 00 01 	sts	0x0100, r24	; 0x800100 <tryb_pracy>
      zapisz_znak_w_eeprom(1, ADRES_EEPROM_TRYB_PRACY);
    4a54:	6e ef       	ldi	r22, 0xFE	; 254
    4a56:	7f e0       	ldi	r23, 0x0F	; 15
      zapisz_znak_w_eeprom(0, ADRES_EEPROM_TRYB_PRACY);
    4a58:	0e 94 91 29 	call	0x5322	; 0x5322 <zapisz_znak_w_eeprom>
      tryb_clip = FALSE; // DTMF
    4a5c:	10 92 01 01 	sts	0x0101, r1	; 0x800101 <tryb_clip>
      zapisz_znak_w_eeprom(0, ADRES_EEPROM_TRYB_CLIP_DTMF);
    4a60:	6f ef       	ldi	r22, 0xFF	; 255
    4a62:	7f e0       	ldi	r23, 0x0F	; 15
    zapisz_znak_w_eeprom(0, ADRES_EEPROM_BLOKADA_SYSTEMU);
    4a64:	80 e0       	ldi	r24, 0x00	; 0
      zapisz_znak_w_eeprom(1, ADRES_EEPROM_TRYB_PRACY);
    4a66:	0e 94 91 29 	call	0x5322	; 0x5322 <zapisz_znak_w_eeprom>
    4a6a:	a6 cf       	rjmp	.-180    	; 0x49b8 <interpretuj_wiadomosc_sms+0x116>
    const uchar podtryb =
    4a6c:	4a e0       	ldi	r20, 0x0A	; 10
    4a6e:	68 e0       	ldi	r22, 0x08	; 8
    4a70:	ce 01       	movw	r24, r28
    4a72:	41 96       	adiw	r24, 0x11	; 17
    4a74:	0e 94 a4 22 	call	0x4548	; 0x4548 <interpretuj_instrukcje_sms>
      tryb_pracy = 0; // Prywatny
    4a78:	10 92 00 01 	sts	0x0100, r1	; 0x800100 <tryb_pracy>
      zapisz_znak_w_eeprom(0, ADRES_EEPROM_TRYB_PRACY);
    4a7c:	6e ef       	ldi	r22, 0xFE	; 254
    4a7e:	7f e0       	ldi	r23, 0x0F	; 15
    if (podtryb == INSTRUKCJA_CLIP) {
    4a80:	88 30       	cpi	r24, 0x08	; 8
    4a82:	11 f4       	brne	.+4      	; 0x4a88 <interpretuj_wiadomosc_sms+0x1e6>
      zapisz_znak_w_eeprom(0, ADRES_EEPROM_TRYB_PRACY);
    4a84:	80 e0       	ldi	r24, 0x00	; 0
    4a86:	d7 cf       	rjmp	.-82     	; 0x4a36 <interpretuj_wiadomosc_sms+0x194>
    } else if (podtryb == INSTRUKCJA_DTMF) {
    4a88:	89 30       	cpi	r24, 0x09	; 9
    4a8a:	11 f4       	brne	.+4      	; 0x4a90 <interpretuj_wiadomosc_sms+0x1ee>
      zapisz_znak_w_eeprom(0, ADRES_EEPROM_TRYB_PRACY);
    4a8c:	80 e0       	ldi	r24, 0x00	; 0
    4a8e:	e4 cf       	rjmp	.-56     	; 0x4a58 <interpretuj_wiadomosc_sms+0x1b6>
      zapisz_znak_w_eeprom(0, ADRES_EEPROM_TRYB_PRACY);
    4a90:	80 e0       	ldi	r24, 0x00	; 0
    4a92:	0e 94 91 29 	call	0x5322	; 0x5322 <zapisz_znak_w_eeprom>
      if (skryba_wlaczona) {
    4a96:	80 91 f4 01 	lds	r24, 0x01F4	; 0x8001f4 <skryba_wlaczona>
    4a9a:	88 23       	and	r24, r24
    4a9c:	09 f4       	brne	.+2      	; 0x4aa0 <interpretuj_wiadomosc_sms+0x1fe>
    4a9e:	8c cf       	rjmp	.-232    	; 0x49b8 <interpretuj_wiadomosc_sms+0x116>
        zapisz_znak_w_eeprom(0, ADRES_EEPROM_SKRYBA);
    4aa0:	69 ef       	ldi	r22, 0xF9	; 249
    4aa2:	7f e0       	ldi	r23, 0x0F	; 15
    4aa4:	80 e0       	ldi	r24, 0x00	; 0
    4aa6:	0e 94 91 29 	call	0x5322	; 0x5322 <zapisz_znak_w_eeprom>
        skryba_wlaczona = FALSE;
    4aaa:	10 92 f4 01 	sts	0x01F4, r1	; 0x8001f4 <skryba_wlaczona>
    4aae:	84 cf       	rjmp	.-248    	; 0x49b8 <interpretuj_wiadomosc_sms+0x116>
    uchar ma_parametry = pobierz_long(&sms, &h) && pomin_znak(&sms, ':') &&
    4ab0:	be 01       	movw	r22, r28
    4ab2:	67 5f       	subi	r22, 0xF7	; 247
    4ab4:	7f 4f       	sbci	r23, 0xFF	; 255
    4ab6:	ce 01       	movw	r24, r28
    4ab8:	41 96       	adiw	r24, 0x11	; 17
    4aba:	0e 94 fe 22 	call	0x45fc	; 0x45fc <pobierz_long>
                         pobierz_long(&sms, &m) && pomin_znak(&sms, ':') &&
    4abe:	88 23       	and	r24, r24
    4ac0:	31 f1       	breq	.+76     	; 0x4b0e <interpretuj_wiadomosc_sms+0x26c>
    uchar ma_parametry = pobierz_long(&sms, &h) && pomin_znak(&sms, ':') &&
    4ac2:	6a e3       	ldi	r22, 0x3A	; 58
    4ac4:	ce 01       	movw	r24, r28
    4ac6:	41 96       	adiw	r24, 0x11	; 17
    4ac8:	0e 94 21 23 	call	0x4642	; 0x4642 <pomin_znak>
    4acc:	88 23       	and	r24, r24
    4ace:	f9 f0       	breq	.+62     	; 0x4b0e <interpretuj_wiadomosc_sms+0x26c>
                         pobierz_long(&sms, &m) && pomin_znak(&sms, ':') &&
    4ad0:	be 01       	movw	r22, r28
    4ad2:	6b 5f       	subi	r22, 0xFB	; 251
    4ad4:	7f 4f       	sbci	r23, 0xFF	; 255
    4ad6:	ce 01       	movw	r24, r28
    4ad8:	41 96       	adiw	r24, 0x11	; 17
    4ada:	0e 94 fe 22 	call	0x45fc	; 0x45fc <pobierz_long>
    uchar ma_parametry = pobierz_long(&sms, &h) && pomin_znak(&sms, ':') &&
    4ade:	88 23       	and	r24, r24
    4ae0:	b1 f0       	breq	.+44     	; 0x4b0e <interpretuj_wiadomosc_sms+0x26c>
                         pobierz_long(&sms, &m) && pomin_znak(&sms, ':') &&
    4ae2:	6a e3       	ldi	r22, 0x3A	; 58
    4ae4:	ce 01       	movw	r24, r28
    4ae6:	41 96       	adiw	r24, 0x11	; 17
    4ae8:	0e 94 21 23 	call	0x4642	; 0x4642 <pomin_znak>
    4aec:	88 23       	and	r24, r24
    4aee:	79 f0       	breq	.+30     	; 0x4b0e <interpretuj_wiadomosc_sms+0x26c>
                         pobierz_long(&sms, &s);
    4af0:	be 01       	movw	r22, r28
    4af2:	6f 5f       	subi	r22, 0xFF	; 255
    4af4:	7f 4f       	sbci	r23, 0xFF	; 255
    4af6:	ce 01       	movw	r24, r28
    4af8:	41 96       	adiw	r24, 0x11	; 17
    4afa:	0e 94 fe 22 	call	0x45fc	; 0x45fc <pobierz_long>
                         pobierz_long(&sms, &m) && pomin_znak(&sms, ':') &&
    4afe:	21 e0       	ldi	r18, 0x01	; 1
    4b00:	30 e0       	ldi	r19, 0x00	; 0
    4b02:	81 11       	cpse	r24, r1
    4b04:	02 c0       	rjmp	.+4      	; 0x4b0a <interpretuj_wiadomosc_sms+0x268>
    4b06:	30 e0       	ldi	r19, 0x00	; 0
    4b08:	20 e0       	ldi	r18, 0x00	; 0
    if (!ma_parametry) {
    4b0a:	23 2b       	or	r18, r19
    4b0c:	e9 f4       	brne	.+58     	; 0x4b48 <interpretuj_wiadomosc_sms+0x2a6>
      sms_pomijaj_aktualizacje_czasu = TRUE;
    4b0e:	8f ef       	ldi	r24, 0xFF	; 255
    4b10:	80 93 f5 01 	sts	0x01F5, r24	; 0x8001f5 <sms_pomijaj_aktualizacje_czasu>
      strcpy_P((char *)sms_out, PSTR("Time: "));
    4b14:	6d ee       	ldi	r22, 0xED	; 237
    4b16:	73 e0       	ldi	r23, 0x03	; 3
    4b18:	89 e6       	ldi	r24, 0x69	; 105
    4b1a:	95 e0       	ldi	r25, 0x05	; 5
    4b1c:	0e 94 e9 2e 	call	0x5dd2	; 0x5dd2 <strcpy_P>
      sms_out += strlen((char *)sms_out);
    4b20:	89 e6       	ldi	r24, 0x69	; 105
    4b22:	95 e0       	ldi	r25, 0x05	; 5
    4b24:	fc 01       	movw	r30, r24
    4b26:	01 90       	ld	r0, Z+
    4b28:	00 20       	and	r0, r0
    4b2a:	e9 f7       	brne	.-6      	; 0x4b26 <interpretuj_wiadomosc_sms+0x284>
    4b2c:	cf 01       	movw	r24, r30
      strcpy((char *)sms_out, rtc_czas);
    4b2e:	6b e0       	ldi	r22, 0x0B	; 11
    4b30:	71 e0       	ldi	r23, 0x01	; 1
    4b32:	01 97       	sbiw	r24, 0x01	; 1
    4b34:	0e 94 63 2f 	call	0x5ec6	; 0x5ec6 <strcpy>
      strcpy((char *)numer_telefonu_wysylanego_smsa,
    4b38:	6a e3       	ldi	r22, 0x3A	; 58
    4b3a:	73 e0       	ldi	r23, 0x03	; 3
    4b3c:	80 e5       	ldi	r24, 0x50	; 80
    4b3e:	92 e0       	ldi	r25, 0x02	; 2
    4b40:	0e 94 63 2f 	call	0x5ec6	; 0x5ec6 <strcpy>
      dodaj_komende(KOMENDA_KOLEJKI_WYSLIJ_SMSA_TEXT);
    4b44:	83 ed       	ldi	r24, 0xD3	; 211
    4b46:	5b cf       	rjmp	.-330    	; 0x49fe <interpretuj_wiadomosc_sms+0x15c>
    if (h < 0 || h > 23 || m < 0 || m > 59 || s < 0 || s > 59)
    4b48:	89 85       	ldd	r24, Y+9	; 0x09
    4b4a:	9a 85       	ldd	r25, Y+10	; 0x0a
    4b4c:	ab 85       	ldd	r26, Y+11	; 0x0b
    4b4e:	bc 85       	ldd	r27, Y+12	; 0x0c
    4b50:	88 31       	cpi	r24, 0x18	; 24
    4b52:	91 05       	cpc	r25, r1
    4b54:	a1 05       	cpc	r26, r1
    4b56:	b1 05       	cpc	r27, r1
    4b58:	08 f0       	brcs	.+2      	; 0x4b5c <interpretuj_wiadomosc_sms+0x2ba>
    4b5a:	16 cf       	rjmp	.-468    	; 0x4988 <interpretuj_wiadomosc_sms+0xe6>
    4b5c:	4d 81       	ldd	r20, Y+5	; 0x05
    4b5e:	5e 81       	ldd	r21, Y+6	; 0x06
    4b60:	6f 81       	ldd	r22, Y+7	; 0x07
    4b62:	78 85       	ldd	r23, Y+8	; 0x08
    4b64:	4c 33       	cpi	r20, 0x3C	; 60
    4b66:	51 05       	cpc	r21, r1
    4b68:	61 05       	cpc	r22, r1
    4b6a:	71 05       	cpc	r23, r1
    4b6c:	08 f0       	brcs	.+2      	; 0x4b70 <interpretuj_wiadomosc_sms+0x2ce>
    4b6e:	0c cf       	rjmp	.-488    	; 0x4988 <interpretuj_wiadomosc_sms+0xe6>
    4b70:	09 81       	ldd	r16, Y+1	; 0x01
    4b72:	1a 81       	ldd	r17, Y+2	; 0x02
    4b74:	2b 81       	ldd	r18, Y+3	; 0x03
    4b76:	3c 81       	ldd	r19, Y+4	; 0x04
    4b78:	0c 33       	cpi	r16, 0x3C	; 60
    4b7a:	11 05       	cpc	r17, r1
    4b7c:	21 05       	cpc	r18, r1
    4b7e:	31 05       	cpc	r19, r1
    4b80:	08 f0       	brcs	.+2      	; 0x4b84 <interpretuj_wiadomosc_sms+0x2e2>
    4b82:	02 cf       	rjmp	.-508    	; 0x4988 <interpretuj_wiadomosc_sms+0xe6>
    sprintf(bufor_ustaw_czas, "+CCLK=\"24/01/01,%02d:%02d:%02d+04\"", (int)h,
    4b84:	1f 93       	push	r17
    4b86:	0f 93       	push	r16
    4b88:	5f 93       	push	r21
    4b8a:	4f 93       	push	r20
    4b8c:	9f 93       	push	r25
    4b8e:	8f 93       	push	r24
    4b90:	87 e4       	ldi	r24, 0x47	; 71
    4b92:	91 e0       	ldi	r25, 0x01	; 1
    4b94:	9f 93       	push	r25
    4b96:	8f 93       	push	r24
    4b98:	89 eb       	ldi	r24, 0xB9	; 185
    4b9a:	97 e0       	ldi	r25, 0x07	; 7
    4b9c:	9f 93       	push	r25
    4b9e:	8f 93       	push	r24
    4ba0:	0e 94 84 2f 	call	0x5f08	; 0x5f08 <sprintf>
    dodaj_komende(KOMENDA_KOLEJKI_USTAW_ZEGAR_SIM900);
    4ba4:	8e ef       	ldi	r24, 0xFE	; 254
    4ba6:	0e 94 54 27 	call	0x4ea8	; 0x4ea8 <dodaj_komende>
    sms_pomijaj_aktualizacje_czasu = TRUE;
    4baa:	8f ef       	ldi	r24, 0xFF	; 255
    4bac:	80 93 f5 01 	sts	0x01F5, r24	; 0x8001f5 <sms_pomijaj_aktualizacje_czasu>
    return INTERPRETACJA_SMS_POPRAWNY;
    4bb0:	0f b6       	in	r0, 0x3f	; 63
    4bb2:	f8 94       	cli
    4bb4:	de bf       	out	0x3e, r29	; 62
    4bb6:	0f be       	out	0x3f, r0	; 63
    4bb8:	cd bf       	out	0x3d, r28	; 61
    4bba:	fe ce       	rjmp	.-516    	; 0x49b8 <interpretuj_wiadomosc_sms+0x116>
    przeskocz_biale_znaki(sms);
    4bbc:	0f 5f       	subi	r16, 0xFF	; 255
    4bbe:	1f 4f       	sbci	r17, 0xFF	; 255
    4bc0:	1a 8b       	std	Y+18, r17	; 0x12
    4bc2:	09 8b       	std	Y+17, r16	; 0x11
    4bc4:	09 89       	ldd	r16, Y+17	; 0x11
    4bc6:	1a 89       	ldd	r17, Y+18	; 0x12
    4bc8:	f8 01       	movw	r30, r16
    4bca:	80 81       	ld	r24, Z
    4bcc:	90 e0       	ldi	r25, 0x00	; 0
    4bce:	0e 94 c2 2e 	call	0x5d84	; 0x5d84 <isspace>
    4bd2:	89 2b       	or	r24, r25
    4bd4:	99 f7       	brne	.-26     	; 0x4bbc <interpretuj_wiadomosc_sms+0x31a>
    if (strncasecmp_P(sms, PSTR("OFF"), 3) == 0) {
    4bd6:	43 e0       	ldi	r20, 0x03	; 3
    4bd8:	50 e0       	ldi	r21, 0x00	; 0
    4bda:	69 ee       	ldi	r22, 0xE9	; 233
    4bdc:	73 e0       	ldi	r23, 0x03	; 3
    4bde:	c8 01       	movw	r24, r16
    4be0:	0e 94 f0 2e 	call	0x5de0	; 0x5de0 <strncasecmp_P>
    4be4:	89 2b       	or	r24, r25
    4be6:	01 f5       	brne	.+64     	; 0x4c28 <interpretuj_wiadomosc_sms+0x386>
      zapisz_znak_w_eeprom(0xFF, ADRES_EEPROM_CZAS_START_H);
    4be8:	6a ef       	ldi	r22, 0xFA	; 250
    4bea:	7f e0       	ldi	r23, 0x0F	; 15
    4bec:	8f ef       	ldi	r24, 0xFF	; 255
    4bee:	0e 94 91 29 	call	0x5322	; 0x5322 <zapisz_znak_w_eeprom>
      zapisz_znak_w_eeprom(0xFF, ADRES_EEPROM_CZAS_START_M);
    4bf2:	6b ef       	ldi	r22, 0xFB	; 251
    4bf4:	7f e0       	ldi	r23, 0x0F	; 15
    4bf6:	8f ef       	ldi	r24, 0xFF	; 255
    4bf8:	0e 94 91 29 	call	0x5322	; 0x5322 <zapisz_znak_w_eeprom>
      zapisz_znak_w_eeprom(0xFF, ADRES_EEPROM_CZAS_STOP_H);
    4bfc:	6c ef       	ldi	r22, 0xFC	; 252
    4bfe:	7f e0       	ldi	r23, 0x0F	; 15
    4c00:	8f ef       	ldi	r24, 0xFF	; 255
    4c02:	0e 94 91 29 	call	0x5322	; 0x5322 <zapisz_znak_w_eeprom>
      zapisz_znak_w_eeprom(0xFF, ADRES_EEPROM_CZAS_STOP_M);
    4c06:	6d ef       	ldi	r22, 0xFD	; 253
    4c08:	7f e0       	ldi	r23, 0x0F	; 15
    4c0a:	8f ef       	ldi	r24, 0xFF	; 255
    4c0c:	0e 94 91 29 	call	0x5322	; 0x5322 <zapisz_znak_w_eeprom>
      czas_start_h = 0xFF;
    4c10:	8f ef       	ldi	r24, 0xFF	; 255
    4c12:	80 93 0a 01 	sts	0x010A, r24	; 0x80010a <czas_start_h>
      czas_start_m = 0xFF;
    4c16:	80 93 09 01 	sts	0x0109, r24	; 0x800109 <czas_start_m>
      czas_stop_h = 0xFF;
    4c1a:	80 93 08 01 	sts	0x0108, r24	; 0x800108 <czas_stop_h>
      czas_stop_m = 0xFF;
    4c1e:	80 93 07 01 	sts	0x0107, r24	; 0x800107 <czas_stop_m>
      blokada_sterowania_czasowa = FALSE;
    4c22:	10 92 3f 02 	sts	0x023F, r1	; 0x80023f <blokada_sterowania_czasowa>
    4c26:	c8 ce       	rjmp	.-624    	; 0x49b8 <interpretuj_wiadomosc_sms+0x116>
    if (!pobierz_long(&sms, &sh) || !pomin_znak(&sms, ':') ||
    4c28:	be 01       	movw	r22, r28
    4c2a:	63 5f       	subi	r22, 0xF3	; 243
    4c2c:	7f 4f       	sbci	r23, 0xFF	; 255
    4c2e:	ce 01       	movw	r24, r28
    4c30:	41 96       	adiw	r24, 0x11	; 17
    4c32:	0e 94 fe 22 	call	0x45fc	; 0x45fc <pobierz_long>
    4c36:	88 23       	and	r24, r24
    4c38:	09 f4       	brne	.+2      	; 0x4c3c <interpretuj_wiadomosc_sms+0x39a>
    4c3a:	a6 ce       	rjmp	.-692    	; 0x4988 <interpretuj_wiadomosc_sms+0xe6>
    4c3c:	6a e3       	ldi	r22, 0x3A	; 58
    4c3e:	ce 01       	movw	r24, r28
    4c40:	41 96       	adiw	r24, 0x11	; 17
    4c42:	0e 94 21 23 	call	0x4642	; 0x4642 <pomin_znak>
    4c46:	88 23       	and	r24, r24
    4c48:	09 f4       	brne	.+2      	; 0x4c4c <interpretuj_wiadomosc_sms+0x3aa>
    4c4a:	9e ce       	rjmp	.-708    	; 0x4988 <interpretuj_wiadomosc_sms+0xe6>
        !pobierz_long(&sms, &sm))
    4c4c:	be 01       	movw	r22, r28
    4c4e:	67 5f       	subi	r22, 0xF7	; 247
    4c50:	7f 4f       	sbci	r23, 0xFF	; 255
    4c52:	ce 01       	movw	r24, r28
    4c54:	41 96       	adiw	r24, 0x11	; 17
    4c56:	0e 94 fe 22 	call	0x45fc	; 0x45fc <pobierz_long>
    if (!pobierz_long(&sms, &sh) || !pomin_znak(&sms, ':') ||
    4c5a:	88 23       	and	r24, r24
    4c5c:	09 f4       	brne	.+2      	; 0x4c60 <interpretuj_wiadomosc_sms+0x3be>
    4c5e:	94 ce       	rjmp	.-728    	; 0x4988 <interpretuj_wiadomosc_sms+0xe6>
    if (czy_jest_znak(&sms, '#')) { /* ok, pominelismy */
    4c60:	63 e2       	ldi	r22, 0x23	; 35
    4c62:	ce 01       	movw	r24, r28
    4c64:	41 96       	adiw	r24, 0x11	; 17
    4c66:	0e 94 4f 23 	call	0x469e	; 0x469e <czy_jest_znak>
    if (!pobierz_long(&sms, &eh) || !pomin_znak(&sms, ':') ||
    4c6a:	be 01       	movw	r22, r28
    4c6c:	6b 5f       	subi	r22, 0xFB	; 251
    4c6e:	7f 4f       	sbci	r23, 0xFF	; 255
    4c70:	ce 01       	movw	r24, r28
    4c72:	41 96       	adiw	r24, 0x11	; 17
    4c74:	0e 94 fe 22 	call	0x45fc	; 0x45fc <pobierz_long>
    4c78:	88 23       	and	r24, r24
    4c7a:	09 f4       	brne	.+2      	; 0x4c7e <interpretuj_wiadomosc_sms+0x3dc>
    4c7c:	85 ce       	rjmp	.-758    	; 0x4988 <interpretuj_wiadomosc_sms+0xe6>
    4c7e:	6a e3       	ldi	r22, 0x3A	; 58
    4c80:	ce 01       	movw	r24, r28
    4c82:	41 96       	adiw	r24, 0x11	; 17
    4c84:	0e 94 21 23 	call	0x4642	; 0x4642 <pomin_znak>
    4c88:	88 23       	and	r24, r24
    4c8a:	09 f4       	brne	.+2      	; 0x4c8e <interpretuj_wiadomosc_sms+0x3ec>
    4c8c:	7d ce       	rjmp	.-774    	; 0x4988 <interpretuj_wiadomosc_sms+0xe6>
        !pobierz_long(&sms, &em))
    4c8e:	be 01       	movw	r22, r28
    4c90:	6f 5f       	subi	r22, 0xFF	; 255
    4c92:	7f 4f       	sbci	r23, 0xFF	; 255
    4c94:	ce 01       	movw	r24, r28
    4c96:	41 96       	adiw	r24, 0x11	; 17
    4c98:	0e 94 fe 22 	call	0x45fc	; 0x45fc <pobierz_long>
    if (!pobierz_long(&sms, &eh) || !pomin_znak(&sms, ':') ||
    4c9c:	88 23       	and	r24, r24
    4c9e:	09 f4       	brne	.+2      	; 0x4ca2 <interpretuj_wiadomosc_sms+0x400>
    4ca0:	73 ce       	rjmp	.-794    	; 0x4988 <interpretuj_wiadomosc_sms+0xe6>
    if (sh < 0 || sh > 23 || sm < 0 || sm > 59 || eh < 0 || eh > 23 || em < 0 ||
    4ca2:	8d 85       	ldd	r24, Y+13	; 0x0d
    4ca4:	9e 85       	ldd	r25, Y+14	; 0x0e
    4ca6:	af 85       	ldd	r26, Y+15	; 0x0f
    4ca8:	b8 89       	ldd	r27, Y+16	; 0x10
    4caa:	88 31       	cpi	r24, 0x18	; 24
    4cac:	91 05       	cpc	r25, r1
    4cae:	a1 05       	cpc	r26, r1
    4cb0:	b1 05       	cpc	r27, r1
    4cb2:	08 f0       	brcs	.+2      	; 0x4cb6 <interpretuj_wiadomosc_sms+0x414>
    4cb4:	69 ce       	rjmp	.-814    	; 0x4988 <interpretuj_wiadomosc_sms+0xe6>
    4cb6:	49 85       	ldd	r20, Y+9	; 0x09
    4cb8:	5a 85       	ldd	r21, Y+10	; 0x0a
    4cba:	6b 85       	ldd	r22, Y+11	; 0x0b
    4cbc:	7c 85       	ldd	r23, Y+12	; 0x0c
    4cbe:	4c 33       	cpi	r20, 0x3C	; 60
    4cc0:	51 05       	cpc	r21, r1
    4cc2:	61 05       	cpc	r22, r1
    4cc4:	71 05       	cpc	r23, r1
    4cc6:	08 f0       	brcs	.+2      	; 0x4cca <interpretuj_wiadomosc_sms+0x428>
    4cc8:	5f ce       	rjmp	.-834    	; 0x4988 <interpretuj_wiadomosc_sms+0xe6>
    4cca:	4d 81       	ldd	r20, Y+5	; 0x05
    4ccc:	5e 81       	ldd	r21, Y+6	; 0x06
    4cce:	6f 81       	ldd	r22, Y+7	; 0x07
    4cd0:	78 85       	ldd	r23, Y+8	; 0x08
    4cd2:	48 31       	cpi	r20, 0x18	; 24
    4cd4:	51 05       	cpc	r21, r1
    4cd6:	61 05       	cpc	r22, r1
    4cd8:	71 05       	cpc	r23, r1
    4cda:	08 f0       	brcs	.+2      	; 0x4cde <interpretuj_wiadomosc_sms+0x43c>
    4cdc:	55 ce       	rjmp	.-854    	; 0x4988 <interpretuj_wiadomosc_sms+0xe6>
    4cde:	49 81       	ldd	r20, Y+1	; 0x01
    4ce0:	5a 81       	ldd	r21, Y+2	; 0x02
    4ce2:	6b 81       	ldd	r22, Y+3	; 0x03
    4ce4:	7c 81       	ldd	r23, Y+4	; 0x04
    4ce6:	4c 33       	cpi	r20, 0x3C	; 60
    4ce8:	51 05       	cpc	r21, r1
    4cea:	61 05       	cpc	r22, r1
    4cec:	71 05       	cpc	r23, r1
    4cee:	08 f0       	brcs	.+2      	; 0x4cf2 <interpretuj_wiadomosc_sms+0x450>
    4cf0:	4b ce       	rjmp	.-874    	; 0x4988 <interpretuj_wiadomosc_sms+0xe6>
    zapisz_znak_w_eeprom((uchar)sh, ADRES_EEPROM_CZAS_START_H);
    4cf2:	6a ef       	ldi	r22, 0xFA	; 250
    4cf4:	7f e0       	ldi	r23, 0x0F	; 15
    4cf6:	0e 94 91 29 	call	0x5322	; 0x5322 <zapisz_znak_w_eeprom>
    zapisz_znak_w_eeprom((uchar)sm, ADRES_EEPROM_CZAS_START_M);
    4cfa:	6b ef       	ldi	r22, 0xFB	; 251
    4cfc:	7f e0       	ldi	r23, 0x0F	; 15
    4cfe:	89 85       	ldd	r24, Y+9	; 0x09
    4d00:	0e 94 91 29 	call	0x5322	; 0x5322 <zapisz_znak_w_eeprom>
    zapisz_znak_w_eeprom((uchar)eh, ADRES_EEPROM_CZAS_STOP_H);
    4d04:	6c ef       	ldi	r22, 0xFC	; 252
    4d06:	7f e0       	ldi	r23, 0x0F	; 15
    4d08:	8d 81       	ldd	r24, Y+5	; 0x05
    4d0a:	0e 94 91 29 	call	0x5322	; 0x5322 <zapisz_znak_w_eeprom>
    zapisz_znak_w_eeprom((uchar)em, ADRES_EEPROM_CZAS_STOP_M);
    4d0e:	6d ef       	ldi	r22, 0xFD	; 253
    4d10:	7f e0       	ldi	r23, 0x0F	; 15
    4d12:	89 81       	ldd	r24, Y+1	; 0x01
    4d14:	0e 94 91 29 	call	0x5322	; 0x5322 <zapisz_znak_w_eeprom>
    czas_start_h = (uchar)sh;
    4d18:	8d 85       	ldd	r24, Y+13	; 0x0d
    4d1a:	80 93 0a 01 	sts	0x010A, r24	; 0x80010a <czas_start_h>
    czas_start_m = (uchar)sm;
    4d1e:	89 85       	ldd	r24, Y+9	; 0x09
    4d20:	80 93 09 01 	sts	0x0109, r24	; 0x800109 <czas_start_m>
    czas_stop_h = (uchar)eh;
    4d24:	8d 81       	ldd	r24, Y+5	; 0x05
    4d26:	80 93 08 01 	sts	0x0108, r24	; 0x800108 <czas_stop_h>
    czas_stop_m = (uchar)em;
    4d2a:	89 81       	ldd	r24, Y+1	; 0x01
    4d2c:	80 93 07 01 	sts	0x0107, r24	; 0x800107 <czas_stop_m>
    4d30:	43 ce       	rjmp	.-890    	; 0x49b8 <interpretuj_wiadomosc_sms+0x116>
    przeskocz_biale_znaki(sms);
    4d32:	0f 5f       	subi	r16, 0xFF	; 255
    4d34:	1f 4f       	sbci	r17, 0xFF	; 255
    4d36:	1a 8b       	std	Y+18, r17	; 0x12
    4d38:	09 8b       	std	Y+17, r16	; 0x11
    4d3a:	09 89       	ldd	r16, Y+17	; 0x11
    4d3c:	1a 89       	ldd	r17, Y+18	; 0x12
    4d3e:	f8 01       	movw	r30, r16
    4d40:	80 81       	ld	r24, Z
    4d42:	90 e0       	ldi	r25, 0x00	; 0
    4d44:	0e 94 c2 2e 	call	0x5d84	; 0x5d84 <isspace>
    4d48:	89 2b       	or	r24, r25
    4d4a:	99 f7       	brne	.-26     	; 0x4d32 <interpretuj_wiadomosc_sms+0x490>
    if (strncasecmp_P(sms, PSTR("ON"), 2) == 0) {
    4d4c:	42 e0       	ldi	r20, 0x02	; 2
    4d4e:	50 e0       	ldi	r21, 0x00	; 0
    4d50:	66 ee       	ldi	r22, 0xE6	; 230
    4d52:	73 e0       	ldi	r23, 0x03	; 3
    4d54:	c8 01       	movw	r24, r16
    4d56:	0e 94 f0 2e 	call	0x5de0	; 0x5de0 <strncasecmp_P>
    4d5a:	89 2b       	or	r24, r25
    4d5c:	09 f0       	breq	.+2      	; 0x4d60 <interpretuj_wiadomosc_sms+0x4be>
    4d5e:	47 c0       	rjmp	.+142    	; 0x4dee <interpretuj_wiadomosc_sms+0x54c>
      sms += 2; // Przeskocz "ON"
    4d60:	0e 5f       	subi	r16, 0xFE	; 254
    4d62:	1f 4f       	sbci	r17, 0xFF	; 255
    4d64:	1a 8b       	std	Y+18, r17	; 0x12
    4d66:	09 8b       	std	Y+17, r16	; 0x11
      long limit_value = 800; // Domyslny
    4d68:	80 e2       	ldi	r24, 0x20	; 32
    4d6a:	93 e0       	ldi	r25, 0x03	; 3
    4d6c:	a0 e0       	ldi	r26, 0x00	; 0
    4d6e:	b0 e0       	ldi	r27, 0x00	; 0
    4d70:	89 83       	std	Y+1, r24	; 0x01
    4d72:	9a 83       	std	Y+2, r25	; 0x02
    4d74:	ab 83       	std	Y+3, r26	; 0x03
    4d76:	bc 83       	std	Y+4, r27	; 0x04
      przeskocz_biale_znaki(sms);
    4d78:	e9 88       	ldd	r14, Y+17	; 0x11
    4d7a:	fa 88       	ldd	r15, Y+18	; 0x12
    4d7c:	f7 01       	movw	r30, r14
    4d7e:	10 81       	ld	r17, Z
    4d80:	81 2f       	mov	r24, r17
    4d82:	90 e0       	ldi	r25, 0x00	; 0
    4d84:	0e 94 c2 2e 	call	0x5d84	; 0x5d84 <isspace>
    4d88:	89 2b       	or	r24, r25
    4d8a:	a1 f4       	brne	.+40     	; 0x4db4 <interpretuj_wiadomosc_sms+0x512>
      if (*sms >= '0' && *sms <= '9') {
    4d8c:	10 53       	subi	r17, 0x30	; 48
    4d8e:	1a 30       	cpi	r17, 0x0A	; 10
    4d90:	b8 f0       	brcs	.+46     	; 0x4dc0 <interpretuj_wiadomosc_sms+0x51e>
    return INTERPRETACJA_SMS_POPRAWNY;
    4d92:	08 e0       	ldi	r16, 0x08	; 8
    4d94:	10 e0       	ldi	r17, 0x00	; 0
        if (!czy_aktywny_numer_telefonu_brama(i)) {
    4d96:	c8 01       	movw	r24, r16
    4d98:	0e 94 7e 32 	call	0x64fc	; 0x64fc <eeprom_read_byte>
    4d9c:	f8 2e       	mov	r15, r24
    4d9e:	2f ef       	ldi	r18, 0xFF	; 255
    4da0:	82 17       	cp	r24, r18
    4da2:	09 f4       	brne	.+2      	; 0x4da6 <interpretuj_wiadomosc_sms+0x504>
    4da4:	60 c0       	rjmp	.+192    	; 0x4e66 <interpretuj_wiadomosc_sms+0x5c4>
    4da6:	0b 5f       	subi	r16, 0xFB	; 251
    4da8:	1f 4f       	sbci	r17, 0xFF	; 255
      for (uint i = 0; i < MAX_LICZBA_NUMEROW_TELEFONOW_BRAMA; ++i) {
    4daa:	08 3a       	cpi	r16, 0xA8	; 168
    4dac:	8f e0       	ldi	r24, 0x0F	; 15
    4dae:	18 07       	cpc	r17, r24
    4db0:	91 f7       	brne	.-28     	; 0x4d96 <interpretuj_wiadomosc_sms+0x4f4>
    4db2:	ea cd       	rjmp	.-1068   	; 0x4988 <interpretuj_wiadomosc_sms+0xe6>
      przeskocz_biale_znaki(sms);
    4db4:	ff ef       	ldi	r31, 0xFF	; 255
    4db6:	ef 1a       	sub	r14, r31
    4db8:	ff 0a       	sbc	r15, r31
    4dba:	fa 8a       	std	Y+18, r15	; 0x12
    4dbc:	e9 8a       	std	Y+17, r14	; 0x11
    4dbe:	dc cf       	rjmp	.-72     	; 0x4d78 <interpretuj_wiadomosc_sms+0x4d6>
        if (pobierz_long(&sms, &limit_value)) {
    4dc0:	be 01       	movw	r22, r28
    4dc2:	6f 5f       	subi	r22, 0xFF	; 255
    4dc4:	7f 4f       	sbci	r23, 0xFF	; 255
    4dc6:	ce 01       	movw	r24, r28
    4dc8:	41 96       	adiw	r24, 0x11	; 17
    4dca:	0e 94 fe 22 	call	0x45fc	; 0x45fc <pobierz_long>
    4dce:	88 23       	and	r24, r24
    4dd0:	09 f4       	brne	.+2      	; 0x4dd4 <interpretuj_wiadomosc_sms+0x532>
    4dd2:	da cd       	rjmp	.-1100   	; 0x4988 <interpretuj_wiadomosc_sms+0xe6>
          if (limit_value < 1 ||
    4dd4:	89 81       	ldd	r24, Y+1	; 0x01
    4dd6:	9a 81       	ldd	r25, Y+2	; 0x02
    4dd8:	ab 81       	ldd	r26, Y+3	; 0x03
    4dda:	bc 81       	ldd	r27, Y+4	; 0x04
    4ddc:	01 97       	sbiw	r24, 0x01	; 1
    4dde:	a1 09       	sbc	r26, r1
    4de0:	b1 09       	sbc	r27, r1
    4de2:	80 32       	cpi	r24, 0x20	; 32
    4de4:	93 40       	sbci	r25, 0x03	; 3
    4de6:	a1 05       	cpc	r26, r1
    4de8:	b1 05       	cpc	r27, r1
    4dea:	98 f2       	brcs	.-90     	; 0x4d92 <interpretuj_wiadomosc_sms+0x4f0>
    4dec:	cd cd       	rjmp	.-1126   	; 0x4988 <interpretuj_wiadomosc_sms+0xe6>
    } else if (strncasecmp_P(sms, PSTR("OFF"), 3) == 0) {
    4dee:	43 e0       	ldi	r20, 0x03	; 3
    4df0:	50 e0       	ldi	r21, 0x00	; 0
    4df2:	62 ee       	ldi	r22, 0xE2	; 226
    4df4:	73 e0       	ldi	r23, 0x03	; 3
    4df6:	c8 01       	movw	r24, r16
    4df8:	0e 94 f0 2e 	call	0x5de0	; 0x5de0 <strncasecmp_P>
    4dfc:	89 2b       	or	r24, r25
    4dfe:	09 f0       	breq	.+2      	; 0x4e02 <interpretuj_wiadomosc_sms+0x560>
    4e00:	c3 cd       	rjmp	.-1146   	; 0x4988 <interpretuj_wiadomosc_sms+0xe6>
      zapisz_znak_w_eeprom(0, ADRES_EEPROM_SKRYBA);
    4e02:	69 ef       	ldi	r22, 0xF9	; 249
    4e04:	7f e0       	ldi	r23, 0x0F	; 15
    4e06:	80 e0       	ldi	r24, 0x00	; 0
    4e08:	0e 94 91 29 	call	0x5322	; 0x5322 <zapisz_znak_w_eeprom>
      skryba_wlaczona = FALSE; // Aktualizuj RAM natychmiast
    4e0c:	10 92 f4 01 	sts	0x01F4, r1	; 0x8001f4 <skryba_wlaczona>
      uchar poprzedni_tryb =
    4e10:	88 ef       	ldi	r24, 0xF8	; 248
    4e12:	9f e0       	ldi	r25, 0x0F	; 15
    4e14:	0e 94 7e 32 	call	0x64fc	; 0x64fc <eeprom_read_byte>
      if (poprzedni_tryb != 0xFF) {  // Jeli by zapisany
    4e18:	8f 3f       	cpi	r24, 0xFF	; 255
    4e1a:	09 f4       	brne	.+2      	; 0x4e1e <interpretuj_wiadomosc_sms+0x57c>
    4e1c:	cd cd       	rjmp	.-1126   	; 0x49b8 <interpretuj_wiadomosc_sms+0x116>
      tryb_pracy = 1; // Aktualizuj RAM
    4e1e:	80 93 00 01 	sts	0x0100, r24	; 0x800100 <tryb_pracy>
      zapisz_znak_w_eeprom(1, ADRES_EEPROM_TRYB_PRACY);
    4e22:	6e ef       	ldi	r22, 0xFE	; 254
    4e24:	7f e0       	ldi	r23, 0x0F	; 15
    4e26:	1f ce       	rjmp	.-962    	; 0x4a66 <interpretuj_wiadomosc_sms+0x1c4>
    return INTERPRETACJA_SMS_DEBUG;
    4e28:	88 e0       	ldi	r24, 0x08	; 8
    4e2a:	d2 cd       	rjmp	.-1116   	; 0x49d0 <interpretuj_wiadomosc_sms+0x12e>
    blokada_systemu = FALSE;
    4e2c:	10 92 e2 01 	sts	0x01E2, r1	; 0x8001e2 <blokada_systemu>
    zapisz_znak_w_eeprom(0, ADRES_EEPROM_BLOKADA_SYSTEMU);
    4e30:	67 ef       	ldi	r22, 0xF7	; 247
    4e32:	7f e0       	ldi	r23, 0x0F	; 15
    4e34:	17 ce       	rjmp	.-978    	; 0x4a64 <interpretuj_wiadomosc_sms+0x1c2>
    blokada_systemu = TRUE;
    4e36:	8f ef       	ldi	r24, 0xFF	; 255
    4e38:	80 93 e2 01 	sts	0x01E2, r24	; 0x8001e2 <blokada_systemu>
    zapisz_znak_w_eeprom(1, ADRES_EEPROM_BLOKADA_SYSTEMU);
    4e3c:	67 ef       	ldi	r22, 0xF7	; 247
    4e3e:	7f e0       	ldi	r23, 0x0F	; 15
    4e40:	01 ce       	rjmp	.-1022   	; 0x4a44 <interpretuj_wiadomosc_sms+0x1a2>
    if (not pobierz_numer_telefonu(&sms, &numer_telefonu_do_ktorego_dzwonic[0],
    4e42:	4e e0       	ldi	r20, 0x0E	; 14
    4e44:	6b e4       	ldi	r22, 0x4B	; 75
    4e46:	73 e0       	ldi	r23, 0x03	; 3
    4e48:	ce 01       	movw	r24, r28
    4e4a:	41 96       	adiw	r24, 0x11	; 17
    4e4c:	0e 94 c4 23 	call	0x4788	; 0x4788 <pobierz_numer_telefonu>
    4e50:	88 23       	and	r24, r24
    4e52:	09 f4       	brne	.+2      	; 0x4e56 <interpretuj_wiadomosc_sms+0x5b4>
    4e54:	99 cd       	rjmp	.-1230   	; 0x4988 <interpretuj_wiadomosc_sms+0xe6>
    dodaj_komende(KOMENDA_KOLEJKI_DODAJ_SUPER_USERA);
    4e56:	87 e8       	ldi	r24, 0x87	; 135
    4e58:	d2 cd       	rjmp	.-1116   	; 0x49fe <interpretuj_wiadomosc_sms+0x15c>
  return INTERPRETACJA_SMS_ZLY_FORMAT;
    4e5a:	81 e0       	ldi	r24, 0x01	; 1
    4e5c:	b9 cd       	rjmp	.-1166   	; 0x49d0 <interpretuj_wiadomosc_sms+0x12e>
    return INTERPRETACJA_SMS_RAPORT;
    4e5e:	84 e0       	ldi	r24, 0x04	; 4
    4e60:	b7 cd       	rjmp	.-1170   	; 0x49d0 <interpretuj_wiadomosc_sms+0x12e>
      return INTERPRETACJA_SMS_USER;
    4e62:	85 e0       	ldi	r24, 0x05	; 5
    4e64:	b5 cd       	rjmp	.-1174   	; 0x49d0 <interpretuj_wiadomosc_sms+0x12e>
      uchar obecny_tryb =
    4e66:	8e ef       	ldi	r24, 0xFE	; 254
    4e68:	9f e0       	ldi	r25, 0x0F	; 15
    4e6a:	0e 94 7e 32 	call	0x64fc	; 0x64fc <eeprom_read_byte>
      zapisz_znak_w_eeprom(obecny_tryb, ADRES_EEPROM_SKRYBA_TRYB_BACKUP);
    4e6e:	68 ef       	ldi	r22, 0xF8	; 248
    4e70:	7f e0       	ldi	r23, 0x0F	; 15
    4e72:	0e 94 91 29 	call	0x5322	; 0x5322 <zapisz_znak_w_eeprom>
      zapisz_znak_w_eeprom((uchar)(limit_value & 0xFF),
    4e76:	65 ef       	ldi	r22, 0xF5	; 245
    4e78:	7f e0       	ldi	r23, 0x0F	; 15
    4e7a:	89 81       	ldd	r24, Y+1	; 0x01
    4e7c:	0e 94 91 29 	call	0x5322	; 0x5322 <zapisz_znak_w_eeprom>
      zapisz_znak_w_eeprom((uchar)((limit_value >> 8) & 0xFF),
    4e80:	66 ef       	ldi	r22, 0xF6	; 246
    4e82:	7f e0       	ldi	r23, 0x0F	; 15
    4e84:	8a 81       	ldd	r24, Y+2	; 0x02
    4e86:	0e 94 91 29 	call	0x5322	; 0x5322 <zapisz_znak_w_eeprom>
      skryba_limit = (uint)limit_value; // Aktualizuj RAM
    4e8a:	89 81       	ldd	r24, Y+1	; 0x01
    4e8c:	9a 81       	ldd	r25, Y+2	; 0x02
    4e8e:	90 93 03 01 	sts	0x0103, r25	; 0x800103 <skryba_limit+0x1>
    4e92:	80 93 02 01 	sts	0x0102, r24	; 0x800102 <skryba_limit>
      zapisz_znak_w_eeprom(1, ADRES_EEPROM_SKRYBA);
    4e96:	69 ef       	ldi	r22, 0xF9	; 249
    4e98:	7f e0       	ldi	r23, 0x0F	; 15
    4e9a:	81 e0       	ldi	r24, 0x01	; 1
    4e9c:	0e 94 91 29 	call	0x5322	; 0x5322 <zapisz_znak_w_eeprom>
      skryba_wlaczona = TRUE; // Aktualizuj RAM natychmiast
    4ea0:	f0 92 f4 01 	sts	0x01F4, r15	; 0x8001f4 <skryba_wlaczona>
      tryb_pracy = 1; // Aktualizuj RAM
    4ea4:	81 e0       	ldi	r24, 0x01	; 1
    4ea6:	bb cf       	rjmp	.-138    	; 0x4e1e <interpretuj_wiadomosc_sms+0x57c>

00004ea8 <dodaj_komende>:
uchar blokada_sterowania_czasowa = FALSE;
uchar czas_start_h = 0xFF, czas_start_m = 0xFF;
uchar czas_stop_h = 0xFF, czas_stop_m = 0xFF;

void dodaj_komende(komenda_typ komenda)
{
    4ea8:	eb e9       	ldi	r30, 0x9B	; 155
    4eaa:	f7 e0       	ldi	r31, 0x07	; 7
    4eac:	30 e0       	ldi	r19, 0x00	; 0
    4eae:	20 e0       	ldi	r18, 0x00	; 0
	for (uchar i = 0; i < LICZBA_KOMEND; ++i)
	{
		if ( komendy_kolejka[i] == KOMENDA_KOLEJKI_BRAK_KOMENDY )
    4eb0:	91 91       	ld	r25, Z+
    4eb2:	91 11       	cpse	r25, r1
    4eb4:	05 c0       	rjmp	.+10     	; 0x4ec0 <dodaj_komende+0x18>
		{
			komendy_kolejka[i] = komenda;
    4eb6:	25 56       	subi	r18, 0x65	; 101
    4eb8:	38 4f       	sbci	r19, 0xF8	; 248
    4eba:	f9 01       	movw	r30, r18
    4ebc:	80 83       	st	Z, r24
			return;
    4ebe:	08 95       	ret
    4ec0:	2f 5f       	subi	r18, 0xFF	; 255
    4ec2:	3f 4f       	sbci	r19, 0xFF	; 255
	for (uchar i = 0; i < LICZBA_KOMEND; ++i)
    4ec4:	2e 31       	cpi	r18, 0x1E	; 30
    4ec6:	31 05       	cpc	r19, r1
    4ec8:	99 f7       	brne	.-26     	; 0x4eb0 <dodaj_komende+0x8>
		}
	}
}
    4eca:	08 95       	ret

00004ecc <filtruj_i_dodaj_komende>:

void filtruj_i_dodaj_komende(komenda_typ komenda)
{
    4ecc:	eb e9       	ldi	r30, 0x9B	; 155
    4ece:	f7 e0       	ldi	r31, 0x07	; 7
    4ed0:	30 e0       	ldi	r19, 0x00	; 0
    4ed2:	20 e0       	ldi	r18, 0x00	; 0
	for (uchar i = 0; i < LICZBA_KOMEND; ++i)
	{
		if ( komendy_kolejka[i] == komenda )
    4ed4:	91 91       	ld	r25, Z+
    4ed6:	98 17       	cp	r25, r24
    4ed8:	61 f0       	breq	.+24     	; 0x4ef2 <filtruj_i_dodaj_komende+0x26>
			return;
		if ( komendy_kolejka[i] == KOMENDA_KOLEJKI_BRAK_KOMENDY )
    4eda:	91 11       	cpse	r25, r1
    4edc:	05 c0       	rjmp	.+10     	; 0x4ee8 <filtruj_i_dodaj_komende+0x1c>
		{
			komendy_kolejka[i] = komenda;
    4ede:	25 56       	subi	r18, 0x65	; 101
    4ee0:	38 4f       	sbci	r19, 0xF8	; 248
    4ee2:	f9 01       	movw	r30, r18
    4ee4:	80 83       	st	Z, r24
			return;
    4ee6:	08 95       	ret
    4ee8:	2f 5f       	subi	r18, 0xFF	; 255
    4eea:	3f 4f       	sbci	r19, 0xFF	; 255
	for (uchar i = 0; i < LICZBA_KOMEND; ++i)
    4eec:	2e 31       	cpi	r18, 0x1E	; 30
    4eee:	31 05       	cpc	r19, r1
    4ef0:	89 f7       	brne	.-30     	; 0x4ed4 <filtruj_i_dodaj_komende+0x8>
		}
	}
}
    4ef2:	08 95       	ret

00004ef4 <filtruj_komendy_z_przedzialu>:

void filtruj_komendy_z_przedzialu(komenda_typ start, komenda_typ end)
{
	uchar i = 0;
    4ef4:	90 e0       	ldi	r25, 0x00	; 0
	while ( i < LICZBA_KOMEND )
	{
		if ( komendy_kolejka[i] >= start && komendy_kolejka[i] <= end )
    4ef6:	e9 2f       	mov	r30, r25
    4ef8:	f0 e0       	ldi	r31, 0x00	; 0
    4efa:	e5 56       	subi	r30, 0x65	; 101
    4efc:	f8 4f       	sbci	r31, 0xF8	; 248
    4efe:	20 81       	ld	r18, Z
    4f00:	28 17       	cp	r18, r24
    4f02:	70 f0       	brcs	.+28     	; 0x4f20 <filtruj_komendy_z_przedzialu+0x2c>
    4f04:	62 17       	cp	r22, r18
    4f06:	60 f0       	brcs	.+24     	; 0x4f20 <filtruj_komendy_z_przedzialu+0x2c>
    4f08:	29 2f       	mov	r18, r25
		{
			// Usun te komende (przesun reszte)
			for (uchar j = i; j < LICZBA_KOMEND - 1; ++j)
    4f0a:	2d 31       	cpi	r18, 0x1D	; 29
    4f0c:	28 f0       	brcs	.+10     	; 0x4f18 <filtruj_komendy_z_przedzialu+0x24>
			{
				komendy_kolejka[j] = komendy_kolejka[j+1];
			}
			komendy_kolejka[LICZBA_KOMEND - 1] = KOMENDA_KOLEJKI_BRAK_KOMENDY;
    4f0e:	10 92 b8 07 	sts	0x07B8, r1	; 0x8007b8 <komendy_kolejka+0x1d>
	while ( i < LICZBA_KOMEND )
    4f12:	9e 31       	cpi	r25, 0x1E	; 30
    4f14:	81 f7       	brne	.-32     	; 0x4ef6 <filtruj_komendy_z_przedzialu+0x2>
		else
		{
			++i;
		}
	}
}
    4f16:	08 95       	ret
				komendy_kolejka[j] = komendy_kolejka[j+1];
    4f18:	31 81       	ldd	r19, Z+1	; 0x01
    4f1a:	31 93       	st	Z+, r19
			for (uchar j = i; j < LICZBA_KOMEND - 1; ++j)
    4f1c:	2f 5f       	subi	r18, 0xFF	; 255
    4f1e:	f5 cf       	rjmp	.-22     	; 0x4f0a <filtruj_komendy_z_przedzialu+0x16>
			++i;
    4f20:	9f 5f       	subi	r25, 0xFF	; 255
    4f22:	f7 cf       	rjmp	.-18     	; 0x4f12 <filtruj_komendy_z_przedzialu+0x1e>

00004f24 <usun_komende>:

void usun_komende(void)
{
    4f24:	eb e9       	ldi	r30, 0x9B	; 155
    4f26:	f7 e0       	ldi	r31, 0x07	; 7
	for (uchar i = 1; i < LICZBA_KOMEND; ++i)
		komendy_kolejka[i-1] = komendy_kolejka[i];
    4f28:	81 81       	ldd	r24, Z+1	; 0x01
    4f2a:	81 93       	st	Z+, r24
	for (uchar i = 1; i < LICZBA_KOMEND; ++i)
    4f2c:	87 e0       	ldi	r24, 0x07	; 7
    4f2e:	e8 3b       	cpi	r30, 0xB8	; 184
    4f30:	f8 07       	cpc	r31, r24
    4f32:	d1 f7       	brne	.-12     	; 0x4f28 <usun_komende+0x4>
	komendy_kolejka[LICZBA_KOMEND-1] = KOMENDA_KOLEJKI_BRAK_KOMENDY;
    4f34:	10 92 b8 07 	sts	0x07B8, r1	; 0x8007b8 <komendy_kolejka+0x1d>
}
    4f38:	08 95       	ret

00004f3a <czy_sa_komendy_z_przedzialu>:

uchar czy_sa_komendy_z_przedzialu(komenda_typ start, komenda_typ end)
{
    4f3a:	eb e9       	ldi	r30, 0x9B	; 155
    4f3c:	f7 e0       	ldi	r31, 0x07	; 7
	for (uchar i = 0; i < LICZBA_KOMEND; ++i)
	{
		if ( komendy_kolejka[i] >= start && komendy_kolejka[i] <= end )
    4f3e:	91 91       	ld	r25, Z+
    4f40:	98 17       	cp	r25, r24
    4f42:	10 f0       	brcs	.+4      	; 0x4f48 <czy_sa_komendy_z_przedzialu+0xe>
    4f44:	69 17       	cp	r22, r25
    4f46:	30 f4       	brcc	.+12     	; 0x4f54 <czy_sa_komendy_z_przedzialu+0x1a>
	for (uchar i = 0; i < LICZBA_KOMEND; ++i)
    4f48:	97 e0       	ldi	r25, 0x07	; 7
    4f4a:	e9 3b       	cpi	r30, 0xB9	; 185
    4f4c:	f9 07       	cpc	r31, r25
    4f4e:	b9 f7       	brne	.-18     	; 0x4f3e <czy_sa_komendy_z_przedzialu+0x4>
			return TRUE;
	}
	return FALSE;
    4f50:	80 e0       	ldi	r24, 0x00	; 0
    4f52:	08 95       	ret
			return TRUE;
    4f54:	8f ef       	ldi	r24, 0xFF	; 255
}
    4f56:	08 95       	ret

00004f58 <konwersja_znaku_telefonu>:
#include <string.h>
#include "zapiseeprom.h"

uchar konwersja_znaku_telefonu(const uchar znak)
{
	switch ( znak )
    4f58:	8b 32       	cpi	r24, 0x2B	; 43
    4f5a:	79 f0       	breq	.+30     	; 0x4f7a <konwersja_znaku_telefonu+0x22>
    4f5c:	30 f4       	brcc	.+12     	; 0x4f6a <konwersja_znaku_telefonu+0x12>
    4f5e:	83 32       	cpi	r24, 0x23	; 35
    4f60:	51 f0       	breq	.+20     	; 0x4f76 <konwersja_znaku_telefonu+0x1e>
    4f62:	8a 32       	cpi	r24, 0x2A	; 42
    4f64:	31 f0       	breq	.+12     	; 0x4f72 <konwersja_znaku_telefonu+0x1a>
	case '5': case '6': case '7': case '8': case '9':
		return znak - '0';
	case '+': return ZNAK_NUMERU_TELEFONU_PLUS;
	case '*': return ZNAK_NUMERU_TELEFONU_GWIAZDKA;
	case '#': return ZNAK_NUMERU_TELEFONU_KRZYZ;
	default: return ZNAK_NUMERU_TELEFONU_NIEZNANY;
    4f66:	8d e0       	ldi	r24, 0x0D	; 13
    4f68:	08 95       	ret
	switch ( znak )
    4f6a:	80 53       	subi	r24, 0x30	; 48
    4f6c:	8a 30       	cpi	r24, 0x0A	; 10
    4f6e:	d8 f7       	brcc	.-10     	; 0x4f66 <konwersja_znaku_telefonu+0xe>
	}
}
    4f70:	08 95       	ret
	case '*': return ZNAK_NUMERU_TELEFONU_GWIAZDKA;
    4f72:	8b e0       	ldi	r24, 0x0B	; 11
    4f74:	08 95       	ret
	case '#': return ZNAK_NUMERU_TELEFONU_KRZYZ;
    4f76:	8c e0       	ldi	r24, 0x0C	; 12
    4f78:	08 95       	ret
	case '+': return ZNAK_NUMERU_TELEFONU_PLUS;
    4f7a:	8a e0       	ldi	r24, 0x0A	; 10
    4f7c:	f9 cf       	rjmp	.-14     	; 0x4f70 <konwersja_znaku_telefonu+0x18>

00004f7e <konwertuj_telefon_na_blok_eeprom>:

void konwertuj_telefon_na_blok_eeprom(const uchar* telefon_ptr_begin,
	const uchar* telefon_ptr_end, uchar* blok_ptr)
{
    4f7e:	af 92       	push	r10
    4f80:	bf 92       	push	r11
    4f82:	cf 92       	push	r12
    4f84:	df 92       	push	r13
    4f86:	ff 92       	push	r15
    4f88:	0f 93       	push	r16
    4f8a:	1f 93       	push	r17
    4f8c:	cf 93       	push	r28
    4f8e:	df 93       	push	r29
    4f90:	18 2f       	mov	r17, r24
    4f92:	eb 01       	movw	r28, r22
    4f94:	6a 01       	movw	r12, r20
	memset(blok_ptr, 0xff, LICZBA_BAJTOW_NUMERU_TELEFONU_W_EEPROM);
    4f96:	45 e0       	ldi	r20, 0x05	; 5
    4f98:	50 e0       	ldi	r21, 0x00	; 0
    4f9a:	6f ef       	ldi	r22, 0xFF	; 255
    4f9c:	70 e0       	ldi	r23, 0x00	; 0
    4f9e:	c6 01       	movw	r24, r12
    4fa0:	0e 94 46 2f 	call	0x5e8c	; 0x5e8c <memset>
	uchar l = telefon_ptr_end - telefon_ptr_begin;
    4fa4:	8c 2f       	mov	r24, r28
    4fa6:	81 1b       	sub	r24, r17
    4fa8:	18 2f       	mov	r17, r24
	if ( l < 2 )
		return;
	uchar pos_buf = 0;
	telefon_ptr_end--;
    4faa:	21 97       	sbiw	r28, 0x01	; 1
	uchar pos_buf = 0;
    4fac:	00 e0       	ldi	r16, 0x00	; 0
	if ( l < 2 )
    4fae:	82 30       	cpi	r24, 0x02	; 2
    4fb0:	58 f4       	brcc	.+22     	; 0x4fc8 <konwertuj_telefon_na_blok_eeprom+0x4a>
			s1 |= 0x0f;
		else
			--telefon_ptr_end, --l;
		blok_ptr[pos_buf++] = s1;
	}
}
    4fb2:	df 91       	pop	r29
    4fb4:	cf 91       	pop	r28
    4fb6:	1f 91       	pop	r17
    4fb8:	0f 91       	pop	r16
    4fba:	ff 90       	pop	r15
    4fbc:	df 90       	pop	r13
    4fbe:	cf 90       	pop	r12
    4fc0:	bf 90       	pop	r11
    4fc2:	af 90       	pop	r10
    4fc4:	08 95       	ret
		blok_ptr[pos_buf++] = s1;
    4fc6:	09 2f       	mov	r16, r25
		uchar s1 = konwersja_znaku_telefonu(*telefon_ptr_end--);
    4fc8:	88 81       	ld	r24, Y
    4fca:	0e 94 ac 27 	call	0x4f58	; 0x4f58 <konwersja_znaku_telefonu>
		s1 <<= 4;
    4fce:	f8 2e       	mov	r15, r24
    4fd0:	f2 94       	swap	r15
    4fd2:	80 ef       	ldi	r24, 0xF0	; 240
    4fd4:	f8 22       	and	r15, r24
		s1 |= konwersja_znaku_telefonu(*telefon_ptr_end);
    4fd6:	fe 01       	movw	r30, r28
    4fd8:	82 91       	ld	r24, -Z
    4fda:	5f 01       	movw	r10, r30
    4fdc:	0e 94 ac 27 	call	0x4f58	; 0x4f58 <konwersja_znaku_telefonu>
    4fe0:	8f 29       	or	r24, r15
		if ( l == 0 )
    4fe2:	11 30       	cpi	r17, 0x01	; 1
    4fe4:	61 f4       	brne	.+24     	; 0x4ffe <konwertuj_telefon_na_blok_eeprom+0x80>
		uchar s1 = konwersja_znaku_telefonu(*telefon_ptr_end--);
    4fe6:	e5 01       	movw	r28, r10
			s1 |= 0x0f;
    4fe8:	8f 60       	ori	r24, 0x0F	; 15
	while ( l-- )
    4fea:	10 e0       	ldi	r17, 0x00	; 0
		blok_ptr[pos_buf++] = s1;
    4fec:	91 e0       	ldi	r25, 0x01	; 1
    4fee:	90 0f       	add	r25, r16
    4ff0:	f6 01       	movw	r30, r12
    4ff2:	e0 0f       	add	r30, r16
    4ff4:	f1 1d       	adc	r31, r1
    4ff6:	80 83       	st	Z, r24
	while ( l-- )
    4ff8:	11 11       	cpse	r17, r1
    4ffa:	e5 cf       	rjmp	.-54     	; 0x4fc6 <konwertuj_telefon_na_blok_eeprom+0x48>
    4ffc:	da cf       	rjmp	.-76     	; 0x4fb2 <konwertuj_telefon_na_blok_eeprom+0x34>
			--telefon_ptr_end, --l;
    4ffe:	22 97       	sbiw	r28, 0x02	; 2
    5000:	12 50       	subi	r17, 0x02	; 2
    5002:	f4 cf       	rjmp	.-24     	; 0x4fec <konwertuj_telefon_na_blok_eeprom+0x6e>

00005004 <konwersja_znaku_telefonu_eeprom>:

uchar konwersja_znaku_telefonu_eeprom(const uchar wartosc)
{
	static const uchar znaki[16] PROGMEM = 
	{ '0', '1', '2', '3', '4', '5', '6', '7', '8', '9', '+', '*', '#', '!', '!', '\0' };
	return pgm_read_byte(znaki + wartosc);
    5004:	e8 2f       	mov	r30, r24
    5006:	f0 e0       	ldi	r31, 0x00	; 0
    5008:	ef 57       	subi	r30, 0x7F	; 127
    500a:	fb 4f       	sbci	r31, 0xFB	; 251
    500c:	84 91       	lpm	r24, Z
}
    500e:	08 95       	ret

00005010 <konwertuj_blok_eeprom_na_telefon>:

uchar konwertuj_blok_eeprom_na_telefon(const uchar* blok_ptr, uchar* telefon_ptr,
	const uchar max_liczba_znakow)	// nie dziaa dobrze dla nieparzystych max_liczba_znakow
{
    5010:	cf 93       	push	r28
    5012:	df 93       	push	r29
    5014:	9c 01       	movw	r18, r24
    5016:	eb 01       	movw	r28, r22
	*telefon_ptr = '\0';
    5018:	18 82       	st	Y, r1
    501a:	bc 01       	movw	r22, r24
	const uchar* ptr = blok_ptr;
	uchar i = 0;
    501c:	80 e0       	ldi	r24, 0x00	; 0
    501e:	db 01       	movw	r26, r22
    5020:	6f 5f       	subi	r22, 0xFF	; 255
    5022:	7f 4f       	sbci	r23, 0xFF	; 255
	while ( *ptr != 0xff && i < LICZBA_BAJTOW_NUMERU_TELEFONU_W_EEPROM )
    5024:	9c 91       	ld	r25, X
    5026:	9f 3f       	cpi	r25, 0xFF	; 255
    5028:	19 f0       	breq	.+6      	; 0x5030 <konwertuj_blok_eeprom_na_telefon+0x20>
    502a:	85 30       	cpi	r24, 0x05	; 5
    502c:	09 f0       	breq	.+2      	; 0x5030 <konwertuj_blok_eeprom_na_telefon+0x20>
    502e:	52 c0       	rjmp	.+164    	; 0x50d4 <konwertuj_blok_eeprom_na_telefon+0xc4>
		++ptr, ++i;
	if ( ptr == blok_ptr )
    5030:	a2 17       	cp	r26, r18
    5032:	b3 07       	cpc	r27, r19
    5034:	09 f4       	brne	.+2      	; 0x5038 <konwertuj_blok_eeprom_na_telefon+0x28>
    5036:	52 c0       	rjmp	.+164    	; 0x50dc <konwertuj_blok_eeprom_na_telefon+0xcc>
		return 0;
	--ptr;
	if ( i * 2 > max_liczba_znakow )
    5038:	64 2f       	mov	r22, r20
    503a:	70 e0       	ldi	r23, 0x00	; 0
    503c:	90 e0       	ldi	r25, 0x00	; 0
    503e:	88 0f       	add	r24, r24
    5040:	99 1f       	adc	r25, r25
	--ptr;
    5042:	11 97       	sbiw	r26, 0x01	; 1
	if ( i * 2 > max_liczba_znakow )
    5044:	68 17       	cp	r22, r24
    5046:	79 07       	cpc	r23, r25
    5048:	44 f4       	brge	.+16     	; 0x505a <konwertuj_blok_eeprom_na_telefon+0x4a>
		ptr = blok_ptr + (max_liczba_znakow - 1) / 2;
    504a:	db 01       	movw	r26, r22
    504c:	11 97       	sbiw	r26, 0x01	; 1
    504e:	b7 fd       	sbrc	r27, 7
    5050:	db 01       	movw	r26, r22
    5052:	b5 95       	asr	r27
    5054:	a7 95       	ror	r26
    5056:	a2 0f       	add	r26, r18
    5058:	b3 1f       	adc	r27, r19
	i = 0;
	if ( /*(max_liczba_znakow & 0x01) != 0 */ (*ptr & 0x0f) == 0x0f &&
    505a:	ec 91       	ld	r30, X
    505c:	8e 2f       	mov	r24, r30
    505e:	8f 70       	andi	r24, 0x0F	; 15
    5060:	8f 30       	cpi	r24, 0x0F	; 15
    5062:	09 f0       	breq	.+2      	; 0x5066 <konwertuj_blok_eeprom_na_telefon+0x56>
    5064:	39 c0       	rjmp	.+114    	; 0x50d8 <konwertuj_blok_eeprom_na_telefon+0xc8>
		(*telefon_ptr = konwersja_znaku_telefonu_eeprom((*ptr & 0xf0) >> 4)) != '\0' )
    5066:	e2 95       	swap	r30
    5068:	ef 70       	andi	r30, 0x0F	; 15
	return pgm_read_byte(znaki + wartosc);
    506a:	f0 e0       	ldi	r31, 0x00	; 0
    506c:	ef 57       	subi	r30, 0x7F	; 127
    506e:	fb 4f       	sbci	r31, 0xFB	; 251
    5070:	84 91       	lpm	r24, Z
		(*telefon_ptr = konwersja_znaku_telefonu_eeprom((*ptr & 0xf0) >> 4)) != '\0' )
    5072:	88 83       	st	Y, r24
	if ( /*(max_liczba_znakow & 0x01) != 0 */ (*ptr & 0x0f) == 0x0f &&
    5074:	88 23       	and	r24, r24
    5076:	19 f0       	breq	.+6      	; 0x507e <konwertuj_blok_eeprom_na_telefon+0x6e>
		telefon_ptr++, ++i, --ptr;
    5078:	21 96       	adiw	r28, 0x01	; 1
    507a:	11 97       	sbiw	r26, 0x01	; 1
    507c:	81 e0       	ldi	r24, 0x01	; 1
	do
	{
		if ( ptr < blok_ptr )
    507e:	a2 17       	cp	r26, r18
    5080:	b3 07       	cpc	r27, r19
    5082:	20 f1       	brcs	.+72     	; 0x50cc <konwertuj_blok_eeprom_na_telefon+0xbc>
			break;
		if ( (*telefon_ptr = konwersja_znaku_telefonu_eeprom((*ptr & 0x0f))) != '\0' )
    5084:	ec 91       	ld	r30, X
    5086:	ef 70       	andi	r30, 0x0F	; 15
	return pgm_read_byte(znaki + wartosc);
    5088:	f0 e0       	ldi	r31, 0x00	; 0
    508a:	ef 57       	subi	r30, 0x7F	; 127
    508c:	fb 4f       	sbci	r31, 0xFB	; 251
    508e:	e4 91       	lpm	r30, Z
		if ( (*telefon_ptr = konwersja_znaku_telefonu_eeprom((*ptr & 0x0f))) != '\0' )
    5090:	e8 83       	st	Y, r30
			++telefon_ptr, ++i;
    5092:	be 01       	movw	r22, r28
		if ( (*telefon_ptr = konwersja_znaku_telefonu_eeprom((*ptr & 0x0f))) != '\0' )
    5094:	ee 23       	and	r30, r30
    5096:	19 f0       	breq	.+6      	; 0x509e <konwertuj_blok_eeprom_na_telefon+0x8e>
			++telefon_ptr, ++i;
    5098:	6f 5f       	subi	r22, 0xFF	; 255
    509a:	7f 4f       	sbci	r23, 0xFF	; 255
    509c:	8f 5f       	subi	r24, 0xFF	; 255
    509e:	eb 01       	movw	r28, r22
		if ( i == max_liczba_znakow )
    50a0:	84 17       	cp	r24, r20
    50a2:	a1 f0       	breq	.+40     	; 0x50cc <konwertuj_blok_eeprom_na_telefon+0xbc>
			break;
		*telefon_ptr++ = konwersja_znaku_telefonu_eeprom((*ptr & 0xf0) >> 4);
    50a4:	21 96       	adiw	r28, 0x01	; 1
    50a6:	ec 91       	ld	r30, X
    50a8:	e2 95       	swap	r30
    50aa:	ef 70       	andi	r30, 0x0F	; 15
	return pgm_read_byte(znaki + wartosc);
    50ac:	f0 e0       	ldi	r31, 0x00	; 0
    50ae:	ef 57       	subi	r30, 0x7F	; 127
    50b0:	fb 4f       	sbci	r31, 0xFB	; 251
    50b2:	94 91       	lpm	r25, Z
		*telefon_ptr++ = konwersja_znaku_telefonu_eeprom((*ptr & 0xf0) >> 4);
    50b4:	fb 01       	movw	r30, r22
    50b6:	90 83       	st	Z, r25
		if ( ++i == max_liczba_znakow )
    50b8:	8f 5f       	subi	r24, 0xFF	; 255
    50ba:	48 17       	cp	r20, r24
    50bc:	39 f0       	breq	.+14     	; 0x50cc <konwertuj_blok_eeprom_na_telefon+0xbc>
			break;
	} while ( ptr-- != blok_ptr );
    50be:	11 97       	sbiw	r26, 0x01	; 1
    50c0:	bd 01       	movw	r22, r26
    50c2:	6f 5f       	subi	r22, 0xFF	; 255
    50c4:	7f 4f       	sbci	r23, 0xFF	; 255
    50c6:	26 17       	cp	r18, r22
    50c8:	37 07       	cpc	r19, r23
    50ca:	c9 f6       	brne	.-78     	; 0x507e <konwertuj_blok_eeprom_na_telefon+0x6e>
	*telefon_ptr = '\0';
    50cc:	18 82       	st	Y, r1
	return i;
}
    50ce:	df 91       	pop	r29
    50d0:	cf 91       	pop	r28
    50d2:	08 95       	ret
		++ptr, ++i;
    50d4:	8f 5f       	subi	r24, 0xFF	; 255
    50d6:	a3 cf       	rjmp	.-186    	; 0x501e <konwertuj_blok_eeprom_na_telefon+0xe>
	i = 0;
    50d8:	80 e0       	ldi	r24, 0x00	; 0
    50da:	d1 cf       	rjmp	.-94     	; 0x507e <konwertuj_blok_eeprom_na_telefon+0x6e>
		return 0;
    50dc:	80 e0       	ldi	r24, 0x00	; 0
    50de:	f7 cf       	rjmp	.-18     	; 0x50ce <konwertuj_blok_eeprom_na_telefon+0xbe>

000050e0 <kopiuj_blok_eeprom_na_telefon>:

uchar kopiuj_blok_eeprom_na_telefon(const void* eeprom_ptr, uchar* telefon_ptr,
	const uchar max_liczba_znakow)	// nie dziaa dobrze dla nieparzystych max_liczba_znakow
{
    50e0:	ff 92       	push	r15
    50e2:	0f 93       	push	r16
    50e4:	1f 93       	push	r17
    50e6:	cf 93       	push	r28
    50e8:	df 93       	push	r29
    50ea:	00 d0       	rcall	.+0      	; 0x50ec <kopiuj_blok_eeprom_na_telefon+0xc>
    50ec:	00 d0       	rcall	.+0      	; 0x50ee <kopiuj_blok_eeprom_na_telefon+0xe>
    50ee:	1f 92       	push	r1
    50f0:	cd b7       	in	r28, 0x3d	; 61
    50f2:	de b7       	in	r29, 0x3e	; 62
    50f4:	8b 01       	movw	r16, r22
    50f6:	f4 2e       	mov	r15, r20
	uchar buf[LICZBA_BAJTOW_NUMERU_TELEFONU_W_EEPROM];
	memcpy_E(buf, eeprom_ptr, LICZBA_BAJTOW_NUMERU_TELEFONU_W_EEPROM);
    50f8:	45 e0       	ldi	r20, 0x05	; 5
    50fa:	50 e0       	ldi	r21, 0x00	; 0
    50fc:	bc 01       	movw	r22, r24
    50fe:	ce 01       	movw	r24, r28
    5100:	01 96       	adiw	r24, 0x01	; 1
    5102:	0e 94 6e 32 	call	0x64dc	; 0x64dc <eeprom_read_block>
	return konwertuj_blok_eeprom_na_telefon(buf, telefon_ptr, max_liczba_znakow);
    5106:	4f 2d       	mov	r20, r15
    5108:	b8 01       	movw	r22, r16
    510a:	ce 01       	movw	r24, r28
    510c:	01 96       	adiw	r24, 0x01	; 1
    510e:	0e 94 08 28 	call	0x5010	; 0x5010 <konwertuj_blok_eeprom_na_telefon>
}
    5112:	0f 90       	pop	r0
    5114:	0f 90       	pop	r0
    5116:	0f 90       	pop	r0
    5118:	0f 90       	pop	r0
    511a:	0f 90       	pop	r0
    511c:	df 91       	pop	r29
    511e:	cf 91       	pop	r28
    5120:	1f 91       	pop	r17
    5122:	0f 91       	pop	r16
    5124:	ff 90       	pop	r15
    5126:	08 95       	ret

00005128 <porownaj_numer_telefonu_blok>:

uchar porownaj_numer_telefonu_blok(const uchar* telefon_blok_ptr, const void* eeprom_ptr)
{
    5128:	0f 93       	push	r16
    512a:	1f 93       	push	r17
    512c:	cf 93       	push	r28
    512e:	df 93       	push	r29
    5130:	ec 01       	movw	r28, r24
    5132:	8b 01       	movw	r16, r22
	if ( telefon_blok_ptr[0] == 0xff || eeprom_read_byte(eeprom_ptr) == 0xff )
    5134:	88 81       	ld	r24, Y
    5136:	8f 3f       	cpi	r24, 0xFF	; 255
    5138:	21 f1       	breq	.+72     	; 0x5182 <porownaj_numer_telefonu_blok+0x5a>
    513a:	cb 01       	movw	r24, r22
    513c:	0e 94 7e 32 	call	0x64fc	; 0x64fc <eeprom_read_byte>
    5140:	8f 3f       	cpi	r24, 0xFF	; 255
    5142:	f9 f0       	breq	.+62     	; 0x5182 <porownaj_numer_telefonu_blok+0x5a>
		return FALSE;
	while ( 1 )
	{
		const uchar b = eeprom_read_byte(eeprom_ptr);
    5144:	c8 01       	movw	r24, r16
    5146:	0e 94 7e 32 	call	0x64fc	; 0x64fc <eeprom_read_byte>
		uchar a = 0xf0;
		uchar c = b & a;
    514a:	38 2f       	mov	r19, r24
    514c:	30 7f       	andi	r19, 0xF0	; 240
		uchar d = *telefon_blok_ptr & a;
    514e:	99 91       	ld	r25, Y+
    5150:	29 2f       	mov	r18, r25
    5152:	20 7f       	andi	r18, 0xF0	; 240
		if ( c == a || d == a )
    5154:	30 3f       	cpi	r19, 0xF0	; 240
    5156:	79 f0       	breq	.+30     	; 0x5176 <porownaj_numer_telefonu_blok+0x4e>
    5158:	20 3f       	cpi	r18, 0xF0	; 240
    515a:	69 f0       	breq	.+26     	; 0x5176 <porownaj_numer_telefonu_blok+0x4e>
			return TRUE;
		if ( c != d )
    515c:	32 13       	cpse	r19, r18
    515e:	11 c0       	rjmp	.+34     	; 0x5182 <porownaj_numer_telefonu_blok+0x5a>
			return FALSE;
		a = 0x0f;
		c = b & a;
    5160:	8f 70       	andi	r24, 0x0F	; 15
		d = *telefon_blok_ptr & a;
    5162:	9f 70       	andi	r25, 0x0F	; 15
		if ( c == a || d == a )
    5164:	8f 30       	cpi	r24, 0x0F	; 15
    5166:	39 f0       	breq	.+14     	; 0x5176 <porownaj_numer_telefonu_blok+0x4e>
    5168:	9f 30       	cpi	r25, 0x0F	; 15
    516a:	29 f0       	breq	.+10     	; 0x5176 <porownaj_numer_telefonu_blok+0x4e>
			return TRUE;
		if ( c != d )
    516c:	89 13       	cpse	r24, r25
    516e:	09 c0       	rjmp	.+18     	; 0x5182 <porownaj_numer_telefonu_blok+0x5a>
			return FALSE;
		++eeprom_ptr;
    5170:	0f 5f       	subi	r16, 0xFF	; 255
    5172:	1f 4f       	sbci	r17, 0xFF	; 255
    5174:	e7 cf       	rjmp	.-50     	; 0x5144 <porownaj_numer_telefonu_blok+0x1c>
			return TRUE;
    5176:	8f ef       	ldi	r24, 0xFF	; 255
		++telefon_blok_ptr;
	}
}
    5178:	df 91       	pop	r29
    517a:	cf 91       	pop	r28
    517c:	1f 91       	pop	r17
    517e:	0f 91       	pop	r16
    5180:	08 95       	ret
		return FALSE;
    5182:	80 e0       	ldi	r24, 0x00	; 0
    5184:	f9 cf       	rjmp	.-14     	; 0x5178 <porownaj_numer_telefonu_blok+0x50>

00005186 <porownaj_numer_telefonu>:

uchar porownaj_numer_telefonu(const uchar* telefon_ptr, const void* eeprom_ptr)
{
    5186:	0f 93       	push	r16
    5188:	1f 93       	push	r17
    518a:	cf 93       	push	r28
    518c:	df 93       	push	r29
    518e:	00 d0       	rcall	.+0      	; 0x5190 <porownaj_numer_telefonu+0xa>
    5190:	00 d0       	rcall	.+0      	; 0x5192 <porownaj_numer_telefonu+0xc>
    5192:	1f 92       	push	r1
    5194:	cd b7       	in	r28, 0x3d	; 61
    5196:	de b7       	in	r29, 0x3e	; 62
    5198:	8b 01       	movw	r16, r22
	uchar buf[LICZBA_BAJTOW_NUMERU_TELEFONU_W_EEPROM];
	uchar l = strlen(telefon_ptr);
    519a:	fc 01       	movw	r30, r24
    519c:	01 90       	ld	r0, Z+
    519e:	00 20       	and	r0, r0
    51a0:	e9 f7       	brne	.-6      	; 0x519c <porownaj_numer_telefonu+0x16>
    51a2:	31 97       	sbiw	r30, 0x01	; 1
    51a4:	bf 01       	movw	r22, r30
    51a6:	68 1b       	sub	r22, r24
    51a8:	79 0b       	sbc	r23, r25
	konwertuj_telefon_na_blok_eeprom(telefon_ptr, telefon_ptr + l, buf);
    51aa:	68 0f       	add	r22, r24
    51ac:	79 2f       	mov	r23, r25
    51ae:	71 1d       	adc	r23, r1
    51b0:	ae 01       	movw	r20, r28
    51b2:	4f 5f       	subi	r20, 0xFF	; 255
    51b4:	5f 4f       	sbci	r21, 0xFF	; 255
    51b6:	0e 94 bf 27 	call	0x4f7e	; 0x4f7e <konwertuj_telefon_na_blok_eeprom>
	return porownaj_numer_telefonu_blok(buf, eeprom_ptr);
    51ba:	b8 01       	movw	r22, r16
    51bc:	ce 01       	movw	r24, r28
    51be:	01 96       	adiw	r24, 0x01	; 1
    51c0:	0e 94 94 28 	call	0x5128	; 0x5128 <porownaj_numer_telefonu_blok>
}
    51c4:	0f 90       	pop	r0
    51c6:	0f 90       	pop	r0
    51c8:	0f 90       	pop	r0
    51ca:	0f 90       	pop	r0
    51cc:	0f 90       	pop	r0
    51ce:	df 91       	pop	r29
    51d0:	cf 91       	pop	r28
    51d2:	1f 91       	pop	r17
    51d4:	0f 91       	pop	r16
    51d6:	08 95       	ret

000051d8 <zapisz_znaki_w_eeprom_bez_kopiowania.part.0>:
	const uchar liczba_znakow)
{
	// wczeniej sprawdzono, czy mona zapisywa
	if ( liczba_znakow == 0 )
		return;
	pozycja_w_eeprom = pozycja_w_eeprom_;
    51d8:	80 93 d9 07 	sts	0x07D9, r24	; 0x8007d9 <pozycja_w_eeprom>
    51dc:	90 93 da 07 	sts	0x07DA, r25	; 0x8007da <pozycja_w_eeprom+0x1>
	nr_zapisanego_znaku = 0;
    51e0:	10 92 40 02 	sts	0x0240, r1	; 0x800240 <nr_zapisanego_znaku>
	liczba_znakow_do_zapisu = liczba_znakow;
    51e4:	60 93 41 02 	sts	0x0241, r22	; 0x800241 <liczba_znakow_do_zapisu>
	EEPROM_WRITE_ATMEGA8(pozycja_w_eeprom_, bufor_eeprom[0]);
    51e8:	92 bd       	out	0x22, r25	; 34
    51ea:	81 bd       	out	0x21, r24	; 33
    51ec:	f8 9a       	sbi	0x1f, 0	; 31
    51ee:	90 b5       	in	r25, 0x20	; 32
    51f0:	80 91 dd 07 	lds	r24, 0x07DD	; 0x8007dd <bufor_eeprom>
    51f4:	98 17       	cp	r25, r24
    51f6:	29 f0       	breq	.+10     	; 0x5202 <zapisz_znaki_w_eeprom_bez_kopiowania.part.0+0x2a>
    51f8:	80 bd       	out	0x20, r24	; 32
    51fa:	f8 94       	cli
    51fc:	fa 9a       	sbi	0x1f, 2	; 31
    51fe:	f9 9a       	sbi	0x1f, 1	; 31
    5200:	78 94       	sei
}
    5202:	08 95       	ret

00005204 <zapisz_bajt_w_EEPROM>:
	if ( !eeprom_is_ready() 
    5204:	f9 99       	sbic	0x1f, 1	; 31
    5206:	35 c0       	rjmp	.+106    	; 0x5272 <zapisz_bajt_w_EEPROM+0x6e>
		|| (bufor_pomoc_liczba_znakow_do_zapisu == 0 && liczba_znakow_do_zapisu == 0 && !czy_zajety_bufor_eeprom) )
    5208:	80 91 db 07 	lds	r24, 0x07DB	; 0x8007db <bufor_pomoc_liczba_znakow_do_zapisu>
    520c:	81 11       	cpse	r24, r1
    520e:	08 c0       	rjmp	.+16     	; 0x5220 <zapisz_bajt_w_EEPROM+0x1c>
    5210:	80 91 41 02 	lds	r24, 0x0241	; 0x800241 <liczba_znakow_do_zapisu>
    5214:	81 11       	cpse	r24, r1
    5216:	04 c0       	rjmp	.+8      	; 0x5220 <zapisz_bajt_w_EEPROM+0x1c>
    5218:	80 91 dc 07 	lds	r24, 0x07DC	; 0x8007dc <czy_zajety_bufor_eeprom>
    521c:	88 23       	and	r24, r24
    521e:	49 f1       	breq	.+82     	; 0x5272 <zapisz_bajt_w_EEPROM+0x6e>
	uchar pom = nr_zapisanego_znaku;
    5220:	80 91 40 02 	lds	r24, 0x0240	; 0x800240 <nr_zapisanego_znaku>
	EECR |= BIT(EERE);
    5224:	f8 9a       	sbi	0x1f, 0	; 31
	if ( EEDR == bufor_eeprom[pom] )	// sprawdzenie, czy zapisa- prawid-owo
    5226:	20 b5       	in	r18, 0x20	; 32
    5228:	e8 2f       	mov	r30, r24
    522a:	f0 e0       	ldi	r31, 0x00	; 0
    522c:	e3 52       	subi	r30, 0x23	; 35
    522e:	f8 4f       	sbci	r31, 0xF8	; 248
    5230:	90 81       	ld	r25, Z
    5232:	29 13       	cpse	r18, r25
    5234:	01 c0       	rjmp	.+2      	; 0x5238 <zapisz_bajt_w_EEPROM+0x34>
		++pom;
    5236:	8f 5f       	subi	r24, 0xFF	; 255
	if ( pom < liczba_znakow_do_zapisu )
    5238:	90 91 41 02 	lds	r25, 0x0241	; 0x800241 <liczba_znakow_do_zapisu>
    523c:	89 17       	cp	r24, r25
    523e:	d0 f4       	brcc	.+52     	; 0x5274 <zapisz_bajt_w_EEPROM+0x70>
		const uint poz = pozycja_w_eeprom + pom;
    5240:	28 2f       	mov	r18, r24
    5242:	30 e0       	ldi	r19, 0x00	; 0
    5244:	40 91 d9 07 	lds	r20, 0x07D9	; 0x8007d9 <pozycja_w_eeprom>
    5248:	50 91 da 07 	lds	r21, 0x07DA	; 0x8007da <pozycja_w_eeprom+0x1>
    524c:	42 0f       	add	r20, r18
    524e:	53 1f       	adc	r21, r19
		EEPROM_WRITE_ATMEGA8(poz, bufor_eeprom[pom]);
    5250:	52 bd       	out	0x22, r21	; 34
    5252:	41 bd       	out	0x21, r20	; 33
    5254:	f8 9a       	sbi	0x1f, 0	; 31
    5256:	40 b5       	in	r20, 0x20	; 32
    5258:	23 52       	subi	r18, 0x23	; 35
    525a:	38 4f       	sbci	r19, 0xF8	; 248
    525c:	f9 01       	movw	r30, r18
    525e:	90 81       	ld	r25, Z
    5260:	49 17       	cp	r20, r25
    5262:	29 f0       	breq	.+10     	; 0x526e <zapisz_bajt_w_EEPROM+0x6a>
    5264:	90 bd       	out	0x20, r25	; 32
    5266:	f8 94       	cli
    5268:	fa 9a       	sbi	0x1f, 2	; 31
    526a:	f9 9a       	sbi	0x1f, 1	; 31
    526c:	78 94       	sei
	nr_zapisanego_znaku = pom;
    526e:	80 93 40 02 	sts	0x0240, r24	; 0x800240 <nr_zapisanego_znaku>
}
    5272:	08 95       	ret
		const uchar k = bufor_pomoc_liczba_znakow_do_zapisu;
    5274:	90 91 db 07 	lds	r25, 0x07DB	; 0x8007db <bufor_pomoc_liczba_znakow_do_zapisu>
		bufor_pomoc_liczba_znakow_do_zapisu = 0;
    5278:	10 92 db 07 	sts	0x07DB, r1	; 0x8007db <bufor_pomoc_liczba_znakow_do_zapisu>
		liczba_znakow_do_zapisu = k;
    527c:	90 93 41 02 	sts	0x0241, r25	; 0x800241 <liczba_znakow_do_zapisu>
		if ( k != 0 )
    5280:	99 23       	and	r25, r25
    5282:	f9 f0       	breq	.+62     	; 0x52c2 <zapisz_bajt_w_EEPROM+0xbe>
    5284:	ed ed       	ldi	r30, 0xDD	; 221
    5286:	f7 e0       	ldi	r31, 0x07	; 7
			for (uchar i = 0; i < k; ++i)
    5288:	80 e0       	ldi	r24, 0x00	; 0
				bufor_eeprom[i] = bufor_eeprom[POLOZENIE_BUFOR_EEPROM_POMOC_BUFOR_START+i];
    528a:	20 a5       	ldd	r18, Z+40	; 0x28
    528c:	21 93       	st	Z+, r18
			for (uchar i = 0; i < k; ++i)
    528e:	8f 5f       	subi	r24, 0xFF	; 255
    5290:	98 13       	cpse	r25, r24
    5292:	fb cf       	rjmp	.-10     	; 0x528a <zapisz_bajt_w_EEPROM+0x86>
			pozycja_w_eeprom = bufor_pomoc_adres_eeprom;
    5294:	80 91 0f 08 	lds	r24, 0x080F	; 0x80080f <bufor_pomoc_adres_eeprom>
    5298:	90 91 10 08 	lds	r25, 0x0810	; 0x800810 <bufor_pomoc_adres_eeprom+0x1>
    529c:	80 93 d9 07 	sts	0x07D9, r24	; 0x8007d9 <pozycja_w_eeprom>
    52a0:	90 93 da 07 	sts	0x07DA, r25	; 0x8007da <pozycja_w_eeprom+0x1>
			EEPROM_WRITE_ATMEGA8(pozycja_w_eeprom, bufor_eeprom[0]);
    52a4:	92 bd       	out	0x22, r25	; 34
    52a6:	81 bd       	out	0x21, r24	; 33
    52a8:	f8 9a       	sbi	0x1f, 0	; 31
    52aa:	90 b5       	in	r25, 0x20	; 32
    52ac:	80 91 dd 07 	lds	r24, 0x07DD	; 0x8007dd <bufor_eeprom>
    52b0:	98 17       	cp	r25, r24
    52b2:	29 f0       	breq	.+10     	; 0x52be <zapisz_bajt_w_EEPROM+0xba>
    52b4:	80 bd       	out	0x20, r24	; 32
    52b6:	f8 94       	cli
    52b8:	fa 9a       	sbi	0x1f, 2	; 31
    52ba:	f9 9a       	sbi	0x1f, 1	; 31
    52bc:	78 94       	sei
			pom = 0;
    52be:	80 e0       	ldi	r24, 0x00	; 0
    52c0:	d6 cf       	rjmp	.-84     	; 0x526e <zapisz_bajt_w_EEPROM+0x6a>
			EEARH = 0x0f;
    52c2:	9f e0       	ldi	r25, 0x0F	; 15
    52c4:	92 bd       	out	0x22, r25	; 34
			EEARL = 0xff;
    52c6:	9f ef       	ldi	r25, 0xFF	; 255
    52c8:	91 bd       	out	0x21, r25	; 33
    52ca:	d1 cf       	rjmp	.-94     	; 0x526e <zapisz_bajt_w_EEPROM+0x6a>

000052cc <zapisz_znaki_w_eeprom>:
{
    52cc:	1f 93       	push	r17
    52ce:	cf 93       	push	r28
    52d0:	df 93       	push	r29
	if ( liczba_znakow == 0 )
    52d2:	44 23       	and	r20, r20
    52d4:	f1 f0       	breq	.+60     	; 0x5312 <zapisz_znaki_w_eeprom+0x46>
    52d6:	c4 2f       	mov	r28, r20
    52d8:	17 2f       	mov	r17, r23
    52da:	d6 2f       	mov	r29, r22
    52dc:	bc 01       	movw	r22, r24
	memcpy(bufor_eeprom, buf, liczba_znakow);
    52de:	50 e0       	ldi	r21, 0x00	; 0
    52e0:	8d ed       	ldi	r24, 0xDD	; 221
    52e2:	97 e0       	ldi	r25, 0x07	; 7
    52e4:	0e 94 3d 2f 	call	0x5e7a	; 0x5e7a <memcpy>
	pozycja_w_eeprom = pozycja_w_eeprom_;
    52e8:	d0 93 d9 07 	sts	0x07D9, r29	; 0x8007d9 <pozycja_w_eeprom>
    52ec:	10 93 da 07 	sts	0x07DA, r17	; 0x8007da <pozycja_w_eeprom+0x1>
	nr_zapisanego_znaku = 0;
    52f0:	10 92 40 02 	sts	0x0240, r1	; 0x800240 <nr_zapisanego_znaku>
	liczba_znakow_do_zapisu = liczba_znakow;
    52f4:	c0 93 41 02 	sts	0x0241, r28	; 0x800241 <liczba_znakow_do_zapisu>
	EEPROM_WRITE_ATMEGA8(pozycja_w_eeprom_, bufor_eeprom[0]);
    52f8:	12 bd       	out	0x22, r17	; 34
    52fa:	d1 bd       	out	0x21, r29	; 33
    52fc:	f8 9a       	sbi	0x1f, 0	; 31
    52fe:	90 b5       	in	r25, 0x20	; 32
    5300:	80 91 dd 07 	lds	r24, 0x07DD	; 0x8007dd <bufor_eeprom>
    5304:	98 17       	cp	r25, r24
    5306:	29 f0       	breq	.+10     	; 0x5312 <zapisz_znaki_w_eeprom+0x46>
    5308:	80 bd       	out	0x20, r24	; 32
    530a:	f8 94       	cli
    530c:	fa 9a       	sbi	0x1f, 2	; 31
    530e:	f9 9a       	sbi	0x1f, 1	; 31
    5310:	78 94       	sei
}
    5312:	df 91       	pop	r29
    5314:	cf 91       	pop	r28
    5316:	1f 91       	pop	r17
    5318:	08 95       	ret

0000531a <zapisz_znaki_w_eeprom_bez_kopiowania>:
	if ( liczba_znakow == 0 )
    531a:	61 11       	cpse	r22, r1
    531c:	0c 94 ec 28 	jmp	0x51d8	; 0x51d8 <zapisz_znaki_w_eeprom_bez_kopiowania.part.0>
}
    5320:	08 95       	ret

00005322 <zapisz_znak_w_eeprom>:

	// uwaga, w-cza przerwania sei()
void zapisz_znak_w_eeprom(const uchar znak, const uint pozycja_w_eeprom_)
{
    5322:	1f 93       	push	r17
    5324:	cf 93       	push	r28
    5326:	df 93       	push	r29
    5328:	18 2f       	mov	r17, r24
    532a:	eb 01       	movw	r28, r22
	// wczeniej sprawdzono, czy mona zapisywa
	if ( eeprom_read_byte((void*) pozycja_w_eeprom_) == znak )
    532c:	cb 01       	movw	r24, r22
    532e:	0e 94 7e 32 	call	0x64fc	; 0x64fc <eeprom_read_byte>
    5332:	81 17       	cp	r24, r17
    5334:	49 f0       	breq	.+18     	; 0x5348 <zapisz_znak_w_eeprom+0x26>
		return;
	bufor_eeprom[0] = znak;
    5336:	10 93 dd 07 	sts	0x07DD, r17	; 0x8007dd <bufor_eeprom>
    533a:	61 e0       	ldi	r22, 0x01	; 1
    533c:	ce 01       	movw	r24, r28
	zapisz_znaki_w_eeprom_bez_kopiowania(pozycja_w_eeprom_, 1);
}
    533e:	df 91       	pop	r29
    5340:	cf 91       	pop	r28
    5342:	1f 91       	pop	r17
    5344:	0c 94 ec 28 	jmp	0x51d8	; 0x51d8 <zapisz_znaki_w_eeprom_bez_kopiowania.part.0>
    5348:	df 91       	pop	r29
    534a:	cf 91       	pop	r28
    534c:	1f 91       	pop	r17
    534e:	08 95       	ret

00005350 <eeprom_read_3char>:
//	*ptr2++ = eeprom_read_byte(ptr++);
//	return l;
//}

uint32_t eeprom_read_3char(const uint32_t *addr)
{
    5350:	0f 93       	push	r16
    5352:	1f 93       	push	r17
    5354:	cf 93       	push	r28
    5356:	df 93       	push	r29
    5358:	00 d0       	rcall	.+0      	; 0x535a <eeprom_read_3char+0xa>
    535a:	00 d0       	rcall	.+0      	; 0x535c <eeprom_read_3char+0xc>
    535c:	cd b7       	in	r28, 0x3d	; 61
    535e:	de b7       	in	r29, 0x3e	; 62
    5360:	8c 01       	movw	r16, r24
	ulong l = 0;
    5362:	19 82       	std	Y+1, r1	; 0x01
    5364:	1a 82       	std	Y+2, r1	; 0x02
    5366:	1b 82       	std	Y+3, r1	; 0x03
    5368:	1c 82       	std	Y+4, r1	; 0x04
	const uchar* ptr = (uchar*) addr;
	uchar* ptr2 = (uchar*) &l;
	*ptr2++ = eeprom_read_byte(ptr++);
    536a:	0e 94 7e 32 	call	0x64fc	; 0x64fc <eeprom_read_byte>
    536e:	89 83       	std	Y+1, r24	; 0x01
	*ptr2++ = eeprom_read_byte(ptr++);
    5370:	c8 01       	movw	r24, r16
    5372:	01 96       	adiw	r24, 0x01	; 1
    5374:	0e 94 7e 32 	call	0x64fc	; 0x64fc <eeprom_read_byte>
    5378:	8a 83       	std	Y+2, r24	; 0x02
	*ptr2++ = eeprom_read_byte(ptr++);
    537a:	c8 01       	movw	r24, r16
    537c:	02 96       	adiw	r24, 0x02	; 2
    537e:	0e 94 7e 32 	call	0x64fc	; 0x64fc <eeprom_read_byte>
    5382:	8b 83       	std	Y+3, r24	; 0x03
	return l;
    5384:	69 81       	ldd	r22, Y+1	; 0x01
    5386:	7a 81       	ldd	r23, Y+2	; 0x02
    5388:	8b 81       	ldd	r24, Y+3	; 0x03
    538a:	9c 81       	ldd	r25, Y+4	; 0x04
}
    538c:	0f 90       	pop	r0
    538e:	0f 90       	pop	r0
    5390:	0f 90       	pop	r0
    5392:	0f 90       	pop	r0
    5394:	df 91       	pop	r29
    5396:	cf 91       	pop	r28
    5398:	1f 91       	pop	r17
    539a:	0f 91       	pop	r16
    539c:	08 95       	ret

0000539e <pdu_to_ascii>:
	'p',  'q',  'r',  's',  't',  'u',  'v',  'w',
	'x',  'y',  'z',  0xe4, 0xf6, 0xf1, 0xfc, 0xe0
};

void pdu_to_ascii(const uchar* pdu, uchar* bufor, const uchar dim_bufor)
{
    539e:	cf 92       	push	r12
    53a0:	df 92       	push	r13
    53a2:	ef 92       	push	r14
    53a4:	ff 92       	push	r15
    53a6:	0f 93       	push	r16
    53a8:	1f 93       	push	r17
    53aa:	cf 93       	push	r28
    53ac:	df 93       	push	r29
	const uchar l = *pdu++;
    53ae:	dc 01       	movw	r26, r24
    53b0:	11 96       	adiw	r26, 0x01	; 1
    53b2:	fc 01       	movw	r30, r24
    53b4:	f0 80       	ld	r15, Z
	uchar* ascii = bufor;
	uchar flaga = 0x80;
	uchar pom = 0;
	uchar w = 0;
	const uchar roz_1 = min(dim_bufor-1, l);
    53b6:	f4 16       	cp	r15, r20
    53b8:	18 f0       	brcs	.+6      	; 0x53c0 <pdu_to_ascii+0x22>
    53ba:	ff 24       	eor	r15, r15
    53bc:	fa 94       	dec	r15
    53be:	f4 0e       	add	r15, r20
    53c0:	eb 01       	movw	r28, r22
	for (uchar i = 0; i < roz_1; )
    53c2:	40 e0       	ldi	r20, 0x00	; 0
	uchar w = 0;
    53c4:	e1 2c       	mov	r14, r1
	uchar pom = 0;
    53c6:	e0 e0       	ldi	r30, 0x00	; 0
	uchar flaga = 0x80;
    53c8:	50 e8       	ldi	r21, 0x80	; 128
{
		*ascii++ = pgm_read_byte(GSM_Default_Alphabet + (((*pdu & (~flaga)) << w) + pom));
		const uchar k = ++i & 0x07;
		if ( k != 0 )
		{
			pom = (*pdu++ & flaga) >> (7 - w);
    53ca:	87 e0       	ldi	r24, 0x07	; 7
    53cc:	90 e0       	ldi	r25, 0x00	; 0
	for (uchar i = 0; i < roz_1; )
    53ce:	4f 11       	cpse	r20, r15
    53d0:	0d c0       	rjmp	.+26     	; 0x53ec <pdu_to_ascii+0x4e>
			flaga = 0x80;
			pom = 0;
		}
		w = k;
	}
	*ascii = '\0';
    53d2:	64 0f       	add	r22, r20
    53d4:	71 1d       	adc	r23, r1
    53d6:	fb 01       	movw	r30, r22
    53d8:	10 82       	st	Z, r1
}
    53da:	df 91       	pop	r29
    53dc:	cf 91       	pop	r28
    53de:	1f 91       	pop	r17
    53e0:	0f 91       	pop	r16
    53e2:	ff 90       	pop	r15
    53e4:	ef 90       	pop	r14
    53e6:	df 90       	pop	r13
    53e8:	cf 90       	pop	r12
    53ea:	08 95       	ret
		*ascii++ = pgm_read_byte(GSM_Default_Alphabet + (((*pdu & (~flaga)) << w) + pom));
    53ec:	2e 2d       	mov	r18, r14
    53ee:	30 e0       	ldi	r19, 0x00	; 0
    53f0:	0c 91       	ld	r16, X
    53f2:	10 e0       	ldi	r17, 0x00	; 0
    53f4:	c5 2e       	mov	r12, r21
    53f6:	d1 2c       	mov	r13, r1
    53f8:	c0 94       	com	r12
    53fa:	d0 94       	com	r13
    53fc:	0c 21       	and	r16, r12
    53fe:	1d 21       	and	r17, r13
    5400:	02 c0       	rjmp	.+4      	; 0x5406 <pdu_to_ascii+0x68>
    5402:	00 0f       	add	r16, r16
    5404:	11 1f       	adc	r17, r17
    5406:	ea 94       	dec	r14
    5408:	e2 f7       	brpl	.-8      	; 0x5402 <pdu_to_ascii+0x64>
    540a:	e0 0f       	add	r30, r16
    540c:	f1 2f       	mov	r31, r17
    540e:	f1 1d       	adc	r31, r1
    5410:	ee 55       	subi	r30, 0x5E	; 94
    5412:	fa 4f       	sbci	r31, 0xFA	; 250
    5414:	e4 91       	lpm	r30, Z
    5416:	e9 93       	st	Y+, r30
		const uchar k = ++i & 0x07;
    5418:	4f 5f       	subi	r20, 0xFF	; 255
    541a:	f4 2f       	mov	r31, r20
    541c:	f7 70       	andi	r31, 0x07	; 7
    541e:	ef 2e       	mov	r14, r31
		if ( k != 0 )
    5420:	79 f0       	breq	.+30     	; 0x5440 <pdu_to_ascii+0xa2>
			pom = (*pdu++ & flaga) >> (7 - w);
    5422:	ec 91       	ld	r30, X
    5424:	e5 23       	and	r30, r21
    5426:	f0 e0       	ldi	r31, 0x00	; 0
    5428:	8c 01       	movw	r16, r24
    542a:	02 1b       	sub	r16, r18
    542c:	13 0b       	sbc	r17, r19
    542e:	02 c0       	rjmp	.+4      	; 0x5434 <pdu_to_ascii+0x96>
    5430:	f5 95       	asr	r31
    5432:	e7 95       	ror	r30
    5434:	0a 95       	dec	r16
    5436:	e2 f7       	brpl	.-8      	; 0x5430 <pdu_to_ascii+0x92>
			flaga = (flaga >> 1) + 0x80;
    5438:	56 95       	lsr	r21
    543a:	50 58       	subi	r21, 0x80	; 128
			pom = (*pdu++ & flaga) >> (7 - w);
    543c:	11 96       	adiw	r26, 0x01	; 1
    543e:	c7 cf       	rjmp	.-114    	; 0x53ce <pdu_to_ascii+0x30>
			pom = 0;
    5440:	e0 e0       	ldi	r30, 0x00	; 0
			flaga = 0x80;
    5442:	50 e8       	ldi	r21, 0x80	; 128
    5444:	c4 cf       	rjmp	.-120    	; 0x53ce <pdu_to_ascii+0x30>

00005446 <ascii_to_pdu_blok>:
	0x3f, 0x7d, 0x08, 0x3f, 0x3f, 0x3f, 0x7c, 0x3f, 0x0c, 0x06, 0x3f, 0x3f, 0x7e, 0x3f, 0x3f, 0x3f
};

uchar* ascii_to_pdu_blok(uchar* bufor_pdu, const uchar* ascii, 
	const uchar* ascii_end)
{
    5446:	cf 92       	push	r12
    5448:	df 92       	push	r13
    544a:	ef 92       	push	r14
    544c:	ff 92       	push	r15
    544e:	0f 93       	push	r16
    5450:	1f 93       	push	r17
    5452:	cf 93       	push	r28
    5454:	df 93       	push	r29
    5456:	8c 01       	movw	r16, r24
	bufor_pdu[0] = (uchar)(ascii_end - ascii);
    5458:	ca 01       	movw	r24, r20
    545a:	86 1b       	sub	r24, r22
    545c:	97 0b       	sbc	r25, r23
    545e:	e8 01       	movw	r28, r16
    5460:	89 93       	st	Y+, r24
	const uchar roz_1 = bufor_pdu[0] - 1;	// rozmiar = roz_1 + 1
    5462:	81 50       	subi	r24, 0x01	; 1
	uchar j = 0;
	uchar l = 0;
    5464:	90 e0       	ldi	r25, 0x00	; 0
	uchar j = 0;
    5466:	20 e0       	ldi	r18, 0x00	; 0
	uchar* pdu_ptr = bufor_pdu+1;
	uchar konwersja;
	while ( j < roz_1 )
	{
		uchar l_7 = 7 - l;
		konwersja = ((pgm_read_byte(GSM_Default_DeAlphabet + ascii[j])) & (0x7fu << l)) >> l;
    5468:	4f e7       	ldi	r20, 0x7F	; 127
    546a:	50 e0       	ldi	r21, 0x00	; 0
		uchar l_7 = 7 - l;
    546c:	37 e0       	ldi	r19, 0x07	; 7
		konwersja |= ((pgm_read_byte(GSM_Default_DeAlphabet + ascii[j+1])) & (0xffu >> l_7)) << l_7;
    546e:	ee 24       	eor	r14, r14
    5470:	ea 94       	dec	r14
    5472:	f1 2c       	mov	r15, r1
    5474:	de 01       	movw	r26, r28
	while ( j < roz_1 )
    5476:	28 17       	cp	r18, r24
    5478:	48 f1       	brcs	.+82     	; 0x54cc <ascii_to_pdu_blok+0x86>
			l = 0;
			++j;
		}
		++j;
	}
	if ( bufor_pdu[0] % 8 != 0 )
    547a:	f8 01       	movw	r30, r16
    547c:	80 81       	ld	r24, Z
    547e:	87 70       	andi	r24, 0x07	; 7
    5480:	d9 f0       	breq	.+54     	; 0x54b8 <ascii_to_pdu_blok+0x72>
	{
		konwersja = (((pgm_read_byte(GSM_Default_DeAlphabet + ascii[j])) & (0x7fu << l)) >> l );
    5482:	fb 01       	movw	r30, r22
    5484:	e2 0f       	add	r30, r18
    5486:	f1 1d       	adc	r31, r1
    5488:	e0 81       	ld	r30, Z
    548a:	f0 e0       	ldi	r31, 0x00	; 0
    548c:	ee 55       	subi	r30, 0x5E	; 94
    548e:	fb 4f       	sbci	r31, 0xFB	; 251
    5490:	24 91       	lpm	r18, Z
    5492:	4f e7       	ldi	r20, 0x7F	; 127
    5494:	50 e0       	ldi	r21, 0x00	; 0
    5496:	09 2e       	mov	r0, r25
    5498:	02 c0       	rjmp	.+4      	; 0x549e <ascii_to_pdu_blok+0x58>
    549a:	44 0f       	add	r20, r20
    549c:	55 1f       	adc	r21, r21
    549e:	0a 94       	dec	r0
    54a0:	e2 f7       	brpl	.-8      	; 0x549a <ascii_to_pdu_blok+0x54>
    54a2:	e2 2f       	mov	r30, r18
    54a4:	f0 e0       	ldi	r31, 0x00	; 0
    54a6:	e4 23       	and	r30, r20
    54a8:	f5 23       	and	r31, r21
    54aa:	02 c0       	rjmp	.+4      	; 0x54b0 <ascii_to_pdu_blok+0x6a>
    54ac:	f6 95       	lsr	r31
    54ae:	e7 95       	ror	r30
    54b0:	9a 95       	dec	r25
    54b2:	e2 f7       	brpl	.-8      	; 0x54ac <ascii_to_pdu_blok+0x66>
    54b4:	e8 83       	st	Y, r30
		//*pdu_ptr++ = pgm_read_byte(GSM_Default_DeAlphabet + konwersja);
		*pdu_ptr++ = konwersja;
    54b6:	11 96       	adiw	r26, 0x01	; 1
	}
	return pdu_ptr;
}
    54b8:	cd 01       	movw	r24, r26
    54ba:	df 91       	pop	r29
    54bc:	cf 91       	pop	r28
    54be:	1f 91       	pop	r17
    54c0:	0f 91       	pop	r16
    54c2:	ff 90       	pop	r15
    54c4:	ef 90       	pop	r14
    54c6:	df 90       	pop	r13
    54c8:	cf 90       	pop	r12
    54ca:	08 95       	ret
		konwersja = ((pgm_read_byte(GSM_Default_DeAlphabet + ascii[j])) & (0x7fu << l)) >> l;
    54cc:	6b 01       	movw	r12, r22
    54ce:	c2 0e       	add	r12, r18
    54d0:	d1 1c       	adc	r13, r1
    54d2:	d6 01       	movw	r26, r12
    54d4:	ec 91       	ld	r30, X
    54d6:	f0 e0       	ldi	r31, 0x00	; 0
    54d8:	ee 55       	subi	r30, 0x5E	; 94
    54da:	fb 4f       	sbci	r31, 0xFB	; 251
    54dc:	e4 91       	lpm	r30, Z
    54de:	da 01       	movw	r26, r20
    54e0:	09 2e       	mov	r0, r25
    54e2:	02 c0       	rjmp	.+4      	; 0x54e8 <ascii_to_pdu_blok+0xa2>
    54e4:	aa 0f       	add	r26, r26
    54e6:	bb 1f       	adc	r27, r27
    54e8:	0a 94       	dec	r0
    54ea:	e2 f7       	brpl	.-8      	; 0x54e4 <ascii_to_pdu_blok+0x9e>
    54ec:	f0 e0       	ldi	r31, 0x00	; 0
    54ee:	ae 23       	and	r26, r30
    54f0:	bf 23       	and	r27, r31
    54f2:	09 2e       	mov	r0, r25
    54f4:	02 c0       	rjmp	.+4      	; 0x54fa <ascii_to_pdu_blok+0xb4>
    54f6:	b6 95       	lsr	r27
    54f8:	a7 95       	ror	r26
    54fa:	0a 94       	dec	r0
    54fc:	e2 f7       	brpl	.-8      	; 0x54f6 <ascii_to_pdu_blok+0xb0>
		konwersja |= ((pgm_read_byte(GSM_Default_DeAlphabet + ascii[j+1])) & (0xffu >> l_7)) << l_7;
    54fe:	f6 01       	movw	r30, r12
    5500:	b1 81       	ldd	r27, Z+1	; 0x01
    5502:	eb 2f       	mov	r30, r27
    5504:	f0 e0       	ldi	r31, 0x00	; 0
    5506:	ee 55       	subi	r30, 0x5E	; 94
    5508:	fb 4f       	sbci	r31, 0xFB	; 251
    550a:	e4 91       	lpm	r30, Z
		uchar l_7 = 7 - l;
    550c:	b3 2f       	mov	r27, r19
    550e:	b9 1b       	sub	r27, r25
		konwersja |= ((pgm_read_byte(GSM_Default_DeAlphabet + ascii[j+1])) & (0xffu >> l_7)) << l_7;
    5510:	67 01       	movw	r12, r14
    5512:	0b 2e       	mov	r0, r27
    5514:	02 c0       	rjmp	.+4      	; 0x551a <ascii_to_pdu_blok+0xd4>
    5516:	d6 94       	lsr	r13
    5518:	c7 94       	ror	r12
    551a:	0a 94       	dec	r0
    551c:	e2 f7       	brpl	.-8      	; 0x5516 <ascii_to_pdu_blok+0xd0>
    551e:	ec 21       	and	r30, r12
    5520:	01 c0       	rjmp	.+2      	; 0x5524 <ascii_to_pdu_blok+0xde>
    5522:	ee 0f       	add	r30, r30
    5524:	ba 95       	dec	r27
    5526:	ea f7       	brpl	.-6      	; 0x5522 <ascii_to_pdu_blok+0xdc>
    5528:	ea 2b       	or	r30, r26
		*pdu_ptr++ = konwersja;
    552a:	e9 93       	st	Y+, r30
		if ( ++l == 7 )
    552c:	9f 5f       	subi	r25, 0xFF	; 255
    552e:	97 30       	cpi	r25, 0x07	; 7
    5530:	11 f4       	brne	.+4      	; 0x5536 <ascii_to_pdu_blok+0xf0>
    5532:	2f 5f       	subi	r18, 0xFF	; 255
			l = 0;
    5534:	90 e0       	ldi	r25, 0x00	; 0
		++j;
    5536:	2f 5f       	subi	r18, 0xFF	; 255
    5538:	9d cf       	rjmp	.-198    	; 0x5474 <ascii_to_pdu_blok+0x2e>

0000553a <konwertuj_blok_dwa_znaki_na_znak_pdu>:

void konwertuj_blok_dwa_znaki_na_znak_pdu(const uchar* blok_danych, 
	const uchar liczba_znakow, uchar* ptr)
{
    553a:	fc 01       	movw	r30, r24
	for (uint i = 0; i < liczba_znakow; ++i)
    553c:	da 01       	movw	r26, r20
    553e:	70 e0       	ldi	r23, 0x00	; 0
    5540:	cd 01       	movw	r24, r26
    5542:	84 1b       	sub	r24, r20
    5544:	95 0b       	sbc	r25, r21
    5546:	86 17       	cp	r24, r22
    5548:	97 07       	cpc	r25, r23
    554a:	08 f0       	brcs	.+2      	; 0x554e <konwertuj_blok_dwa_znaki_na_znak_pdu+0x14>
		wynik <<= 4;
		ch = *blok_danych++;
		wynik += ( ch < ('9' + 1)) ? (ch - '0') : (ch - ('A' - 10));
		*ptr++ = wynik;
	}
}
    554c:	08 95       	ret
		uchar ch = *blok_danych++;
    554e:	90 81       	ld	r25, Z
		uchar wynik = ( ch < ('9' + 1)) ? (ch - '0') : (ch - ('A' - 10));
    5550:	9a 33       	cpi	r25, 0x3A	; 58
    5552:	60 f4       	brcc	.+24     	; 0x556c <konwertuj_blok_dwa_znaki_na_znak_pdu+0x32>
    5554:	90 53       	subi	r25, 0x30	; 48
		wynik <<= 4;
    5556:	29 2f       	mov	r18, r25
    5558:	22 95       	swap	r18
    555a:	20 7f       	andi	r18, 0xF0	; 240
		ch = *blok_danych++;
    555c:	91 81       	ldd	r25, Z+1	; 0x01
		wynik += ( ch < ('9' + 1)) ? (ch - '0') : (ch - ('A' - 10));
    555e:	9a 33       	cpi	r25, 0x3A	; 58
    5560:	38 f4       	brcc	.+14     	; 0x5570 <konwertuj_blok_dwa_znaki_na_znak_pdu+0x36>
    5562:	90 53       	subi	r25, 0x30	; 48
    5564:	92 0f       	add	r25, r18
		*ptr++ = wynik;
    5566:	9d 93       	st	X+, r25
    5568:	32 96       	adiw	r30, 0x02	; 2
    556a:	ea cf       	rjmp	.-44     	; 0x5540 <konwertuj_blok_dwa_znaki_na_znak_pdu+0x6>
		uchar wynik = ( ch < ('9' + 1)) ? (ch - '0') : (ch - ('A' - 10));
    556c:	97 53       	subi	r25, 0x37	; 55
    556e:	f3 cf       	rjmp	.-26     	; 0x5556 <konwertuj_blok_dwa_znaki_na_znak_pdu+0x1c>
		wynik += ( ch < ('9' + 1)) ? (ch - '0') : (ch - ('A' - 10));
    5570:	97 53       	subi	r25, 0x37	; 55
    5572:	f8 cf       	rjmp	.-16     	; 0x5564 <konwertuj_blok_dwa_znaki_na_znak_pdu+0x2a>

00005574 <pobierz_numer_telefonu_nadawcy_z_PDU>:

uchar* pobierz_numer_telefonu_nadawcy_z_PDU(const uchar* pdu_ptr, uchar* bufor_numer_telefonu, uchar* nietypowy_sms)
{
    5574:	1f 93       	push	r17
    5576:	cf 93       	push	r28
    5578:	df 93       	push	r29
    557a:	dc 01       	movw	r26, r24
    557c:	ea 01       	movw	r28, r20
	//pdu_ptr += pdu_ptr[0] + 2;
	if ( (pdu_ptr[0] + 1) >= 200 )	// (1)
    557e:	8c 91       	ld	r24, X
    5580:	87 3c       	cpi	r24, 0xC7	; 199
    5582:	50 f0       	brcs	.+20     	; 0x5598 <pobierz_numer_telefonu_nadawcy_z_PDU+0x24>
	{
		*bufor_numer_telefonu = 0;
    5584:	db 01       	movw	r26, r22
    5586:	1c 92       	st	X, r1
		*nietypowy_sms = TRUE;
    5588:	8f ef       	ldi	r24, 0xFF	; 255
    558a:	88 83       	st	Y, r24
		return 0;
    558c:	90 e0       	ldi	r25, 0x00	; 0
    558e:	80 e0       	ldi	r24, 0x00	; 0
		--pdu_ptr;
	if ( pdu_ptr[2] != 0 )	// TP-DCS Data coding scheme
		*nietypowy_sms = TRUE;
	pdu_ptr += 3;
	return (uchar*) pdu_ptr;
}
    5590:	df 91       	pop	r29
    5592:	cf 91       	pop	r28
    5594:	1f 91       	pop	r17
    5596:	08 95       	ret
	*nietypowy_sms = FALSE;
    5598:	18 82       	st	Y, r1
	pdu_ptr += pdu_ptr[0] + 1;
    559a:	8c 91       	ld	r24, X
    559c:	90 e0       	ldi	r25, 0x00	; 0
    559e:	01 96       	adiw	r24, 0x01	; 1
    55a0:	a8 0f       	add	r26, r24
    55a2:	b9 1f       	adc	r27, r25
	if ( ! (*pdu_ptr == 0x04 || *pdu_ptr == 0x00) )	//First octet of the SMS-DELIVER PDU
    55a4:	8c 91       	ld	r24, X
    55a6:	8b 7f       	andi	r24, 0xFB	; 251
    55a8:	11 f0       	breq	.+4      	; 0x55ae <pobierz_numer_telefonu_nadawcy_z_PDU+0x3a>
		*nietypowy_sms = TRUE;
    55aa:	8f ef       	ldi	r24, 0xFF	; 255
    55ac:	88 83       	st	Y, r24
	const uchar liczba_cyfr_w_telefonie = *pdu_ptr++;
    55ae:	11 96       	adiw	r26, 0x01	; 1
    55b0:	2c 91       	ld	r18, X
    55b2:	11 97       	sbiw	r26, 0x01	; 1
	if ( liczba_cyfr_w_telefonie > MAX_LICZBA_ZNAKOW_TELEFON )	// (1)
    55b4:	21 31       	cpi	r18, 0x11	; 17
    55b6:	30 f7       	brcc	.-52     	; 0x5584 <pobierz_numer_telefonu_nadawcy_z_PDU+0x10>
	const uchar typ_telefonu = *pdu_ptr++;
    55b8:	fd 01       	movw	r30, r26
    55ba:	33 96       	adiw	r30, 0x03	; 3
    55bc:	12 96       	adiw	r26, 0x02	; 2
    55be:	8c 91       	ld	r24, X
	const uchar dobry_telefon = (typ_telefonu == 129 || typ_telefonu == 145);
    55c0:	98 2f       	mov	r25, r24
    55c2:	9f 7e       	andi	r25, 0xEF	; 239
    55c4:	31 e0       	ldi	r19, 0x01	; 1
    55c6:	91 38       	cpi	r25, 0x81	; 129
    55c8:	09 f0       	breq	.+2      	; 0x55cc <pobierz_numer_telefonu_nadawcy_z_PDU+0x58>
    55ca:	30 e0       	ldi	r19, 0x00	; 0
	if ( typ_telefonu == 145 )
    55cc:	81 39       	cpi	r24, 0x91	; 145
    55ce:	29 f4       	brne	.+10     	; 0x55da <pobierz_numer_telefonu_nadawcy_z_PDU+0x66>
		*bufor_numer_telefonu++ = '+';
    55d0:	8b e2       	ldi	r24, 0x2B	; 43
    55d2:	db 01       	movw	r26, r22
    55d4:	8c 93       	st	X, r24
    55d6:	6f 5f       	subi	r22, 0xFF	; 255
    55d8:	7f 4f       	sbci	r23, 0xFF	; 255
    55da:	ab 01       	movw	r20, r22
    55dc:	10 e0       	ldi	r17, 0x00	; 0
    55de:	0e c0       	rjmp	.+28     	; 0x55fc <pobierz_numer_telefonu_nadawcy_z_PDU+0x88>
		uchar znak = *pdu_ptr;
    55e0:	80 81       	ld	r24, Z
		if ( (i & 0x01) != 0)
    55e2:	99 23       	and	r25, r25
    55e4:	11 f0       	breq	.+4      	; 0x55ea <pobierz_numer_telefonu_nadawcy_z_PDU+0x76>
			SWAP(znak);
    55e6:	82 95       	swap	r24
			++pdu_ptr;
    55e8:	31 96       	adiw	r30, 0x01	; 1
		*bufor_numer_telefonu++ = (dobry_telefon ? ((znak & 0x0f) + '0') : '0');
    55ea:	8f 70       	andi	r24, 0x0F	; 15
    55ec:	80 5d       	subi	r24, 0xD0	; 208
    55ee:	31 11       	cpse	r19, r1
    55f0:	01 c0       	rjmp	.+2      	; 0x55f4 <pobierz_numer_telefonu_nadawcy_z_PDU+0x80>
    55f2:	80 e3       	ldi	r24, 0x30	; 48
    55f4:	da 01       	movw	r26, r20
    55f6:	8d 93       	st	X+, r24
    55f8:	ad 01       	movw	r20, r26
	for (uchar i = 0; i < liczba_cyfr_w_telefonie; ++i)
    55fa:	1f 5f       	subi	r17, 0xFF	; 255
    55fc:	91 2f       	mov	r25, r17
    55fe:	91 70       	andi	r25, 0x01	; 1
    5600:	12 13       	cpse	r17, r18
    5602:	ee cf       	rjmp	.-36     	; 0x55e0 <pobierz_numer_telefonu_nadawcy_z_PDU+0x6c>
	*bufor_numer_telefonu = '\0';
    5604:	db 01       	movw	r26, r22
    5606:	a1 0f       	add	r26, r17
    5608:	b1 1d       	adc	r27, r1
    560a:	1c 92       	st	X, r1
	if ( !(liczba_cyfr_w_telefonie & 0x01) )
    560c:	91 11       	cpse	r25, r1
    560e:	01 c0       	rjmp	.+2      	; 0x5612 <pobierz_numer_telefonu_nadawcy_z_PDU+0x9e>
		--pdu_ptr;
    5610:	31 97       	sbiw	r30, 0x01	; 1
	if ( pdu_ptr[2] != 0 )	// TP-DCS Data coding scheme
    5612:	82 81       	ldd	r24, Z+2	; 0x02
    5614:	88 23       	and	r24, r24
    5616:	11 f0       	breq	.+4      	; 0x561c <pobierz_numer_telefonu_nadawcy_z_PDU+0xa8>
		*nietypowy_sms = TRUE;
    5618:	8f ef       	ldi	r24, 0xFF	; 255
    561a:	88 83       	st	Y, r24
	pdu_ptr += 3;
    561c:	cf 01       	movw	r24, r30
    561e:	03 96       	adiw	r24, 0x03	; 3
	return (uchar*) pdu_ptr;
    5620:	b7 cf       	rjmp	.-146    	; 0x5590 <pobierz_numer_telefonu_nadawcy_z_PDU+0x1c>

00005622 <pobierz_date_z_PDU>:

const uchar* pobierz_date_z_PDU(const uchar* ptr, uchar* rok, uchar* miesiac, uchar* dzien)
{
    5622:	fc 01       	movw	r30, r24
	*rok = *ptr++;
    5624:	90 81       	ld	r25, Z
	*rok = 10 * (*rok & 0x0f) + ((*rok & 0xf0) >> 4);
    5626:	a9 2f       	mov	r26, r25
    5628:	af 70       	andi	r26, 0x0F	; 15
    562a:	8a e0       	ldi	r24, 0x0A	; 10
    562c:	92 95       	swap	r25
    562e:	9f 70       	andi	r25, 0x0F	; 15
    5630:	a8 9f       	mul	r26, r24
    5632:	90 0d       	add	r25, r0
    5634:	11 24       	eor	r1, r1
    5636:	db 01       	movw	r26, r22
    5638:	9c 93       	st	X, r25
	*miesiac = *ptr++;
    563a:	91 81       	ldd	r25, Z+1	; 0x01
	*miesiac = 10 * (*miesiac & 0x0f) + ((*miesiac & 0xf0) >> 4);
    563c:	69 2f       	mov	r22, r25
    563e:	6f 70       	andi	r22, 0x0F	; 15
    5640:	92 95       	swap	r25
    5642:	9f 70       	andi	r25, 0x0F	; 15
    5644:	68 9f       	mul	r22, r24
    5646:	90 0d       	add	r25, r0
    5648:	11 24       	eor	r1, r1
    564a:	da 01       	movw	r26, r20
    564c:	9c 93       	st	X, r25
	*dzien = *ptr++;
    564e:	92 81       	ldd	r25, Z+2	; 0x02
	*dzien = 10 * (*dzien & 0x0f) + ((*dzien & 0xf0) >> 4);
    5650:	49 2f       	mov	r20, r25
    5652:	4f 70       	andi	r20, 0x0F	; 15
    5654:	92 95       	swap	r25
    5656:	9f 70       	andi	r25, 0x0F	; 15
    5658:	48 9f       	mul	r20, r24
    565a:	90 0d       	add	r25, r0
    565c:	11 24       	eor	r1, r1
    565e:	d9 01       	movw	r26, r18
    5660:	9c 93       	st	X, r25
	return ptr;
}
    5662:	cf 01       	movw	r24, r30
    5664:	03 96       	adiw	r24, 0x03	; 3
    5666:	08 95       	ret

00005668 <pobierz_czas_z_PDU>:

const uchar* pobierz_czas_z_PDU(const uchar* ptr, uchar* godzina, uchar* minuta, uchar* sekunda)
{
    5668:	fc 01       	movw	r30, r24
	*godzina = *ptr++;
    566a:	90 81       	ld	r25, Z
	*godzina = 10 * (*godzina & 0x0f) + ((*godzina & 0xf0) >> 4);
    566c:	a9 2f       	mov	r26, r25
    566e:	af 70       	andi	r26, 0x0F	; 15
    5670:	8a e0       	ldi	r24, 0x0A	; 10
    5672:	92 95       	swap	r25
    5674:	9f 70       	andi	r25, 0x0F	; 15
    5676:	a8 9f       	mul	r26, r24
    5678:	90 0d       	add	r25, r0
    567a:	11 24       	eor	r1, r1
    567c:	db 01       	movw	r26, r22
    567e:	9c 93       	st	X, r25
	*minuta = *ptr++;
    5680:	91 81       	ldd	r25, Z+1	; 0x01
	*minuta = 10 * (*minuta & 0x0f) + ((*minuta & 0xf0) >> 4);
    5682:	69 2f       	mov	r22, r25
    5684:	6f 70       	andi	r22, 0x0F	; 15
    5686:	92 95       	swap	r25
    5688:	9f 70       	andi	r25, 0x0F	; 15
    568a:	68 9f       	mul	r22, r24
    568c:	90 0d       	add	r25, r0
    568e:	11 24       	eor	r1, r1
    5690:	da 01       	movw	r26, r20
    5692:	9c 93       	st	X, r25
        *sekunda = *ptr++;
    5694:	92 81       	ldd	r25, Z+2	; 0x02
        *sekunda = 10 * (*sekunda & 0x0f) + ((*sekunda & 0xf0) >> 4);
    5696:	49 2f       	mov	r20, r25
    5698:	4f 70       	andi	r20, 0x0F	; 15
    569a:	92 95       	swap	r25
    569c:	9f 70       	andi	r25, 0x0F	; 15
    569e:	48 9f       	mul	r20, r24
    56a0:	90 0d       	add	r25, r0
    56a2:	11 24       	eor	r1, r1
    56a4:	d9 01       	movw	r26, r18
    56a6:	9c 93       	st	X, r25
	return ptr + 1; // Pomin timezone
}
    56a8:	cf 01       	movw	r24, r30
    56aa:	04 96       	adiw	r24, 0x04	; 4
    56ac:	08 95       	ret

000056ae <wpisz_telefon_w_formacie_sms>:

uchar* wpisz_telefon_w_formacie_sms(uchar* ptr, const uchar* telefon)
{
    56ae:	cf 93       	push	r28
    56b0:	df 93       	push	r29
    56b2:	dc 01       	movw	r26, r24
    56b4:	fb 01       	movw	r30, r22
	uchar typ_telefonu;
	if ( *telefon == '+' )
    56b6:	80 81       	ld	r24, Z
    56b8:	8b 32       	cpi	r24, 0x2B	; 43
    56ba:	99 f4       	brne	.+38     	; 0x56e2 <wpisz_telefon_w_formacie_sms+0x34>
	{
		++telefon;
    56bc:	31 96       	adiw	r30, 0x01	; 1
		typ_telefonu = 145;
    56be:	81 e9       	ldi	r24, 0x91	; 145
	}
	else
		typ_telefonu = 129;
	const uchar liczba_cyfr_telefonu = strlen(telefon);
    56c0:	ef 01       	movw	r28, r30
    56c2:	09 90       	ld	r0, Y+
    56c4:	00 20       	and	r0, r0
    56c6:	e9 f7       	brne	.-6      	; 0x56c2 <wpisz_telefon_w_formacie_sms+0x14>
    56c8:	9e 01       	movw	r18, r28
    56ca:	21 50       	subi	r18, 0x01	; 1
    56cc:	31 09       	sbc	r19, r1
    56ce:	2e 1b       	sub	r18, r30
    56d0:	3f 0b       	sbc	r19, r31
	if ( liczba_cyfr_telefonu == 0 )
    56d2:	21 11       	cpse	r18, r1
    56d4:	08 c0       	rjmp	.+16     	; 0x56e6 <wpisz_telefon_w_formacie_sms+0x38>
	{
		*ptr++ = liczba_cyfr_telefonu;
    56d6:	cd 01       	movw	r24, r26
    56d8:	01 96       	adiw	r24, 0x01	; 1
    56da:	1c 92       	st	X, r1
		else
			ch |= 0xf0;
		*ptr++ = ch;
	}
	return ptr;
}
    56dc:	df 91       	pop	r29
    56de:	cf 91       	pop	r28
    56e0:	08 95       	ret
		typ_telefonu = 129;
    56e2:	81 e8       	ldi	r24, 0x81	; 129
    56e4:	ed cf       	rjmp	.-38     	; 0x56c0 <wpisz_telefon_w_formacie_sms+0x12>
	*ptr++ = liczba_cyfr_telefonu;
    56e6:	2c 93       	st	X, r18
	*ptr++ = typ_telefonu;
    56e8:	ad 01       	movw	r20, r26
    56ea:	4e 5f       	subi	r20, 0xFE	; 254
    56ec:	5f 4f       	sbci	r21, 0xFF	; 255
    56ee:	11 96       	adiw	r26, 0x01	; 1
    56f0:	8c 93       	st	X, r24
	const uchar k = (liczba_cyfr_telefonu + 1) / 2;
    56f2:	c9 01       	movw	r24, r18
    56f4:	99 27       	eor	r25, r25
    56f6:	01 96       	adiw	r24, 0x01	; 1
    56f8:	95 95       	asr	r25
    56fa:	87 95       	ror	r24
    56fc:	68 2f       	mov	r22, r24
    56fe:	74 2f       	mov	r23, r20
	for (uchar i = 0; i < k; ++i)
    5700:	da 01       	movw	r26, r20
    5702:	2a 2f       	mov	r18, r26
    5704:	27 1b       	sub	r18, r23
    5706:	26 17       	cp	r18, r22
    5708:	18 f0       	brcs	.+6      	; 0x5710 <wpisz_telefon_w_formacie_sms+0x62>
    570a:	84 0f       	add	r24, r20
    570c:	95 1f       	adc	r25, r21
    570e:	e6 cf       	rjmp	.-52     	; 0x56dc <wpisz_telefon_w_formacie_sms+0x2e>
		uchar ch = (*telefon++ - '0');
    5710:	20 81       	ld	r18, Z
    5712:	20 53       	subi	r18, 0x30	; 48
		if ( *telefon != '\0' )
    5714:	31 81       	ldd	r19, Z+1	; 0x01
    5716:	33 23       	and	r19, r19
    5718:	31 f0       	breq	.+12     	; 0x5726 <wpisz_telefon_w_formacie_sms+0x78>
			ch |= (*telefon++ - '0') << 4;
    571a:	32 96       	adiw	r30, 0x02	; 2
    571c:	32 95       	swap	r19
    571e:	30 7f       	andi	r19, 0xF0	; 240
    5720:	23 2b       	or	r18, r19
		*ptr++ = ch;
    5722:	2d 93       	st	X+, r18
    5724:	ee cf       	rjmp	.-36     	; 0x5702 <wpisz_telefon_w_formacie_sms+0x54>
		uchar ch = (*telefon++ - '0');
    5726:	31 96       	adiw	r30, 0x01	; 1
			ch |= 0xf0;
    5728:	20 6f       	ori	r18, 0xF0	; 240
    572a:	fb cf       	rjmp	.-10     	; 0x5722 <wpisz_telefon_w_formacie_sms+0x74>

0000572c <wpisz_centrum_sms_w_formacie_sms>:

uchar* wpisz_centrum_sms_w_formacie_sms(uchar* ptr, const uchar* telefon)
{
    572c:	cf 93       	push	r28
    572e:	df 93       	push	r29
    5730:	ec 01       	movw	r28, r24
    5732:	db 01       	movw	r26, r22
	if ( *telefon == '\0' )
    5734:	8c 91       	ld	r24, X
    5736:	81 11       	cpse	r24, r1
    5738:	06 c0       	rjmp	.+12     	; 0x5746 <wpisz_centrum_sms_w_formacie_sms+0x1a>
	{
		*ptr++ = 0x00;
    573a:	ce 01       	movw	r24, r28
    573c:	01 96       	adiw	r24, 0x01	; 1
    573e:	18 82       	st	Y, r1
		else
			ch |= 0xf0;
		*ptr++ = ch;
	}
	return ptr;
}
    5740:	df 91       	pop	r29
    5742:	cf 91       	pop	r28
    5744:	08 95       	ret
	if ( *telefon == '+' )
    5746:	8b 32       	cpi	r24, 0x2B	; 43
    5748:	09 f5       	brne	.+66     	; 0x578c <wpisz_centrum_sms_w_formacie_sms+0x60>
		++telefon;
    574a:	11 96       	adiw	r26, 0x01	; 1
		typ_telefonu = 145;
    574c:	81 e9       	ldi	r24, 0x91	; 145
	const uchar liczba_cyfr_telefonu = strlen(telefon);
    574e:	fd 01       	movw	r30, r26
    5750:	01 90       	ld	r0, Z+
    5752:	00 20       	and	r0, r0
    5754:	e9 f7       	brne	.-6      	; 0x5750 <wpisz_centrum_sms_w_formacie_sms+0x24>
    5756:	31 97       	sbiw	r30, 0x01	; 1
    5758:	9f 01       	movw	r18, r30
    575a:	2a 1b       	sub	r18, r26
    575c:	3b 0b       	sbc	r19, r27
	*ptr++ = (liczba_cyfr_telefonu + 1) / 2 + 1;
    575e:	33 27       	eor	r19, r19
    5760:	2f 5f       	subi	r18, 0xFF	; 255
    5762:	3f 4f       	sbci	r19, 0xFF	; 255
    5764:	35 95       	asr	r19
    5766:	27 95       	ror	r18
    5768:	62 2f       	mov	r22, r18
    576a:	91 e0       	ldi	r25, 0x01	; 1
    576c:	92 0f       	add	r25, r18
    576e:	98 83       	st	Y, r25
	*ptr++ = typ_telefonu;
    5770:	ae 01       	movw	r20, r28
    5772:	4e 5f       	subi	r20, 0xFE	; 254
    5774:	5f 4f       	sbci	r21, 0xFF	; 255
    5776:	89 83       	std	Y+1, r24	; 0x01
    5778:	74 2f       	mov	r23, r20
	for (uchar i = 0; i < k; ++i)
    577a:	fa 01       	movw	r30, r20
    577c:	8e 2f       	mov	r24, r30
    577e:	87 1b       	sub	r24, r23
    5780:	86 17       	cp	r24, r22
    5782:	30 f0       	brcs	.+12     	; 0x5790 <wpisz_centrum_sms_w_formacie_sms+0x64>
    5784:	ca 01       	movw	r24, r20
    5786:	82 0f       	add	r24, r18
    5788:	93 1f       	adc	r25, r19
    578a:	da cf       	rjmp	.-76     	; 0x5740 <wpisz_centrum_sms_w_formacie_sms+0x14>
		typ_telefonu = 129;
    578c:	81 e8       	ldi	r24, 0x81	; 129
    578e:	df cf       	rjmp	.-66     	; 0x574e <wpisz_centrum_sms_w_formacie_sms+0x22>
		uchar ch = (*telefon++ - '0');
    5790:	8c 91       	ld	r24, X
    5792:	80 53       	subi	r24, 0x30	; 48
		if ( *telefon != '\0' )
    5794:	11 96       	adiw	r26, 0x01	; 1
    5796:	9c 91       	ld	r25, X
    5798:	11 97       	sbiw	r26, 0x01	; 1
    579a:	99 23       	and	r25, r25
    579c:	31 f0       	breq	.+12     	; 0x57aa <wpisz_centrum_sms_w_formacie_sms+0x7e>
			ch |= (*telefon++ - '0') << 4;
    579e:	12 96       	adiw	r26, 0x02	; 2
    57a0:	92 95       	swap	r25
    57a2:	90 7f       	andi	r25, 0xF0	; 240
    57a4:	89 2b       	or	r24, r25
		*ptr++ = ch;
    57a6:	81 93       	st	Z+, r24
    57a8:	e9 cf       	rjmp	.-46     	; 0x577c <wpisz_centrum_sms_w_formacie_sms+0x50>
		uchar ch = (*telefon++ - '0');
    57aa:	11 96       	adiw	r26, 0x01	; 1
			ch |= 0xf0;
    57ac:	80 6f       	ori	r24, 0xF0	; 240
    57ae:	fb cf       	rjmp	.-10     	; 0x57a6 <wpisz_centrum_sms_w_formacie_sms+0x7a>

000057b0 <zapisz_naglowek_pdu>:

uchar* zapisz_naglowek_pdu(uchar* ptr, const uchar* telefon_odbiorcy, 
	const uchar* telefon_centrum_sms, const uchar TP_PID, const uchar TP_DCS)
{
    57b0:	ef 92       	push	r14
    57b2:	ff 92       	push	r15
    57b4:	0f 93       	push	r16
    57b6:	cf 93       	push	r28
    57b8:	7b 01       	movw	r14, r22
    57ba:	c2 2f       	mov	r28, r18
	ptr = wpisz_centrum_sms_w_formacie_sms(ptr, telefon_centrum_sms);
    57bc:	ba 01       	movw	r22, r20
    57be:	0e 94 96 2b 	call	0x572c	; 0x572c <wpisz_centrum_sms_w_formacie_sms>
	*ptr++ = 0x11;
    57c2:	21 e1       	ldi	r18, 0x11	; 17
    57c4:	fc 01       	movw	r30, r24
    57c6:	20 83       	st	Z, r18
	*ptr++ = 0x00;
    57c8:	11 82       	std	Z+1, r1	; 0x01
	ptr = wpisz_telefon_w_formacie_sms(ptr, telefon_odbiorcy);
    57ca:	b7 01       	movw	r22, r14
    57cc:	02 96       	adiw	r24, 0x02	; 2
    57ce:	0e 94 57 2b 	call	0x56ae	; 0x56ae <wpisz_telefon_w_formacie_sms>
	*ptr++ = TP_PID;	// TP-PID. Protocol identifier 
    57d2:	fc 01       	movw	r30, r24
    57d4:	c0 83       	st	Z, r28
	*ptr++ = TP_DCS;	// TP-DCS. Data coding scheme (7-bit, 8-bit, UCS2)
    57d6:	01 83       	std	Z+1, r16	; 0x01
	*ptr++ = 0xAA;	// TP-Validity-Period. "AA" means 4 days
    57d8:	2a ea       	ldi	r18, 0xAA	; 170
    57da:	22 83       	std	Z+2, r18	; 0x02
	return ptr;
}
    57dc:	03 96       	adiw	r24, 0x03	; 3
    57de:	cf 91       	pop	r28
    57e0:	0f 91       	pop	r16
    57e2:	ff 90       	pop	r15
    57e4:	ef 90       	pop	r14
    57e6:	08 95       	ret

000057e8 <konwertuj_pdu_na_blok_wysylany>:

void konwertuj_pdu_na_blok_wysylany(uchar* buf, const uchar* pdu_ptr, 
	const uchar dlugosc_pdu)
{
    57e8:	cf 93       	push	r28
    57ea:	df 93       	push	r29
    57ec:	1f 92       	push	r1
    57ee:	cd b7       	in	r28, 0x3d	; 61
    57f0:	de b7       	in	r29, 0x3e	; 62
    57f2:	9c 01       	movw	r18, r24
    57f4:	56 2f       	mov	r21, r22
	static const char znak_wartosc_heksadecymalna[] PROGMEM = "0123456789ABCDEF";
	for (uchar i = 0; i < dlugosc_pdu; ++i)
    57f6:	db 01       	movw	r26, r22
    57f8:	8a 2f       	mov	r24, r26
    57fa:	85 1b       	sub	r24, r21
    57fc:	84 17       	cp	r24, r20
    57fe:	20 f0       	brcs	.+8      	; 0x5808 <konwertuj_pdu_na_blok_wysylany+0x20>
		volatile uchar pom = znak & 0xf0;	// bardzo wane jst sowo volatile, bo kompilator le generuje kod!!
		SWAP(pom);
		*buf++ = pgm_read_byte(znak_wartosc_heksadecymalna + pom);
		*buf++ = pgm_read_byte(znak_wartosc_heksadecymalna + (znak & 0x0f));
	}
}
    5800:	0f 90       	pop	r0
    5802:	df 91       	pop	r29
    5804:	cf 91       	pop	r28
    5806:	08 95       	ret
		uchar znak = *pdu_ptr++;
    5808:	9d 91       	ld	r25, X+
		volatile uchar pom = znak & 0xf0;	// bardzo wane jst sowo volatile, bo kompilator le generuje kod!!
    580a:	89 2f       	mov	r24, r25
    580c:	80 7f       	andi	r24, 0xF0	; 240
    580e:	89 83       	std	Y+1, r24	; 0x01
		SWAP(pom);
    5810:	82 95       	swap	r24
    5812:	89 83       	std	Y+1, r24	; 0x01
		*buf++ = pgm_read_byte(znak_wartosc_heksadecymalna + pom);
    5814:	e9 81       	ldd	r30, Y+1	; 0x01
    5816:	f0 e0       	ldi	r31, 0x00	; 0
    5818:	ef 56       	subi	r30, 0x6F	; 111
    581a:	fb 4f       	sbci	r31, 0xFB	; 251
    581c:	84 91       	lpm	r24, Z
    581e:	f9 01       	movw	r30, r18
    5820:	80 83       	st	Z, r24
		*buf++ = pgm_read_byte(znak_wartosc_heksadecymalna + (znak & 0x0f));
    5822:	9f 70       	andi	r25, 0x0F	; 15
    5824:	e9 2f       	mov	r30, r25
    5826:	f0 e0       	ldi	r31, 0x00	; 0
    5828:	ef 56       	subi	r30, 0x6F	; 111
    582a:	fb 4f       	sbci	r31, 0xFB	; 251
    582c:	84 91       	lpm	r24, Z
    582e:	f9 01       	movw	r30, r18
    5830:	81 83       	std	Z+1, r24	; 0x01
    5832:	2e 5f       	subi	r18, 0xFE	; 254
    5834:	3f 4f       	sbci	r19, 0xFF	; 255
    5836:	e0 cf       	rjmp	.-64     	; 0x57f8 <konwertuj_pdu_na_blok_wysylany+0x10>

00005838 <main>:
    5838:	88 e1       	ldi	r24, 0x18	; 24
    583a:	9b e0       	ldi	r25, 0x0B	; 11
    583c:	0f b6       	in	r0, 0x3f	; 63
    583e:	f8 94       	cli
    5840:	a8 95       	wdr
    5842:	80 93 60 00 	sts	0x0060, r24	; 0x800060 <__TEXT_REGION_LENGTH__+0x7e0060>
    5846:	0f be       	out	0x3f, r0	; 63
    5848:	90 93 60 00 	sts	0x0060, r25	; 0x800060 <__TEXT_REGION_LENGTH__+0x7e0060>
int main(void) {
  // POMOC_DODAJ2('*', 'u');
  { // inicjalizacja
#ifndef DEBUG
    wdt_enable(WDTO_120MS);
    opoznienie_startowe();
    584c:	0e 94 7e 03 	call	0x6fc	; 0x6fc <opoznienie_startowe>
    opoznienie_startowe();
    5850:	0e 94 7e 03 	call	0x6fc	; 0x6fc <opoznienie_startowe>
    opoznienie_startowe();
    5854:	0e 94 7e 03 	call	0x6fc	; 0x6fc <opoznienie_startowe>
    opoznienie_startowe();
    5858:	0e 94 7e 03 	call	0x6fc	; 0x6fc <opoznienie_startowe>
#endif
    inicjalizacja_portow();
    585c:	81 e0       	ldi	r24, 0x01	; 1
    585e:	87 b9       	out	0x07, r24	; 7
    5860:	88 b9       	out	0x08, r24	; 8
    5862:	80 e2       	ldi	r24, 0x20	; 32
    5864:	8a b9       	out	0x0a, r24	; 10
    inicjalizuj_parametry_modulu();
    5866:	0e 94 95 18 	call	0x312a	; 0x312a <inicjalizuj_parametry_modulu>
    inicjalizacja_SIM900();
    586a:	0e 94 c7 1f 	call	0x3f8e	; 0x3f8e <inicjalizacja_SIM900>
#ifdef DEBUG
    debug_main();
#endif
    ustaw_parametry_dla_bezpieczenstwa();
    586e:	0e 94 85 18 	call	0x310a	; 0x310a <ustaw_parametry_dla_bezpieczenstwa>
  }

  sei();
    5872:	78 94       	sei

  for (;;) {
    // wykonanie watkw moe trwa maksymalnie 10 ms
    if (CZY_WYKONAC_WATKI_10MS())
    5874:	80 91 e9 01 	lds	r24, 0x01E9	; 0x8001e9 <wykonac_watki>
    5878:	80 fd       	sbrc	r24, 0
      ustaw_parametry_dla_bezpieczenstwa();
    587a:	0e 94 85 18 	call	0x310a	; 0x310a <ustaw_parametry_dla_bezpieczenstwa>
    if (CZY_WYKONAC_WATKI_100MS()) {
    587e:	80 91 e9 01 	lds	r24, 0x01E9	; 0x8001e9 <wykonac_watki>
    5882:	81 fd       	sbrc	r24, 1
      steruj_urzadzeniem_100MS();
    5884:	0e 94 fa 16 	call	0x2df4	; 0x2df4 <steruj_urzadzeniem_100MS>
#ifdef TEST_PCB
      testPCB();
#endif
    }
    if (CZY_WYKONAC_WATKI_10MS()) {
    5888:	80 91 e9 01 	lds	r24, 0x01E9	; 0x8001e9 <wykonac_watki>
    588c:	80 ff       	sbrs	r24, 0
    588e:	06 c0       	rjmp	.+12     	; 0x589c <main+0x64>
      steruj_urzadzeniem_10MS();
    5890:	0e 94 10 18 	call	0x3020	; 0x3020 <steruj_urzadzeniem_10MS>
      wykonanie_komend();
    5894:	0e 94 07 1d 	call	0x3a0e	; 0x3a0e <wykonanie_komend>

      RESETUJ_WYKONANIE_WATKOW();
    5898:	10 92 e9 01 	sts	0x01E9, r1	; 0x8001e9 <wykonac_watki>
    }

    { // tryb SLEEP
      cli();
    589c:	f8 94       	cli
      if (!wykonaj_zdarzenie_timer) {
    589e:	80 91 eb 01 	lds	r24, 0x01EB	; 0x8001eb <wykonaj_zdarzenie_timer>
    58a2:	81 11       	cpse	r24, r1
    58a4:	09 c0       	rjmp	.+18     	; 0x58b8 <main+0x80>
        sleep_enable();
    58a6:	83 b7       	in	r24, 0x33	; 51
    58a8:	81 60       	ori	r24, 0x01	; 1
    58aa:	83 bf       	out	0x33, r24	; 51
        sei();
    58ac:	78 94       	sei
        sleep_cpu();
    58ae:	88 95       	sleep
        cli();
    58b0:	f8 94       	cli
        sleep_disable();
    58b2:	83 b7       	in	r24, 0x33	; 51
    58b4:	8e 7f       	andi	r24, 0xFE	; 254
    58b6:	83 bf       	out	0x33, r24	; 51
      }
      sei();
    58b8:	78 94       	sei
      wolne_zdarzenie_timer();
    58ba:	0e 94 16 18 	call	0x302c	; 0x302c <wolne_zdarzenie_timer>
    if (CZY_WYKONAC_WATKI_10MS())
    58be:	da cf       	rjmp	.-76     	; 0x5874 <main+0x3c>

000058c0 <__divmodhi4>:
    58c0:	97 fb       	bst	r25, 7
    58c2:	07 2e       	mov	r0, r23
    58c4:	16 f4       	brtc	.+4      	; 0x58ca <__divmodhi4+0xa>
    58c6:	00 94       	com	r0
    58c8:	07 d0       	rcall	.+14     	; 0x58d8 <__divmodhi4_neg1>
    58ca:	77 fd       	sbrc	r23, 7
    58cc:	09 d0       	rcall	.+18     	; 0x58e0 <__divmodhi4_neg2>
    58ce:	0e 94 7d 2c 	call	0x58fa	; 0x58fa <__udivmodhi4>
    58d2:	07 fc       	sbrc	r0, 7
    58d4:	05 d0       	rcall	.+10     	; 0x58e0 <__divmodhi4_neg2>
    58d6:	3e f4       	brtc	.+14     	; 0x58e6 <__divmodhi4_exit>

000058d8 <__divmodhi4_neg1>:
    58d8:	90 95       	com	r25
    58da:	81 95       	neg	r24
    58dc:	9f 4f       	sbci	r25, 0xFF	; 255
    58de:	08 95       	ret

000058e0 <__divmodhi4_neg2>:
    58e0:	70 95       	com	r23
    58e2:	61 95       	neg	r22
    58e4:	7f 4f       	sbci	r23, 0xFF	; 255

000058e6 <__divmodhi4_exit>:
    58e6:	08 95       	ret

000058e8 <__tablejump2__>:
    58e8:	ee 0f       	add	r30, r30
    58ea:	ff 1f       	adc	r31, r31
    58ec:	00 24       	eor	r0, r0
    58ee:	00 1c       	adc	r0, r0
    58f0:	0b be       	out	0x3b, r0	; 59
    58f2:	07 90       	elpm	r0, Z+
    58f4:	f6 91       	elpm	r31, Z
    58f6:	e0 2d       	mov	r30, r0
    58f8:	09 94       	ijmp

000058fa <__udivmodhi4>:
    58fa:	aa 1b       	sub	r26, r26
    58fc:	bb 1b       	sub	r27, r27
    58fe:	51 e1       	ldi	r21, 0x11	; 17
    5900:	07 c0       	rjmp	.+14     	; 0x5910 <__udivmodhi4_ep>

00005902 <__udivmodhi4_loop>:
    5902:	aa 1f       	adc	r26, r26
    5904:	bb 1f       	adc	r27, r27
    5906:	a6 17       	cp	r26, r22
    5908:	b7 07       	cpc	r27, r23
    590a:	10 f0       	brcs	.+4      	; 0x5910 <__udivmodhi4_ep>
    590c:	a6 1b       	sub	r26, r22
    590e:	b7 0b       	sbc	r27, r23

00005910 <__udivmodhi4_ep>:
    5910:	88 1f       	adc	r24, r24
    5912:	99 1f       	adc	r25, r25
    5914:	5a 95       	dec	r21
    5916:	a9 f7       	brne	.-22     	; 0x5902 <__udivmodhi4_loop>
    5918:	80 95       	com	r24
    591a:	90 95       	com	r25
    591c:	bc 01       	movw	r22, r24
    591e:	cd 01       	movw	r24, r26
    5920:	08 95       	ret

00005922 <strtol>:
    5922:	3f 92       	push	r3
    5924:	4f 92       	push	r4
    5926:	5f 92       	push	r5
    5928:	6f 92       	push	r6
    592a:	7f 92       	push	r7
    592c:	8f 92       	push	r8
    592e:	9f 92       	push	r9
    5930:	af 92       	push	r10
    5932:	bf 92       	push	r11
    5934:	cf 92       	push	r12
    5936:	df 92       	push	r13
    5938:	ef 92       	push	r14
    593a:	ff 92       	push	r15
    593c:	0f 93       	push	r16
    593e:	1f 93       	push	r17
    5940:	cf 93       	push	r28
    5942:	df 93       	push	r29
    5944:	5c 01       	movw	r10, r24
    5946:	6b 01       	movw	r12, r22
    5948:	7a 01       	movw	r14, r20
    594a:	61 15       	cp	r22, r1
    594c:	71 05       	cpc	r23, r1
    594e:	19 f0       	breq	.+6      	; 0x5956 <strtol+0x34>
    5950:	fb 01       	movw	r30, r22
    5952:	91 83       	std	Z+1, r25	; 0x01
    5954:	80 83       	st	Z, r24
    5956:	e1 14       	cp	r14, r1
    5958:	f1 04       	cpc	r15, r1
    595a:	51 f0       	breq	.+20     	; 0x5970 <strtol+0x4e>
    595c:	c7 01       	movw	r24, r14
    595e:	02 97       	sbiw	r24, 0x02	; 2
    5960:	83 97       	sbiw	r24, 0x23	; 35
    5962:	30 f0       	brcs	.+12     	; 0x5970 <strtol+0x4e>
    5964:	40 e0       	ldi	r20, 0x00	; 0
    5966:	30 e0       	ldi	r19, 0x00	; 0
    5968:	20 e0       	ldi	r18, 0x00	; 0
    596a:	90 e0       	ldi	r25, 0x00	; 0
    596c:	6b c0       	rjmp	.+214    	; 0x5a44 <strtol+0x122>
    596e:	5e 01       	movw	r10, r28
    5970:	e5 01       	movw	r28, r10
    5972:	21 96       	adiw	r28, 0x01	; 1
    5974:	f5 01       	movw	r30, r10
    5976:	10 81       	ld	r17, Z
    5978:	81 2f       	mov	r24, r17
    597a:	90 e0       	ldi	r25, 0x00	; 0
    597c:	0e 94 c2 2e 	call	0x5d84	; 0x5d84 <isspace>
    5980:	89 2b       	or	r24, r25
    5982:	a9 f7       	brne	.-22     	; 0x596e <strtol+0x4c>
    5984:	1d 32       	cpi	r17, 0x2D	; 45
    5986:	01 f5       	brne	.+64     	; 0x59c8 <strtol+0xa6>
    5988:	21 96       	adiw	r28, 0x01	; 1
    598a:	f5 01       	movw	r30, r10
    598c:	11 81       	ldd	r17, Z+1	; 0x01
    598e:	01 e0       	ldi	r16, 0x01	; 1
    5990:	e1 14       	cp	r14, r1
    5992:	f1 04       	cpc	r15, r1
    5994:	09 f4       	brne	.+2      	; 0x5998 <strtol+0x76>
    5996:	e6 c0       	rjmp	.+460    	; 0x5b64 <strtol+0x242>
    5998:	f0 e1       	ldi	r31, 0x10	; 16
    599a:	ef 16       	cp	r14, r31
    599c:	f1 04       	cpc	r15, r1
    599e:	09 f0       	breq	.+2      	; 0x59a2 <strtol+0x80>
    59a0:	88 c0       	rjmp	.+272    	; 0x5ab2 <strtol+0x190>
    59a2:	10 33       	cpi	r17, 0x30	; 48
    59a4:	59 f4       	brne	.+22     	; 0x59bc <strtol+0x9a>
    59a6:	88 81       	ld	r24, Y
    59a8:	8f 7d       	andi	r24, 0xDF	; 223
    59aa:	88 35       	cpi	r24, 0x58	; 88
    59ac:	09 f0       	breq	.+2      	; 0x59b0 <strtol+0x8e>
    59ae:	7c c0       	rjmp	.+248    	; 0x5aa8 <strtol+0x186>
    59b0:	19 81       	ldd	r17, Y+1	; 0x01
    59b2:	22 96       	adiw	r28, 0x02	; 2
    59b4:	02 60       	ori	r16, 0x02	; 2
    59b6:	f0 e1       	ldi	r31, 0x10	; 16
    59b8:	ef 2e       	mov	r14, r31
    59ba:	f1 2c       	mov	r15, r1
    59bc:	81 2c       	mov	r8, r1
    59be:	91 2c       	mov	r9, r1
    59c0:	a1 2c       	mov	r10, r1
    59c2:	88 e0       	ldi	r24, 0x08	; 8
    59c4:	b8 2e       	mov	r11, r24
    59c6:	92 c0       	rjmp	.+292    	; 0x5aec <strtol+0x1ca>
    59c8:	1b 32       	cpi	r17, 0x2B	; 43
    59ca:	21 f4       	brne	.+8      	; 0x59d4 <strtol+0xb2>
    59cc:	e5 01       	movw	r28, r10
    59ce:	22 96       	adiw	r28, 0x02	; 2
    59d0:	f5 01       	movw	r30, r10
    59d2:	11 81       	ldd	r17, Z+1	; 0x01
    59d4:	00 e0       	ldi	r16, 0x00	; 0
    59d6:	dc cf       	rjmp	.-72     	; 0x5990 <strtol+0x6e>
    59d8:	ea e0       	ldi	r30, 0x0A	; 10
    59da:	ee 16       	cp	r14, r30
    59dc:	f1 04       	cpc	r15, r1
    59de:	09 f4       	brne	.+2      	; 0x59e2 <strtol+0xc0>
    59e0:	c7 c0       	rjmp	.+398    	; 0x5b70 <strtol+0x24e>
    59e2:	f0 e1       	ldi	r31, 0x10	; 16
    59e4:	ef 16       	cp	r14, r31
    59e6:	f1 04       	cpc	r15, r1
    59e8:	09 f0       	breq	.+2      	; 0x59ec <strtol+0xca>
    59ea:	73 c0       	rjmp	.+230    	; 0x5ad2 <strtol+0x1b0>
    59ec:	e7 cf       	rjmp	.-50     	; 0x59bc <strtol+0x9a>
    59ee:	78 e0       	ldi	r23, 0x08	; 8
    59f0:	e7 2e       	mov	r14, r23
    59f2:	f1 2c       	mov	r15, r1
    59f4:	81 2c       	mov	r8, r1
    59f6:	91 2c       	mov	r9, r1
    59f8:	a1 2c       	mov	r10, r1
    59fa:	60 e1       	ldi	r22, 0x10	; 16
    59fc:	b6 2e       	mov	r11, r22
    59fe:	76 c0       	rjmp	.+236    	; 0x5aec <strtol+0x1ca>
    5a00:	21 e0       	ldi	r18, 0x01	; 1
    5a02:	ad c0       	rjmp	.+346    	; 0x5b5e <strtol+0x23c>
    5a04:	30 2f       	mov	r19, r16
    5a06:	31 70       	andi	r19, 0x01	; 1
    5a08:	c1 14       	cp	r12, r1
    5a0a:	d1 04       	cpc	r13, r1
    5a0c:	31 f0       	breq	.+12     	; 0x5a1a <strtol+0xf8>
    5a0e:	22 23       	and	r18, r18
    5a10:	71 f1       	breq	.+92     	; 0x5a6e <strtol+0x14c>
    5a12:	21 97       	sbiw	r28, 0x01	; 1
    5a14:	f6 01       	movw	r30, r12
    5a16:	d1 83       	std	Z+1, r29	; 0x01
    5a18:	c0 83       	st	Z, r28
    5a1a:	27 ff       	sbrs	r18, 7
    5a1c:	2e c0       	rjmp	.+92     	; 0x5a7a <strtol+0x158>
    5a1e:	60 e0       	ldi	r22, 0x00	; 0
    5a20:	70 e0       	ldi	r23, 0x00	; 0
    5a22:	80 e0       	ldi	r24, 0x00	; 0
    5a24:	90 e8       	ldi	r25, 0x80	; 128
    5a26:	31 11       	cpse	r19, r1
    5a28:	04 c0       	rjmp	.+8      	; 0x5a32 <strtol+0x110>
    5a2a:	6f ef       	ldi	r22, 0xFF	; 255
    5a2c:	7f ef       	ldi	r23, 0xFF	; 255
    5a2e:	8f ef       	ldi	r24, 0xFF	; 255
    5a30:	9f e7       	ldi	r25, 0x7F	; 127
    5a32:	22 e2       	ldi	r18, 0x22	; 34
    5a34:	30 e0       	ldi	r19, 0x00	; 0
    5a36:	30 93 12 08 	sts	0x0812, r19	; 0x800812 <errno+0x1>
    5a3a:	20 93 11 08 	sts	0x0811, r18	; 0x800811 <errno>
    5a3e:	46 2f       	mov	r20, r22
    5a40:	37 2f       	mov	r19, r23
    5a42:	28 2f       	mov	r18, r24
    5a44:	64 2f       	mov	r22, r20
    5a46:	73 2f       	mov	r23, r19
    5a48:	82 2f       	mov	r24, r18
    5a4a:	df 91       	pop	r29
    5a4c:	cf 91       	pop	r28
    5a4e:	1f 91       	pop	r17
    5a50:	0f 91       	pop	r16
    5a52:	ff 90       	pop	r15
    5a54:	ef 90       	pop	r14
    5a56:	df 90       	pop	r13
    5a58:	cf 90       	pop	r12
    5a5a:	bf 90       	pop	r11
    5a5c:	af 90       	pop	r10
    5a5e:	9f 90       	pop	r9
    5a60:	8f 90       	pop	r8
    5a62:	7f 90       	pop	r7
    5a64:	6f 90       	pop	r6
    5a66:	5f 90       	pop	r5
    5a68:	4f 90       	pop	r4
    5a6a:	3f 90       	pop	r3
    5a6c:	08 95       	ret
    5a6e:	01 ff       	sbrs	r16, 1
    5a70:	04 c0       	rjmp	.+8      	; 0x5a7a <strtol+0x158>
    5a72:	22 97       	sbiw	r28, 0x02	; 2
    5a74:	f6 01       	movw	r30, r12
    5a76:	d1 83       	std	Z+1, r29	; 0x01
    5a78:	c0 83       	st	Z, r28
    5a7a:	33 23       	and	r19, r19
    5a7c:	41 f0       	breq	.+16     	; 0x5a8e <strtol+0x16c>
    5a7e:	90 95       	com	r25
    5a80:	80 95       	com	r24
    5a82:	70 95       	com	r23
    5a84:	61 95       	neg	r22
    5a86:	7f 4f       	sbci	r23, 0xFF	; 255
    5a88:	8f 4f       	sbci	r24, 0xFF	; 255
    5a8a:	9f 4f       	sbci	r25, 0xFF	; 255
    5a8c:	d8 cf       	rjmp	.-80     	; 0x5a3e <strtol+0x11c>
    5a8e:	97 ff       	sbrs	r25, 7
    5a90:	d6 cf       	rjmp	.-84     	; 0x5a3e <strtol+0x11c>
    5a92:	82 e2       	ldi	r24, 0x22	; 34
    5a94:	90 e0       	ldi	r25, 0x00	; 0
    5a96:	90 93 12 08 	sts	0x0812, r25	; 0x800812 <errno+0x1>
    5a9a:	80 93 11 08 	sts	0x0811, r24	; 0x800811 <errno>
    5a9e:	6f ef       	ldi	r22, 0xFF	; 255
    5aa0:	7f ef       	ldi	r23, 0xFF	; 255
    5aa2:	8f ef       	ldi	r24, 0xFF	; 255
    5aa4:	9f e7       	ldi	r25, 0x7F	; 127
    5aa6:	cb cf       	rjmp	.-106    	; 0x5a3e <strtol+0x11c>
    5aa8:	10 e3       	ldi	r17, 0x30	; 48
    5aaa:	e1 14       	cp	r14, r1
    5aac:	f1 04       	cpc	r15, r1
    5aae:	09 f4       	brne	.+2      	; 0x5ab2 <strtol+0x190>
    5ab0:	9e cf       	rjmp	.-196    	; 0x59ee <strtol+0xcc>
    5ab2:	28 e0       	ldi	r18, 0x08	; 8
    5ab4:	e2 16       	cp	r14, r18
    5ab6:	f1 04       	cpc	r15, r1
    5ab8:	09 f4       	brne	.+2      	; 0x5abc <strtol+0x19a>
    5aba:	9c cf       	rjmp	.-200    	; 0x59f4 <strtol+0xd2>
    5abc:	0c f0       	brlt	.+2      	; 0x5ac0 <strtol+0x19e>
    5abe:	8c cf       	rjmp	.-232    	; 0x59d8 <strtol+0xb6>
    5ac0:	81 2c       	mov	r8, r1
    5ac2:	91 2c       	mov	r9, r1
    5ac4:	a1 2c       	mov	r10, r1
    5ac6:	e0 e4       	ldi	r30, 0x40	; 64
    5ac8:	be 2e       	mov	r11, r30
    5aca:	82 e0       	ldi	r24, 0x02	; 2
    5acc:	e8 16       	cp	r14, r24
    5ace:	f1 04       	cpc	r15, r1
    5ad0:	69 f0       	breq	.+26     	; 0x5aec <strtol+0x1ca>
    5ad2:	60 e0       	ldi	r22, 0x00	; 0
    5ad4:	70 e0       	ldi	r23, 0x00	; 0
    5ad6:	80 e0       	ldi	r24, 0x00	; 0
    5ad8:	90 e8       	ldi	r25, 0x80	; 128
    5ada:	97 01       	movw	r18, r14
    5adc:	0f 2c       	mov	r0, r15
    5ade:	00 0c       	add	r0, r0
    5ae0:	44 0b       	sbc	r20, r20
    5ae2:	55 0b       	sbc	r21, r21
    5ae4:	0e 94 b8 32 	call	0x6570	; 0x6570 <__udivmodsi4>
    5ae8:	49 01       	movw	r8, r18
    5aea:	5a 01       	movw	r10, r20
    5aec:	20 e0       	ldi	r18, 0x00	; 0
    5aee:	60 e0       	ldi	r22, 0x00	; 0
    5af0:	70 e0       	ldi	r23, 0x00	; 0
    5af2:	cb 01       	movw	r24, r22
    5af4:	27 01       	movw	r4, r14
    5af6:	0f 2c       	mov	r0, r15
    5af8:	00 0c       	add	r0, r0
    5afa:	66 08       	sbc	r6, r6
    5afc:	77 08       	sbc	r7, r7
    5afe:	fe 01       	movw	r30, r28
    5b00:	50 ed       	ldi	r21, 0xD0	; 208
    5b02:	35 2e       	mov	r3, r21
    5b04:	31 0e       	add	r3, r17
    5b06:	39 e0       	ldi	r19, 0x09	; 9
    5b08:	33 15       	cp	r19, r3
    5b0a:	70 f4       	brcc	.+28     	; 0x5b28 <strtol+0x206>
    5b0c:	3f eb       	ldi	r19, 0xBF	; 191
    5b0e:	31 0f       	add	r19, r17
    5b10:	49 ec       	ldi	r20, 0xC9	; 201
    5b12:	34 2e       	mov	r3, r20
    5b14:	3a 31       	cpi	r19, 0x1A	; 26
    5b16:	38 f0       	brcs	.+14     	; 0x5b26 <strtol+0x204>
    5b18:	3f e9       	ldi	r19, 0x9F	; 159
    5b1a:	31 0f       	add	r19, r17
    5b1c:	3a 31       	cpi	r19, 0x1A	; 26
    5b1e:	08 f0       	brcs	.+2      	; 0x5b22 <strtol+0x200>
    5b20:	71 cf       	rjmp	.-286    	; 0x5a04 <strtol+0xe2>
    5b22:	39 ea       	ldi	r19, 0xA9	; 169
    5b24:	33 2e       	mov	r3, r19
    5b26:	31 0e       	add	r3, r17
    5b28:	3e 14       	cp	r3, r14
    5b2a:	1f 04       	cpc	r1, r15
    5b2c:	0c f0       	brlt	.+2      	; 0x5b30 <strtol+0x20e>
    5b2e:	6a cf       	rjmp	.-300    	; 0x5a04 <strtol+0xe2>
    5b30:	27 fd       	sbrc	r18, 7
    5b32:	15 c0       	rjmp	.+42     	; 0x5b5e <strtol+0x23c>
    5b34:	86 16       	cp	r8, r22
    5b36:	97 06       	cpc	r9, r23
    5b38:	a8 06       	cpc	r10, r24
    5b3a:	b9 06       	cpc	r11, r25
    5b3c:	78 f0       	brcs	.+30     	; 0x5b5c <strtol+0x23a>
    5b3e:	a3 01       	movw	r20, r6
    5b40:	92 01       	movw	r18, r4
    5b42:	0e 94 a8 32 	call	0x6550	; 0x6550 <__mulsi3>
    5b46:	63 0d       	add	r22, r3
    5b48:	71 1d       	adc	r23, r1
    5b4a:	81 1d       	adc	r24, r1
    5b4c:	91 1d       	adc	r25, r1
    5b4e:	61 30       	cpi	r22, 0x01	; 1
    5b50:	71 05       	cpc	r23, r1
    5b52:	81 05       	cpc	r24, r1
    5b54:	20 e8       	ldi	r18, 0x80	; 128
    5b56:	92 07       	cpc	r25, r18
    5b58:	08 f4       	brcc	.+2      	; 0x5b5c <strtol+0x23a>
    5b5a:	52 cf       	rjmp	.-348    	; 0x5a00 <strtol+0xde>
    5b5c:	2f ef       	ldi	r18, 0xFF	; 255
    5b5e:	21 96       	adiw	r28, 0x01	; 1
    5b60:	10 81       	ld	r17, Z
    5b62:	cd cf       	rjmp	.-102    	; 0x5afe <strtol+0x1dc>
    5b64:	10 33       	cpi	r17, 0x30	; 48
    5b66:	09 f4       	brne	.+2      	; 0x5b6a <strtol+0x248>
    5b68:	1e cf       	rjmp	.-452    	; 0x59a6 <strtol+0x84>
    5b6a:	2a e0       	ldi	r18, 0x0A	; 10
    5b6c:	e2 2e       	mov	r14, r18
    5b6e:	f1 2c       	mov	r15, r1
    5b70:	9c ec       	ldi	r25, 0xCC	; 204
    5b72:	89 2e       	mov	r8, r25
    5b74:	98 2c       	mov	r9, r8
    5b76:	a8 2c       	mov	r10, r8
    5b78:	9c e0       	ldi	r25, 0x0C	; 12
    5b7a:	b9 2e       	mov	r11, r25
    5b7c:	b7 cf       	rjmp	.-146    	; 0x5aec <strtol+0x1ca>

00005b7e <strtoul>:
    5b7e:	3f 92       	push	r3
    5b80:	4f 92       	push	r4
    5b82:	5f 92       	push	r5
    5b84:	6f 92       	push	r6
    5b86:	7f 92       	push	r7
    5b88:	8f 92       	push	r8
    5b8a:	9f 92       	push	r9
    5b8c:	af 92       	push	r10
    5b8e:	bf 92       	push	r11
    5b90:	cf 92       	push	r12
    5b92:	df 92       	push	r13
    5b94:	ef 92       	push	r14
    5b96:	ff 92       	push	r15
    5b98:	0f 93       	push	r16
    5b9a:	1f 93       	push	r17
    5b9c:	cf 93       	push	r28
    5b9e:	df 93       	push	r29
    5ba0:	5c 01       	movw	r10, r24
    5ba2:	6b 01       	movw	r12, r22
    5ba4:	7a 01       	movw	r14, r20
    5ba6:	61 15       	cp	r22, r1
    5ba8:	71 05       	cpc	r23, r1
    5baa:	19 f0       	breq	.+6      	; 0x5bb2 <strtoul+0x34>
    5bac:	fb 01       	movw	r30, r22
    5bae:	91 83       	std	Z+1, r25	; 0x01
    5bb0:	80 83       	st	Z, r24
    5bb2:	e1 14       	cp	r14, r1
    5bb4:	f1 04       	cpc	r15, r1
    5bb6:	49 f0       	breq	.+18     	; 0x5bca <strtoul+0x4c>
    5bb8:	c7 01       	movw	r24, r14
    5bba:	02 97       	sbiw	r24, 0x02	; 2
    5bbc:	83 97       	sbiw	r24, 0x23	; 35
    5bbe:	28 f0       	brcs	.+10     	; 0x5bca <strtoul+0x4c>
    5bc0:	60 e0       	ldi	r22, 0x00	; 0
    5bc2:	70 e0       	ldi	r23, 0x00	; 0
    5bc4:	cb 01       	movw	r24, r22
    5bc6:	9b c0       	rjmp	.+310    	; 0x5cfe <strtoul+0x180>
    5bc8:	5e 01       	movw	r10, r28
    5bca:	e5 01       	movw	r28, r10
    5bcc:	21 96       	adiw	r28, 0x01	; 1
    5bce:	f5 01       	movw	r30, r10
    5bd0:	10 81       	ld	r17, Z
    5bd2:	81 2f       	mov	r24, r17
    5bd4:	90 e0       	ldi	r25, 0x00	; 0
    5bd6:	0e 94 c2 2e 	call	0x5d84	; 0x5d84 <isspace>
    5bda:	89 2b       	or	r24, r25
    5bdc:	a9 f7       	brne	.-22     	; 0x5bc8 <strtoul+0x4a>
    5bde:	1d 32       	cpi	r17, 0x2D	; 45
    5be0:	09 f0       	breq	.+2      	; 0x5be4 <strtoul+0x66>
    5be2:	5c c0       	rjmp	.+184    	; 0x5c9c <strtoul+0x11e>
    5be4:	21 96       	adiw	r28, 0x01	; 1
    5be6:	f5 01       	movw	r30, r10
    5be8:	11 81       	ldd	r17, Z+1	; 0x01
    5bea:	01 e0       	ldi	r16, 0x01	; 1
    5bec:	e1 14       	cp	r14, r1
    5bee:	f1 04       	cpc	r15, r1
    5bf0:	09 f4       	brne	.+2      	; 0x5bf4 <strtoul+0x76>
    5bf2:	bb c0       	rjmp	.+374    	; 0x5d6a <strtoul+0x1ec>
    5bf4:	f0 e1       	ldi	r31, 0x10	; 16
    5bf6:	ef 16       	cp	r14, r31
    5bf8:	f1 04       	cpc	r15, r1
    5bfa:	09 f0       	breq	.+2      	; 0x5bfe <strtoul+0x80>
    5bfc:	9b c0       	rjmp	.+310    	; 0x5d34 <strtoul+0x1b6>
    5bfe:	10 33       	cpi	r17, 0x30	; 48
    5c00:	41 f4       	brne	.+16     	; 0x5c12 <strtoul+0x94>
    5c02:	88 81       	ld	r24, Y
    5c04:	8f 7d       	andi	r24, 0xDF	; 223
    5c06:	88 35       	cpi	r24, 0x58	; 88
    5c08:	09 f0       	breq	.+2      	; 0x5c0c <strtoul+0x8e>
    5c0a:	8f c0       	rjmp	.+286    	; 0x5d2a <strtoul+0x1ac>
    5c0c:	19 81       	ldd	r17, Y+1	; 0x01
    5c0e:	22 96       	adiw	r28, 0x02	; 2
    5c10:	02 60       	ori	r16, 0x02	; 2
    5c12:	e0 e1       	ldi	r30, 0x10	; 16
    5c14:	ee 2e       	mov	r14, r30
    5c16:	f1 2c       	mov	r15, r1
    5c18:	88 24       	eor	r8, r8
    5c1a:	8a 94       	dec	r8
    5c1c:	98 2c       	mov	r9, r8
    5c1e:	a8 2c       	mov	r10, r8
    5c20:	ff e0       	ldi	r31, 0x0F	; 15
    5c22:	bf 2e       	mov	r11, r31
    5c24:	20 e0       	ldi	r18, 0x00	; 0
    5c26:	60 e0       	ldi	r22, 0x00	; 0
    5c28:	70 e0       	ldi	r23, 0x00	; 0
    5c2a:	cb 01       	movw	r24, r22
    5c2c:	27 01       	movw	r4, r14
    5c2e:	0f 2c       	mov	r0, r15
    5c30:	00 0c       	add	r0, r0
    5c32:	66 08       	sbc	r6, r6
    5c34:	77 08       	sbc	r7, r7
    5c36:	fe 01       	movw	r30, r28
    5c38:	50 ed       	ldi	r21, 0xD0	; 208
    5c3a:	35 2e       	mov	r3, r21
    5c3c:	31 0e       	add	r3, r17
    5c3e:	39 e0       	ldi	r19, 0x09	; 9
    5c40:	33 15       	cp	r19, r3
    5c42:	68 f4       	brcc	.+26     	; 0x5c5e <strtoul+0xe0>
    5c44:	3f eb       	ldi	r19, 0xBF	; 191
    5c46:	31 0f       	add	r19, r17
    5c48:	49 ec       	ldi	r20, 0xC9	; 201
    5c4a:	34 2e       	mov	r3, r20
    5c4c:	3a 31       	cpi	r19, 0x1A	; 26
    5c4e:	30 f0       	brcs	.+12     	; 0x5c5c <strtoul+0xde>
    5c50:	3f e9       	ldi	r19, 0x9F	; 159
    5c52:	31 0f       	add	r19, r17
    5c54:	3a 31       	cpi	r19, 0x1A	; 26
    5c56:	b0 f5       	brcc	.+108    	; 0x5cc4 <strtoul+0x146>
    5c58:	39 ea       	ldi	r19, 0xA9	; 169
    5c5a:	33 2e       	mov	r3, r19
    5c5c:	31 0e       	add	r3, r17
    5c5e:	3e 14       	cp	r3, r14
    5c60:	1f 04       	cpc	r1, r15
    5c62:	84 f5       	brge	.+96     	; 0x5cc4 <strtoul+0x146>
    5c64:	2f 3f       	cpi	r18, 0xFF	; 255
    5c66:	b9 f0       	breq	.+46     	; 0x5c96 <strtoul+0x118>
    5c68:	86 16       	cp	r8, r22
    5c6a:	97 06       	cpc	r9, r23
    5c6c:	a8 06       	cpc	r10, r24
    5c6e:	b9 06       	cpc	r11, r25
    5c70:	38 f1       	brcs	.+78     	; 0x5cc0 <strtoul+0x142>
    5c72:	a3 01       	movw	r20, r6
    5c74:	92 01       	movw	r18, r4
    5c76:	0e 94 a8 32 	call	0x6550	; 0x6550 <__mulsi3>
    5c7a:	23 2d       	mov	r18, r3
    5c7c:	30 e0       	ldi	r19, 0x00	; 0
    5c7e:	50 e0       	ldi	r21, 0x00	; 0
    5c80:	40 e0       	ldi	r20, 0x00	; 0
    5c82:	62 0f       	add	r22, r18
    5c84:	73 1f       	adc	r23, r19
    5c86:	84 1f       	adc	r24, r20
    5c88:	95 1f       	adc	r25, r21
    5c8a:	62 17       	cp	r22, r18
    5c8c:	73 07       	cpc	r23, r19
    5c8e:	84 07       	cpc	r24, r20
    5c90:	95 07       	cpc	r25, r21
    5c92:	b0 f0       	brcs	.+44     	; 0x5cc0 <strtoul+0x142>
    5c94:	21 e0       	ldi	r18, 0x01	; 1
    5c96:	21 96       	adiw	r28, 0x01	; 1
    5c98:	10 81       	ld	r17, Z
    5c9a:	cd cf       	rjmp	.-102    	; 0x5c36 <strtoul+0xb8>
    5c9c:	1b 32       	cpi	r17, 0x2B	; 43
    5c9e:	21 f4       	brne	.+8      	; 0x5ca8 <strtoul+0x12a>
    5ca0:	e5 01       	movw	r28, r10
    5ca2:	22 96       	adiw	r28, 0x02	; 2
    5ca4:	f5 01       	movw	r30, r10
    5ca6:	11 81       	ldd	r17, Z+1	; 0x01
    5ca8:	00 e0       	ldi	r16, 0x00	; 0
    5caa:	a0 cf       	rjmp	.-192    	; 0x5bec <strtoul+0x6e>
    5cac:	78 e0       	ldi	r23, 0x08	; 8
    5cae:	e7 2e       	mov	r14, r23
    5cb0:	f1 2c       	mov	r15, r1
    5cb2:	88 24       	eor	r8, r8
    5cb4:	8a 94       	dec	r8
    5cb6:	98 2c       	mov	r9, r8
    5cb8:	a8 2c       	mov	r10, r8
    5cba:	6f e1       	ldi	r22, 0x1F	; 31
    5cbc:	b6 2e       	mov	r11, r22
    5cbe:	b2 cf       	rjmp	.-156    	; 0x5c24 <strtoul+0xa6>
    5cc0:	2f ef       	ldi	r18, 0xFF	; 255
    5cc2:	e9 cf       	rjmp	.-46     	; 0x5c96 <strtoul+0x118>
    5cc4:	c1 14       	cp	r12, r1
    5cc6:	d1 04       	cpc	r13, r1
    5cc8:	31 f0       	breq	.+12     	; 0x5cd6 <strtoul+0x158>
    5cca:	22 23       	and	r18, r18
    5ccc:	51 f1       	breq	.+84     	; 0x5d22 <strtoul+0x1a4>
    5cce:	21 97       	sbiw	r28, 0x01	; 1
    5cd0:	f6 01       	movw	r30, r12
    5cd2:	d1 83       	std	Z+1, r29	; 0x01
    5cd4:	c0 83       	st	Z, r28
    5cd6:	00 ff       	sbrs	r16, 0
    5cd8:	07 c0       	rjmp	.+14     	; 0x5ce8 <strtoul+0x16a>
    5cda:	90 95       	com	r25
    5cdc:	80 95       	com	r24
    5cde:	70 95       	com	r23
    5ce0:	61 95       	neg	r22
    5ce2:	7f 4f       	sbci	r23, 0xFF	; 255
    5ce4:	8f 4f       	sbci	r24, 0xFF	; 255
    5ce6:	9f 4f       	sbci	r25, 0xFF	; 255
    5ce8:	2f 3f       	cpi	r18, 0xFF	; 255
    5cea:	49 f4       	brne	.+18     	; 0x5cfe <strtoul+0x180>
    5cec:	82 e2       	ldi	r24, 0x22	; 34
    5cee:	90 e0       	ldi	r25, 0x00	; 0
    5cf0:	90 93 12 08 	sts	0x0812, r25	; 0x800812 <errno+0x1>
    5cf4:	80 93 11 08 	sts	0x0811, r24	; 0x800811 <errno>
    5cf8:	6f ef       	ldi	r22, 0xFF	; 255
    5cfa:	7f ef       	ldi	r23, 0xFF	; 255
    5cfc:	cb 01       	movw	r24, r22
    5cfe:	df 91       	pop	r29
    5d00:	cf 91       	pop	r28
    5d02:	1f 91       	pop	r17
    5d04:	0f 91       	pop	r16
    5d06:	ff 90       	pop	r15
    5d08:	ef 90       	pop	r14
    5d0a:	df 90       	pop	r13
    5d0c:	cf 90       	pop	r12
    5d0e:	bf 90       	pop	r11
    5d10:	af 90       	pop	r10
    5d12:	9f 90       	pop	r9
    5d14:	8f 90       	pop	r8
    5d16:	7f 90       	pop	r7
    5d18:	6f 90       	pop	r6
    5d1a:	5f 90       	pop	r5
    5d1c:	4f 90       	pop	r4
    5d1e:	3f 90       	pop	r3
    5d20:	08 95       	ret
    5d22:	01 ff       	sbrs	r16, 1
    5d24:	d8 cf       	rjmp	.-80     	; 0x5cd6 <strtoul+0x158>
    5d26:	22 97       	sbiw	r28, 0x02	; 2
    5d28:	d3 cf       	rjmp	.-90     	; 0x5cd0 <strtoul+0x152>
    5d2a:	10 e3       	ldi	r17, 0x30	; 48
    5d2c:	e1 14       	cp	r14, r1
    5d2e:	f1 04       	cpc	r15, r1
    5d30:	09 f4       	brne	.+2      	; 0x5d34 <strtoul+0x1b6>
    5d32:	bc cf       	rjmp	.-136    	; 0x5cac <strtoul+0x12e>
    5d34:	3a e0       	ldi	r19, 0x0A	; 10
    5d36:	e3 16       	cp	r14, r19
    5d38:	f1 04       	cpc	r15, r1
    5d3a:	e9 f0       	breq	.+58     	; 0x5d76 <strtoul+0x1f8>
    5d3c:	80 e1       	ldi	r24, 0x10	; 16
    5d3e:	e8 16       	cp	r14, r24
    5d40:	f1 04       	cpc	r15, r1
    5d42:	09 f4       	brne	.+2      	; 0x5d46 <strtoul+0x1c8>
    5d44:	66 cf       	rjmp	.-308    	; 0x5c12 <strtoul+0x94>
    5d46:	e8 e0       	ldi	r30, 0x08	; 8
    5d48:	ee 16       	cp	r14, r30
    5d4a:	f1 04       	cpc	r15, r1
    5d4c:	09 f4       	brne	.+2      	; 0x5d50 <strtoul+0x1d2>
    5d4e:	b1 cf       	rjmp	.-158    	; 0x5cb2 <strtoul+0x134>
    5d50:	6f ef       	ldi	r22, 0xFF	; 255
    5d52:	7f ef       	ldi	r23, 0xFF	; 255
    5d54:	cb 01       	movw	r24, r22
    5d56:	97 01       	movw	r18, r14
    5d58:	0f 2c       	mov	r0, r15
    5d5a:	00 0c       	add	r0, r0
    5d5c:	44 0b       	sbc	r20, r20
    5d5e:	55 0b       	sbc	r21, r21
    5d60:	0e 94 b8 32 	call	0x6570	; 0x6570 <__udivmodsi4>
    5d64:	49 01       	movw	r8, r18
    5d66:	5a 01       	movw	r10, r20
    5d68:	5d cf       	rjmp	.-326    	; 0x5c24 <strtoul+0xa6>
    5d6a:	10 33       	cpi	r17, 0x30	; 48
    5d6c:	09 f4       	brne	.+2      	; 0x5d70 <strtoul+0x1f2>
    5d6e:	49 cf       	rjmp	.-366    	; 0x5c02 <strtoul+0x84>
    5d70:	9a e0       	ldi	r25, 0x0A	; 10
    5d72:	e9 2e       	mov	r14, r25
    5d74:	f1 2c       	mov	r15, r1
    5d76:	89 e9       	ldi	r24, 0x99	; 153
    5d78:	88 2e       	mov	r8, r24
    5d7a:	98 2c       	mov	r9, r8
    5d7c:	a8 2c       	mov	r10, r8
    5d7e:	89 e1       	ldi	r24, 0x19	; 25
    5d80:	b8 2e       	mov	r11, r24
    5d82:	50 cf       	rjmp	.-352    	; 0x5c24 <strtoul+0xa6>

00005d84 <isspace>:
    5d84:	91 11       	cpse	r25, r1
    5d86:	0c 94 b7 31 	jmp	0x636e	; 0x636e <__ctype_isfalse>
    5d8a:	80 32       	cpi	r24, 0x20	; 32
    5d8c:	19 f0       	breq	.+6      	; 0x5d94 <isspace+0x10>
    5d8e:	89 50       	subi	r24, 0x09	; 9
    5d90:	85 50       	subi	r24, 0x05	; 5
    5d92:	c8 f7       	brcc	.-14     	; 0x5d86 <isspace+0x2>
    5d94:	08 95       	ret

00005d96 <toupper>:
    5d96:	91 11       	cpse	r25, r1
    5d98:	08 95       	ret
    5d9a:	81 56       	subi	r24, 0x61	; 97
    5d9c:	8a 51       	subi	r24, 0x1A	; 26
    5d9e:	08 f4       	brcc	.+2      	; 0x5da2 <toupper+0xc>
    5da0:	80 52       	subi	r24, 0x20	; 32
    5da2:	85 58       	subi	r24, 0x85	; 133
    5da4:	08 95       	ret

00005da6 <memcmp_P>:
    5da6:	fb 01       	movw	r30, r22
    5da8:	dc 01       	movw	r26, r24
    5daa:	04 c0       	rjmp	.+8      	; 0x5db4 <memcmp_P+0xe>
    5dac:	8d 91       	ld	r24, X+
    5dae:	05 90       	lpm	r0, Z+
    5db0:	80 19       	sub	r24, r0
    5db2:	21 f4       	brne	.+8      	; 0x5dbc <memcmp_P+0x16>
    5db4:	41 50       	subi	r20, 0x01	; 1
    5db6:	50 40       	sbci	r21, 0x00	; 0
    5db8:	c8 f7       	brcc	.-14     	; 0x5dac <memcmp_P+0x6>
    5dba:	88 1b       	sub	r24, r24
    5dbc:	99 0b       	sbc	r25, r25
    5dbe:	08 95       	ret

00005dc0 <memcpy_P>:
    5dc0:	fb 01       	movw	r30, r22
    5dc2:	dc 01       	movw	r26, r24
    5dc4:	02 c0       	rjmp	.+4      	; 0x5dca <memcpy_P+0xa>
    5dc6:	05 90       	lpm	r0, Z+
    5dc8:	0d 92       	st	X+, r0
    5dca:	41 50       	subi	r20, 0x01	; 1
    5dcc:	50 40       	sbci	r21, 0x00	; 0
    5dce:	d8 f7       	brcc	.-10     	; 0x5dc6 <memcpy_P+0x6>
    5dd0:	08 95       	ret

00005dd2 <strcpy_P>:
    5dd2:	fb 01       	movw	r30, r22
    5dd4:	dc 01       	movw	r26, r24
    5dd6:	05 90       	lpm	r0, Z+
    5dd8:	0d 92       	st	X+, r0
    5dda:	00 20       	and	r0, r0
    5ddc:	e1 f7       	brne	.-8      	; 0x5dd6 <strcpy_P+0x4>
    5dde:	08 95       	ret

00005de0 <strncasecmp_P>:
    5de0:	fb 01       	movw	r30, r22
    5de2:	dc 01       	movw	r26, r24
    5de4:	41 50       	subi	r20, 0x01	; 1
    5de6:	50 40       	sbci	r21, 0x00	; 0
    5de8:	88 f0       	brcs	.+34     	; 0x5e0c <strncasecmp_P+0x2c>
    5dea:	8d 91       	ld	r24, X+
    5dec:	81 34       	cpi	r24, 0x41	; 65
    5dee:	1c f0       	brlt	.+6      	; 0x5df6 <strncasecmp_P+0x16>
    5df0:	8b 35       	cpi	r24, 0x5B	; 91
    5df2:	0c f4       	brge	.+2      	; 0x5df6 <strncasecmp_P+0x16>
    5df4:	80 5e       	subi	r24, 0xE0	; 224
    5df6:	65 91       	lpm	r22, Z+
    5df8:	61 34       	cpi	r22, 0x41	; 65
    5dfa:	1c f0       	brlt	.+6      	; 0x5e02 <strncasecmp_P+0x22>
    5dfc:	6b 35       	cpi	r22, 0x5B	; 91
    5dfe:	0c f4       	brge	.+2      	; 0x5e02 <strncasecmp_P+0x22>
    5e00:	60 5e       	subi	r22, 0xE0	; 224
    5e02:	86 1b       	sub	r24, r22
    5e04:	61 11       	cpse	r22, r1
    5e06:	71 f3       	breq	.-36     	; 0x5de4 <strncasecmp_P+0x4>
    5e08:	99 0b       	sbc	r25, r25
    5e0a:	08 95       	ret
    5e0c:	88 1b       	sub	r24, r24
    5e0e:	fc cf       	rjmp	.-8      	; 0x5e08 <strncasecmp_P+0x28>

00005e10 <strncmp_P>:
    5e10:	fb 01       	movw	r30, r22
    5e12:	dc 01       	movw	r26, r24
    5e14:	41 50       	subi	r20, 0x01	; 1
    5e16:	50 40       	sbci	r21, 0x00	; 0
    5e18:	30 f0       	brcs	.+12     	; 0x5e26 <strncmp_P+0x16>
    5e1a:	8d 91       	ld	r24, X+
    5e1c:	05 90       	lpm	r0, Z+
    5e1e:	80 19       	sub	r24, r0
    5e20:	19 f4       	brne	.+6      	; 0x5e28 <strncmp_P+0x18>
    5e22:	00 20       	and	r0, r0
    5e24:	b9 f7       	brne	.-18     	; 0x5e14 <strncmp_P+0x4>
    5e26:	88 1b       	sub	r24, r24
    5e28:	99 0b       	sbc	r25, r25
    5e2a:	08 95       	ret

00005e2c <strstr_P>:
    5e2c:	fb 01       	movw	r30, r22
    5e2e:	55 91       	lpm	r21, Z+
    5e30:	55 23       	and	r21, r21
    5e32:	a9 f0       	breq	.+42     	; 0x5e5e <strstr_P+0x32>
    5e34:	bf 01       	movw	r22, r30
    5e36:	dc 01       	movw	r26, r24
    5e38:	4d 91       	ld	r20, X+
    5e3a:	45 17       	cp	r20, r21
    5e3c:	41 11       	cpse	r20, r1
    5e3e:	e1 f7       	brne	.-8      	; 0x5e38 <strstr_P+0xc>
    5e40:	59 f4       	brne	.+22     	; 0x5e58 <strstr_P+0x2c>
    5e42:	cd 01       	movw	r24, r26
    5e44:	05 90       	lpm	r0, Z+
    5e46:	00 20       	and	r0, r0
    5e48:	49 f0       	breq	.+18     	; 0x5e5c <strstr_P+0x30>
    5e4a:	4d 91       	ld	r20, X+
    5e4c:	40 15       	cp	r20, r0
    5e4e:	41 11       	cpse	r20, r1
    5e50:	c9 f3       	breq	.-14     	; 0x5e44 <strstr_P+0x18>
    5e52:	fb 01       	movw	r30, r22
    5e54:	41 11       	cpse	r20, r1
    5e56:	ef cf       	rjmp	.-34     	; 0x5e36 <strstr_P+0xa>
    5e58:	81 e0       	ldi	r24, 0x01	; 1
    5e5a:	90 e0       	ldi	r25, 0x00	; 0
    5e5c:	01 97       	sbiw	r24, 0x01	; 1
    5e5e:	08 95       	ret

00005e60 <memcmp>:
    5e60:	fb 01       	movw	r30, r22
    5e62:	dc 01       	movw	r26, r24
    5e64:	04 c0       	rjmp	.+8      	; 0x5e6e <memcmp+0xe>
    5e66:	8d 91       	ld	r24, X+
    5e68:	01 90       	ld	r0, Z+
    5e6a:	80 19       	sub	r24, r0
    5e6c:	21 f4       	brne	.+8      	; 0x5e76 <memcmp+0x16>
    5e6e:	41 50       	subi	r20, 0x01	; 1
    5e70:	50 40       	sbci	r21, 0x00	; 0
    5e72:	c8 f7       	brcc	.-14     	; 0x5e66 <memcmp+0x6>
    5e74:	88 1b       	sub	r24, r24
    5e76:	99 0b       	sbc	r25, r25
    5e78:	08 95       	ret

00005e7a <memcpy>:
    5e7a:	fb 01       	movw	r30, r22
    5e7c:	dc 01       	movw	r26, r24
    5e7e:	02 c0       	rjmp	.+4      	; 0x5e84 <memcpy+0xa>
    5e80:	01 90       	ld	r0, Z+
    5e82:	0d 92       	st	X+, r0
    5e84:	41 50       	subi	r20, 0x01	; 1
    5e86:	50 40       	sbci	r21, 0x00	; 0
    5e88:	d8 f7       	brcc	.-10     	; 0x5e80 <memcpy+0x6>
    5e8a:	08 95       	ret

00005e8c <memset>:
    5e8c:	dc 01       	movw	r26, r24
    5e8e:	01 c0       	rjmp	.+2      	; 0x5e92 <memset+0x6>
    5e90:	6d 93       	st	X+, r22
    5e92:	41 50       	subi	r20, 0x01	; 1
    5e94:	50 40       	sbci	r21, 0x00	; 0
    5e96:	e0 f7       	brcc	.-8      	; 0x5e90 <memset+0x4>
    5e98:	08 95       	ret

00005e9a <strcat>:
    5e9a:	fb 01       	movw	r30, r22
    5e9c:	dc 01       	movw	r26, r24
    5e9e:	0d 90       	ld	r0, X+
    5ea0:	00 20       	and	r0, r0
    5ea2:	e9 f7       	brne	.-6      	; 0x5e9e <strcat+0x4>
    5ea4:	11 97       	sbiw	r26, 0x01	; 1
    5ea6:	01 90       	ld	r0, Z+
    5ea8:	0d 92       	st	X+, r0
    5eaa:	00 20       	and	r0, r0
    5eac:	e1 f7       	brne	.-8      	; 0x5ea6 <strcat+0xc>
    5eae:	08 95       	ret

00005eb0 <strchr>:
    5eb0:	fc 01       	movw	r30, r24
    5eb2:	81 91       	ld	r24, Z+
    5eb4:	86 17       	cp	r24, r22
    5eb6:	21 f0       	breq	.+8      	; 0x5ec0 <strchr+0x10>
    5eb8:	88 23       	and	r24, r24
    5eba:	d9 f7       	brne	.-10     	; 0x5eb2 <strchr+0x2>
    5ebc:	99 27       	eor	r25, r25
    5ebe:	08 95       	ret
    5ec0:	31 97       	sbiw	r30, 0x01	; 1
    5ec2:	cf 01       	movw	r24, r30
    5ec4:	08 95       	ret

00005ec6 <strcpy>:
    5ec6:	fb 01       	movw	r30, r22
    5ec8:	dc 01       	movw	r26, r24
    5eca:	01 90       	ld	r0, Z+
    5ecc:	0d 92       	st	X+, r0
    5ece:	00 20       	and	r0, r0
    5ed0:	e1 f7       	brne	.-8      	; 0x5eca <strcpy+0x4>
    5ed2:	08 95       	ret

00005ed4 <__utoa_ncheck>:
    5ed4:	bb 27       	eor	r27, r27

00005ed6 <__utoa_common>:
    5ed6:	fb 01       	movw	r30, r22
    5ed8:	55 27       	eor	r21, r21
    5eda:	aa 27       	eor	r26, r26
    5edc:	88 0f       	add	r24, r24
    5ede:	99 1f       	adc	r25, r25
    5ee0:	aa 1f       	adc	r26, r26
    5ee2:	a4 17       	cp	r26, r20
    5ee4:	10 f0       	brcs	.+4      	; 0x5eea <__utoa_common+0x14>
    5ee6:	a4 1b       	sub	r26, r20
    5ee8:	83 95       	inc	r24
    5eea:	50 51       	subi	r21, 0x10	; 16
    5eec:	b9 f7       	brne	.-18     	; 0x5edc <__utoa_common+0x6>
    5eee:	a0 5d       	subi	r26, 0xD0	; 208
    5ef0:	aa 33       	cpi	r26, 0x3A	; 58
    5ef2:	08 f0       	brcs	.+2      	; 0x5ef6 <__utoa_common+0x20>
    5ef4:	a9 5d       	subi	r26, 0xD9	; 217
    5ef6:	a1 93       	st	Z+, r26
    5ef8:	00 97       	sbiw	r24, 0x00	; 0
    5efa:	79 f7       	brne	.-34     	; 0x5eda <__utoa_common+0x4>
    5efc:	b1 11       	cpse	r27, r1
    5efe:	b1 93       	st	Z+, r27
    5f00:	11 92       	st	Z+, r1
    5f02:	cb 01       	movw	r24, r22
    5f04:	0c 94 d0 31 	jmp	0x63a0	; 0x63a0 <strrev>

00005f08 <sprintf>:
    5f08:	0f 93       	push	r16
    5f0a:	1f 93       	push	r17
    5f0c:	cf 93       	push	r28
    5f0e:	df 93       	push	r29
    5f10:	cd b7       	in	r28, 0x3d	; 61
    5f12:	de b7       	in	r29, 0x3e	; 62
    5f14:	2e 97       	sbiw	r28, 0x0e	; 14
    5f16:	0f b6       	in	r0, 0x3f	; 63
    5f18:	f8 94       	cli
    5f1a:	de bf       	out	0x3e, r29	; 62
    5f1c:	0f be       	out	0x3f, r0	; 63
    5f1e:	cd bf       	out	0x3d, r28	; 61
    5f20:	0d 89       	ldd	r16, Y+21	; 0x15
    5f22:	1e 89       	ldd	r17, Y+22	; 0x16
    5f24:	86 e0       	ldi	r24, 0x06	; 6
    5f26:	8c 83       	std	Y+4, r24	; 0x04
    5f28:	1a 83       	std	Y+2, r17	; 0x02
    5f2a:	09 83       	std	Y+1, r16	; 0x01
    5f2c:	8f ef       	ldi	r24, 0xFF	; 255
    5f2e:	9f e7       	ldi	r25, 0x7F	; 127
    5f30:	9e 83       	std	Y+6, r25	; 0x06
    5f32:	8d 83       	std	Y+5, r24	; 0x05
    5f34:	ae 01       	movw	r20, r28
    5f36:	47 5e       	subi	r20, 0xE7	; 231
    5f38:	5f 4f       	sbci	r21, 0xFF	; 255
    5f3a:	6f 89       	ldd	r22, Y+23	; 0x17
    5f3c:	78 8d       	ldd	r23, Y+24	; 0x18
    5f3e:	ce 01       	movw	r24, r28
    5f40:	01 96       	adiw	r24, 0x01	; 1
    5f42:	0e 94 b4 2f 	call	0x5f68	; 0x5f68 <vfprintf>
    5f46:	2f 81       	ldd	r18, Y+7	; 0x07
    5f48:	38 85       	ldd	r19, Y+8	; 0x08
    5f4a:	02 0f       	add	r16, r18
    5f4c:	13 1f       	adc	r17, r19
    5f4e:	f8 01       	movw	r30, r16
    5f50:	10 82       	st	Z, r1
    5f52:	2e 96       	adiw	r28, 0x0e	; 14
    5f54:	0f b6       	in	r0, 0x3f	; 63
    5f56:	f8 94       	cli
    5f58:	de bf       	out	0x3e, r29	; 62
    5f5a:	0f be       	out	0x3f, r0	; 63
    5f5c:	cd bf       	out	0x3d, r28	; 61
    5f5e:	df 91       	pop	r29
    5f60:	cf 91       	pop	r28
    5f62:	1f 91       	pop	r17
    5f64:	0f 91       	pop	r16
    5f66:	08 95       	ret

00005f68 <vfprintf>:
    5f68:	2f 92       	push	r2
    5f6a:	3f 92       	push	r3
    5f6c:	4f 92       	push	r4
    5f6e:	5f 92       	push	r5
    5f70:	6f 92       	push	r6
    5f72:	7f 92       	push	r7
    5f74:	8f 92       	push	r8
    5f76:	9f 92       	push	r9
    5f78:	af 92       	push	r10
    5f7a:	bf 92       	push	r11
    5f7c:	cf 92       	push	r12
    5f7e:	df 92       	push	r13
    5f80:	ef 92       	push	r14
    5f82:	ff 92       	push	r15
    5f84:	0f 93       	push	r16
    5f86:	1f 93       	push	r17
    5f88:	cf 93       	push	r28
    5f8a:	df 93       	push	r29
    5f8c:	cd b7       	in	r28, 0x3d	; 61
    5f8e:	de b7       	in	r29, 0x3e	; 62
    5f90:	2b 97       	sbiw	r28, 0x0b	; 11
    5f92:	0f b6       	in	r0, 0x3f	; 63
    5f94:	f8 94       	cli
    5f96:	de bf       	out	0x3e, r29	; 62
    5f98:	0f be       	out	0x3f, r0	; 63
    5f9a:	cd bf       	out	0x3d, r28	; 61
    5f9c:	7c 01       	movw	r14, r24
    5f9e:	3b 01       	movw	r6, r22
    5fa0:	8a 01       	movw	r16, r20
    5fa2:	fc 01       	movw	r30, r24
    5fa4:	17 82       	std	Z+7, r1	; 0x07
    5fa6:	16 82       	std	Z+6, r1	; 0x06
    5fa8:	83 81       	ldd	r24, Z+3	; 0x03
    5faa:	81 ff       	sbrs	r24, 1
    5fac:	dd c1       	rjmp	.+954    	; 0x6368 <vfprintf+0x400>
    5fae:	ce 01       	movw	r24, r28
    5fb0:	01 96       	adiw	r24, 0x01	; 1
    5fb2:	5c 01       	movw	r10, r24
    5fb4:	f7 01       	movw	r30, r14
    5fb6:	93 81       	ldd	r25, Z+3	; 0x03
    5fb8:	f3 01       	movw	r30, r6
    5fba:	93 fd       	sbrc	r25, 3
    5fbc:	85 91       	lpm	r24, Z+
    5fbe:	93 ff       	sbrs	r25, 3
    5fc0:	81 91       	ld	r24, Z+
    5fc2:	3f 01       	movw	r6, r30
    5fc4:	88 23       	and	r24, r24
    5fc6:	09 f4       	brne	.+2      	; 0x5fca <vfprintf+0x62>
    5fc8:	53 c1       	rjmp	.+678    	; 0x6270 <vfprintf+0x308>
    5fca:	85 32       	cpi	r24, 0x25	; 37
    5fcc:	39 f4       	brne	.+14     	; 0x5fdc <vfprintf+0x74>
    5fce:	93 fd       	sbrc	r25, 3
    5fd0:	85 91       	lpm	r24, Z+
    5fd2:	93 ff       	sbrs	r25, 3
    5fd4:	81 91       	ld	r24, Z+
    5fd6:	3f 01       	movw	r6, r30
    5fd8:	85 32       	cpi	r24, 0x25	; 37
    5fda:	29 f4       	brne	.+10     	; 0x5fe6 <vfprintf+0x7e>
    5fdc:	b7 01       	movw	r22, r14
    5fde:	90 e0       	ldi	r25, 0x00	; 0
    5fe0:	0e 94 e0 31 	call	0x63c0	; 0x63c0 <fputc>
    5fe4:	e7 cf       	rjmp	.-50     	; 0x5fb4 <vfprintf+0x4c>
    5fe6:	91 2c       	mov	r9, r1
    5fe8:	21 2c       	mov	r2, r1
    5fea:	31 2c       	mov	r3, r1
    5fec:	ff e1       	ldi	r31, 0x1F	; 31
    5fee:	f3 15       	cp	r31, r3
    5ff0:	38 f0       	brcs	.+14     	; 0x6000 <vfprintf+0x98>
    5ff2:	8b 32       	cpi	r24, 0x2B	; 43
    5ff4:	11 f1       	breq	.+68     	; 0x603a <vfprintf+0xd2>
    5ff6:	90 f4       	brcc	.+36     	; 0x601c <vfprintf+0xb4>
    5ff8:	80 32       	cpi	r24, 0x20	; 32
    5ffa:	09 f1       	breq	.+66     	; 0x603e <vfprintf+0xd6>
    5ffc:	83 32       	cpi	r24, 0x23	; 35
    5ffe:	29 f1       	breq	.+74     	; 0x604a <vfprintf+0xe2>
    6000:	37 fc       	sbrc	r3, 7
    6002:	3c c0       	rjmp	.+120    	; 0x607c <vfprintf+0x114>
    6004:	20 ed       	ldi	r18, 0xD0	; 208
    6006:	28 0f       	add	r18, r24
    6008:	2a 30       	cpi	r18, 0x0A	; 10
    600a:	50 f5       	brcc	.+84     	; 0x6060 <vfprintf+0xf8>
    600c:	36 fe       	sbrs	r3, 6
    600e:	20 c0       	rjmp	.+64     	; 0x6050 <vfprintf+0xe8>
    6010:	8a e0       	ldi	r24, 0x0A	; 10
    6012:	98 9e       	mul	r9, r24
    6014:	20 0d       	add	r18, r0
    6016:	11 24       	eor	r1, r1
    6018:	92 2e       	mov	r9, r18
    601a:	06 c0       	rjmp	.+12     	; 0x6028 <vfprintf+0xc0>
    601c:	8d 32       	cpi	r24, 0x2D	; 45
    601e:	91 f0       	breq	.+36     	; 0x6044 <vfprintf+0xdc>
    6020:	80 33       	cpi	r24, 0x30	; 48
    6022:	71 f7       	brne	.-36     	; 0x6000 <vfprintf+0x98>
    6024:	68 94       	set
    6026:	30 f8       	bld	r3, 0
    6028:	f3 01       	movw	r30, r6
    602a:	93 fd       	sbrc	r25, 3
    602c:	85 91       	lpm	r24, Z+
    602e:	93 ff       	sbrs	r25, 3
    6030:	81 91       	ld	r24, Z+
    6032:	3f 01       	movw	r6, r30
    6034:	81 11       	cpse	r24, r1
    6036:	da cf       	rjmp	.-76     	; 0x5fec <vfprintf+0x84>
    6038:	21 c0       	rjmp	.+66     	; 0x607c <vfprintf+0x114>
    603a:	68 94       	set
    603c:	31 f8       	bld	r3, 1
    603e:	68 94       	set
    6040:	32 f8       	bld	r3, 2
    6042:	f2 cf       	rjmp	.-28     	; 0x6028 <vfprintf+0xc0>
    6044:	68 94       	set
    6046:	33 f8       	bld	r3, 3
    6048:	ef cf       	rjmp	.-34     	; 0x6028 <vfprintf+0xc0>
    604a:	68 94       	set
    604c:	34 f8       	bld	r3, 4
    604e:	ec cf       	rjmp	.-40     	; 0x6028 <vfprintf+0xc0>
    6050:	ea e0       	ldi	r30, 0x0A	; 10
    6052:	2e 9e       	mul	r2, r30
    6054:	20 0d       	add	r18, r0
    6056:	11 24       	eor	r1, r1
    6058:	22 2e       	mov	r2, r18
    605a:	68 94       	set
    605c:	35 f8       	bld	r3, 5
    605e:	e4 cf       	rjmp	.-56     	; 0x6028 <vfprintf+0xc0>
    6060:	8e 32       	cpi	r24, 0x2E	; 46
    6062:	29 f4       	brne	.+10     	; 0x606e <vfprintf+0x106>
    6064:	36 fc       	sbrc	r3, 6
    6066:	04 c1       	rjmp	.+520    	; 0x6270 <vfprintf+0x308>
    6068:	68 94       	set
    606a:	36 f8       	bld	r3, 6
    606c:	dd cf       	rjmp	.-70     	; 0x6028 <vfprintf+0xc0>
    606e:	8c 36       	cpi	r24, 0x6C	; 108
    6070:	19 f4       	brne	.+6      	; 0x6078 <vfprintf+0x110>
    6072:	68 94       	set
    6074:	37 f8       	bld	r3, 7
    6076:	d8 cf       	rjmp	.-80     	; 0x6028 <vfprintf+0xc0>
    6078:	88 36       	cpi	r24, 0x68	; 104
    607a:	b1 f2       	breq	.-84     	; 0x6028 <vfprintf+0xc0>
    607c:	98 2f       	mov	r25, r24
    607e:	9f 7d       	andi	r25, 0xDF	; 223
    6080:	95 54       	subi	r25, 0x45	; 69
    6082:	93 30       	cpi	r25, 0x03	; 3
    6084:	e0 f0       	brcs	.+56     	; 0x60be <vfprintf+0x156>
    6086:	83 36       	cpi	r24, 0x63	; 99
    6088:	a1 f1       	breq	.+104    	; 0x60f2 <vfprintf+0x18a>
    608a:	83 37       	cpi	r24, 0x73	; 115
    608c:	c1 f1       	breq	.+112    	; 0x60fe <vfprintf+0x196>
    608e:	83 35       	cpi	r24, 0x53	; 83
    6090:	09 f0       	breq	.+2      	; 0x6094 <vfprintf+0x12c>
    6092:	63 c0       	rjmp	.+198    	; 0x615a <vfprintf+0x1f2>
    6094:	28 01       	movw	r4, r16
    6096:	f2 e0       	ldi	r31, 0x02	; 2
    6098:	4f 0e       	add	r4, r31
    609a:	51 1c       	adc	r5, r1
    609c:	f8 01       	movw	r30, r16
    609e:	c0 80       	ld	r12, Z
    60a0:	d1 80       	ldd	r13, Z+1	; 0x01
    60a2:	69 2d       	mov	r22, r9
    60a4:	70 e0       	ldi	r23, 0x00	; 0
    60a6:	36 fc       	sbrc	r3, 6
    60a8:	02 c0       	rjmp	.+4      	; 0x60ae <vfprintf+0x146>
    60aa:	6f ef       	ldi	r22, 0xFF	; 255
    60ac:	7f ef       	ldi	r23, 0xFF	; 255
    60ae:	c6 01       	movw	r24, r12
    60b0:	0e 94 ba 31 	call	0x6374	; 0x6374 <strnlen_P>
    60b4:	4c 01       	movw	r8, r24
    60b6:	68 94       	set
    60b8:	37 f8       	bld	r3, 7
    60ba:	82 01       	movw	r16, r4
    60bc:	0a c0       	rjmp	.+20     	; 0x60d2 <vfprintf+0x16a>
    60be:	0c 5f       	subi	r16, 0xFC	; 252
    60c0:	1f 4f       	sbci	r17, 0xFF	; 255
    60c2:	ff e3       	ldi	r31, 0x3F	; 63
    60c4:	f9 83       	std	Y+1, r31	; 0x01
    60c6:	88 24       	eor	r8, r8
    60c8:	83 94       	inc	r8
    60ca:	91 2c       	mov	r9, r1
    60cc:	65 01       	movw	r12, r10
    60ce:	e8 94       	clt
    60d0:	37 f8       	bld	r3, 7
    60d2:	33 fe       	sbrs	r3, 3
    60d4:	2d c0       	rjmp	.+90     	; 0x6130 <vfprintf+0x1c8>
    60d6:	52 2c       	mov	r5, r2
    60d8:	81 14       	cp	r8, r1
    60da:	91 04       	cpc	r9, r1
    60dc:	71 f5       	brne	.+92     	; 0x613a <vfprintf+0x1d2>
    60de:	55 20       	and	r5, r5
    60e0:	09 f4       	brne	.+2      	; 0x60e4 <vfprintf+0x17c>
    60e2:	68 cf       	rjmp	.-304    	; 0x5fb4 <vfprintf+0x4c>
    60e4:	b7 01       	movw	r22, r14
    60e6:	80 e2       	ldi	r24, 0x20	; 32
    60e8:	90 e0       	ldi	r25, 0x00	; 0
    60ea:	0e 94 e0 31 	call	0x63c0	; 0x63c0 <fputc>
    60ee:	5a 94       	dec	r5
    60f0:	f6 cf       	rjmp	.-20     	; 0x60de <vfprintf+0x176>
    60f2:	f8 01       	movw	r30, r16
    60f4:	80 81       	ld	r24, Z
    60f6:	89 83       	std	Y+1, r24	; 0x01
    60f8:	0e 5f       	subi	r16, 0xFE	; 254
    60fa:	1f 4f       	sbci	r17, 0xFF	; 255
    60fc:	e4 cf       	rjmp	.-56     	; 0x60c6 <vfprintf+0x15e>
    60fe:	28 01       	movw	r4, r16
    6100:	f2 e0       	ldi	r31, 0x02	; 2
    6102:	4f 0e       	add	r4, r31
    6104:	51 1c       	adc	r5, r1
    6106:	f8 01       	movw	r30, r16
    6108:	c0 80       	ld	r12, Z
    610a:	d1 80       	ldd	r13, Z+1	; 0x01
    610c:	69 2d       	mov	r22, r9
    610e:	70 e0       	ldi	r23, 0x00	; 0
    6110:	36 fc       	sbrc	r3, 6
    6112:	02 c0       	rjmp	.+4      	; 0x6118 <vfprintf+0x1b0>
    6114:	6f ef       	ldi	r22, 0xFF	; 255
    6116:	7f ef       	ldi	r23, 0xFF	; 255
    6118:	c6 01       	movw	r24, r12
    611a:	0e 94 c5 31 	call	0x638a	; 0x638a <strnlen>
    611e:	4c 01       	movw	r8, r24
    6120:	82 01       	movw	r16, r4
    6122:	d5 cf       	rjmp	.-86     	; 0x60ce <vfprintf+0x166>
    6124:	b7 01       	movw	r22, r14
    6126:	80 e2       	ldi	r24, 0x20	; 32
    6128:	90 e0       	ldi	r25, 0x00	; 0
    612a:	0e 94 e0 31 	call	0x63c0	; 0x63c0 <fputc>
    612e:	2a 94       	dec	r2
    6130:	28 14       	cp	r2, r8
    6132:	19 04       	cpc	r1, r9
    6134:	09 f0       	breq	.+2      	; 0x6138 <vfprintf+0x1d0>
    6136:	b0 f7       	brcc	.-20     	; 0x6124 <vfprintf+0x1bc>
    6138:	ce cf       	rjmp	.-100    	; 0x60d6 <vfprintf+0x16e>
    613a:	f6 01       	movw	r30, r12
    613c:	37 fc       	sbrc	r3, 7
    613e:	85 91       	lpm	r24, Z+
    6140:	37 fe       	sbrs	r3, 7
    6142:	81 91       	ld	r24, Z+
    6144:	6f 01       	movw	r12, r30
    6146:	b7 01       	movw	r22, r14
    6148:	90 e0       	ldi	r25, 0x00	; 0
    614a:	0e 94 e0 31 	call	0x63c0	; 0x63c0 <fputc>
    614e:	51 10       	cpse	r5, r1
    6150:	5a 94       	dec	r5
    6152:	f1 e0       	ldi	r31, 0x01	; 1
    6154:	8f 1a       	sub	r8, r31
    6156:	91 08       	sbc	r9, r1
    6158:	bf cf       	rjmp	.-130    	; 0x60d8 <vfprintf+0x170>
    615a:	84 36       	cpi	r24, 0x64	; 100
    615c:	19 f0       	breq	.+6      	; 0x6164 <vfprintf+0x1fc>
    615e:	89 36       	cpi	r24, 0x69	; 105
    6160:	09 f0       	breq	.+2      	; 0x6164 <vfprintf+0x1fc>
    6162:	77 c0       	rjmp	.+238    	; 0x6252 <vfprintf+0x2ea>
    6164:	f8 01       	movw	r30, r16
    6166:	37 fe       	sbrs	r3, 7
    6168:	6b c0       	rjmp	.+214    	; 0x6240 <vfprintf+0x2d8>
    616a:	60 81       	ld	r22, Z
    616c:	71 81       	ldd	r23, Z+1	; 0x01
    616e:	82 81       	ldd	r24, Z+2	; 0x02
    6170:	93 81       	ldd	r25, Z+3	; 0x03
    6172:	0c 5f       	subi	r16, 0xFC	; 252
    6174:	1f 4f       	sbci	r17, 0xFF	; 255
    6176:	f3 2d       	mov	r31, r3
    6178:	ff 76       	andi	r31, 0x6F	; 111
    617a:	3f 2e       	mov	r3, r31
    617c:	97 ff       	sbrs	r25, 7
    617e:	09 c0       	rjmp	.+18     	; 0x6192 <vfprintf+0x22a>
    6180:	90 95       	com	r25
    6182:	80 95       	com	r24
    6184:	70 95       	com	r23
    6186:	61 95       	neg	r22
    6188:	7f 4f       	sbci	r23, 0xFF	; 255
    618a:	8f 4f       	sbci	r24, 0xFF	; 255
    618c:	9f 4f       	sbci	r25, 0xFF	; 255
    618e:	68 94       	set
    6190:	37 f8       	bld	r3, 7
    6192:	2a e0       	ldi	r18, 0x0A	; 10
    6194:	30 e0       	ldi	r19, 0x00	; 0
    6196:	a5 01       	movw	r20, r10
    6198:	0e 94 10 32 	call	0x6420	; 0x6420 <__ultoa_invert>
    619c:	c8 2e       	mov	r12, r24
    619e:	ca 18       	sub	r12, r10
    61a0:	8c 2c       	mov	r8, r12
    61a2:	43 2c       	mov	r4, r3
    61a4:	36 fe       	sbrs	r3, 6
    61a6:	0c c0       	rjmp	.+24     	; 0x61c0 <vfprintf+0x258>
    61a8:	e8 94       	clt
    61aa:	40 f8       	bld	r4, 0
    61ac:	c9 14       	cp	r12, r9
    61ae:	40 f4       	brcc	.+16     	; 0x61c0 <vfprintf+0x258>
    61b0:	34 fe       	sbrs	r3, 4
    61b2:	05 c0       	rjmp	.+10     	; 0x61be <vfprintf+0x256>
    61b4:	32 fc       	sbrc	r3, 2
    61b6:	03 c0       	rjmp	.+6      	; 0x61be <vfprintf+0x256>
    61b8:	f3 2d       	mov	r31, r3
    61ba:	fe 7e       	andi	r31, 0xEE	; 238
    61bc:	4f 2e       	mov	r4, r31
    61be:	89 2c       	mov	r8, r9
    61c0:	44 fe       	sbrs	r4, 4
    61c2:	aa c0       	rjmp	.+340    	; 0x6318 <vfprintf+0x3b0>
    61c4:	fe 01       	movw	r30, r28
    61c6:	ec 0d       	add	r30, r12
    61c8:	f1 1d       	adc	r31, r1
    61ca:	80 81       	ld	r24, Z
    61cc:	80 33       	cpi	r24, 0x30	; 48
    61ce:	09 f0       	breq	.+2      	; 0x61d2 <vfprintf+0x26a>
    61d0:	9c c0       	rjmp	.+312    	; 0x630a <vfprintf+0x3a2>
    61d2:	24 2d       	mov	r18, r4
    61d4:	29 7e       	andi	r18, 0xE9	; 233
    61d6:	42 2e       	mov	r4, r18
    61d8:	84 2d       	mov	r24, r4
    61da:	88 70       	andi	r24, 0x08	; 8
    61dc:	58 2e       	mov	r5, r24
    61de:	43 fc       	sbrc	r4, 3
    61e0:	aa c0       	rjmp	.+340    	; 0x6336 <vfprintf+0x3ce>
    61e2:	40 fe       	sbrs	r4, 0
    61e4:	a4 c0       	rjmp	.+328    	; 0x632e <vfprintf+0x3c6>
    61e6:	9c 2c       	mov	r9, r12
    61e8:	82 14       	cp	r8, r2
    61ea:	18 f4       	brcc	.+6      	; 0x61f2 <vfprintf+0x28a>
    61ec:	2c 0c       	add	r2, r12
    61ee:	92 2c       	mov	r9, r2
    61f0:	98 18       	sub	r9, r8
    61f2:	44 fe       	sbrs	r4, 4
    61f4:	a6 c0       	rjmp	.+332    	; 0x6342 <vfprintf+0x3da>
    61f6:	b7 01       	movw	r22, r14
    61f8:	80 e3       	ldi	r24, 0x30	; 48
    61fa:	90 e0       	ldi	r25, 0x00	; 0
    61fc:	0e 94 e0 31 	call	0x63c0	; 0x63c0 <fputc>
    6200:	42 fe       	sbrs	r4, 2
    6202:	09 c0       	rjmp	.+18     	; 0x6216 <vfprintf+0x2ae>
    6204:	88 e7       	ldi	r24, 0x78	; 120
    6206:	90 e0       	ldi	r25, 0x00	; 0
    6208:	41 fe       	sbrs	r4, 1
    620a:	02 c0       	rjmp	.+4      	; 0x6210 <vfprintf+0x2a8>
    620c:	88 e5       	ldi	r24, 0x58	; 88
    620e:	90 e0       	ldi	r25, 0x00	; 0
    6210:	b7 01       	movw	r22, r14
    6212:	0e 94 e0 31 	call	0x63c0	; 0x63c0 <fputc>
    6216:	c9 14       	cp	r12, r9
    6218:	08 f4       	brcc	.+2      	; 0x621c <vfprintf+0x2b4>
    621a:	9f c0       	rjmp	.+318    	; 0x635a <vfprintf+0x3f2>
    621c:	ca 94       	dec	r12
    621e:	d1 2c       	mov	r13, r1
    6220:	9f ef       	ldi	r25, 0xFF	; 255
    6222:	c9 1a       	sub	r12, r25
    6224:	d9 0a       	sbc	r13, r25
    6226:	ca 0c       	add	r12, r10
    6228:	db 1c       	adc	r13, r11
    622a:	f6 01       	movw	r30, r12
    622c:	82 91       	ld	r24, -Z
    622e:	6f 01       	movw	r12, r30
    6230:	b7 01       	movw	r22, r14
    6232:	90 e0       	ldi	r25, 0x00	; 0
    6234:	0e 94 e0 31 	call	0x63c0	; 0x63c0 <fputc>
    6238:	ac 14       	cp	r10, r12
    623a:	bd 04       	cpc	r11, r13
    623c:	b1 f7       	brne	.-20     	; 0x622a <vfprintf+0x2c2>
    623e:	4f cf       	rjmp	.-354    	; 0x60de <vfprintf+0x176>
    6240:	60 81       	ld	r22, Z
    6242:	71 81       	ldd	r23, Z+1	; 0x01
    6244:	07 2e       	mov	r0, r23
    6246:	00 0c       	add	r0, r0
    6248:	88 0b       	sbc	r24, r24
    624a:	99 0b       	sbc	r25, r25
    624c:	0e 5f       	subi	r16, 0xFE	; 254
    624e:	1f 4f       	sbci	r17, 0xFF	; 255
    6250:	92 cf       	rjmp	.-220    	; 0x6176 <vfprintf+0x20e>
    6252:	d3 2c       	mov	r13, r3
    6254:	e8 94       	clt
    6256:	d4 f8       	bld	r13, 4
    6258:	2a e0       	ldi	r18, 0x0A	; 10
    625a:	30 e0       	ldi	r19, 0x00	; 0
    625c:	85 37       	cpi	r24, 0x75	; 117
    625e:	e1 f1       	breq	.+120    	; 0x62d8 <vfprintf+0x370>
    6260:	23 2d       	mov	r18, r3
    6262:	29 7f       	andi	r18, 0xF9	; 249
    6264:	d2 2e       	mov	r13, r18
    6266:	8f 36       	cpi	r24, 0x6F	; 111
    6268:	a9 f1       	breq	.+106    	; 0x62d4 <vfprintf+0x36c>
    626a:	f0 f4       	brcc	.+60     	; 0x62a8 <vfprintf+0x340>
    626c:	88 35       	cpi	r24, 0x58	; 88
    626e:	51 f1       	breq	.+84     	; 0x62c4 <vfprintf+0x35c>
    6270:	f7 01       	movw	r30, r14
    6272:	86 81       	ldd	r24, Z+6	; 0x06
    6274:	97 81       	ldd	r25, Z+7	; 0x07
    6276:	2b 96       	adiw	r28, 0x0b	; 11
    6278:	0f b6       	in	r0, 0x3f	; 63
    627a:	f8 94       	cli
    627c:	de bf       	out	0x3e, r29	; 62
    627e:	0f be       	out	0x3f, r0	; 63
    6280:	cd bf       	out	0x3d, r28	; 61
    6282:	df 91       	pop	r29
    6284:	cf 91       	pop	r28
    6286:	1f 91       	pop	r17
    6288:	0f 91       	pop	r16
    628a:	ff 90       	pop	r15
    628c:	ef 90       	pop	r14
    628e:	df 90       	pop	r13
    6290:	cf 90       	pop	r12
    6292:	bf 90       	pop	r11
    6294:	af 90       	pop	r10
    6296:	9f 90       	pop	r9
    6298:	8f 90       	pop	r8
    629a:	7f 90       	pop	r7
    629c:	6f 90       	pop	r6
    629e:	5f 90       	pop	r5
    62a0:	4f 90       	pop	r4
    62a2:	3f 90       	pop	r3
    62a4:	2f 90       	pop	r2
    62a6:	08 95       	ret
    62a8:	80 37       	cpi	r24, 0x70	; 112
    62aa:	49 f0       	breq	.+18     	; 0x62be <vfprintf+0x356>
    62ac:	88 37       	cpi	r24, 0x78	; 120
    62ae:	01 f7       	brne	.-64     	; 0x6270 <vfprintf+0x308>
    62b0:	d4 fe       	sbrs	r13, 4
    62b2:	02 c0       	rjmp	.+4      	; 0x62b8 <vfprintf+0x350>
    62b4:	68 94       	set
    62b6:	d2 f8       	bld	r13, 2
    62b8:	20 e1       	ldi	r18, 0x10	; 16
    62ba:	30 e0       	ldi	r19, 0x00	; 0
    62bc:	0d c0       	rjmp	.+26     	; 0x62d8 <vfprintf+0x370>
    62be:	68 94       	set
    62c0:	d4 f8       	bld	r13, 4
    62c2:	f6 cf       	rjmp	.-20     	; 0x62b0 <vfprintf+0x348>
    62c4:	34 fe       	sbrs	r3, 4
    62c6:	03 c0       	rjmp	.+6      	; 0x62ce <vfprintf+0x366>
    62c8:	82 2f       	mov	r24, r18
    62ca:	86 60       	ori	r24, 0x06	; 6
    62cc:	d8 2e       	mov	r13, r24
    62ce:	20 e1       	ldi	r18, 0x10	; 16
    62d0:	32 e0       	ldi	r19, 0x02	; 2
    62d2:	02 c0       	rjmp	.+4      	; 0x62d8 <vfprintf+0x370>
    62d4:	28 e0       	ldi	r18, 0x08	; 8
    62d6:	30 e0       	ldi	r19, 0x00	; 0
    62d8:	f8 01       	movw	r30, r16
    62da:	d7 fe       	sbrs	r13, 7
    62dc:	0f c0       	rjmp	.+30     	; 0x62fc <vfprintf+0x394>
    62de:	60 81       	ld	r22, Z
    62e0:	71 81       	ldd	r23, Z+1	; 0x01
    62e2:	82 81       	ldd	r24, Z+2	; 0x02
    62e4:	93 81       	ldd	r25, Z+3	; 0x03
    62e6:	0c 5f       	subi	r16, 0xFC	; 252
    62e8:	1f 4f       	sbci	r17, 0xFF	; 255
    62ea:	a5 01       	movw	r20, r10
    62ec:	0e 94 10 32 	call	0x6420	; 0x6420 <__ultoa_invert>
    62f0:	c8 2e       	mov	r12, r24
    62f2:	ca 18       	sub	r12, r10
    62f4:	3d 2c       	mov	r3, r13
    62f6:	e8 94       	clt
    62f8:	37 f8       	bld	r3, 7
    62fa:	52 cf       	rjmp	.-348    	; 0x61a0 <vfprintf+0x238>
    62fc:	60 81       	ld	r22, Z
    62fe:	71 81       	ldd	r23, Z+1	; 0x01
    6300:	90 e0       	ldi	r25, 0x00	; 0
    6302:	80 e0       	ldi	r24, 0x00	; 0
    6304:	0e 5f       	subi	r16, 0xFE	; 254
    6306:	1f 4f       	sbci	r17, 0xFF	; 255
    6308:	f0 cf       	rjmp	.-32     	; 0x62ea <vfprintf+0x382>
    630a:	42 fc       	sbrc	r4, 2
    630c:	02 c0       	rjmp	.+4      	; 0x6312 <vfprintf+0x3aa>
    630e:	83 94       	inc	r8
    6310:	63 cf       	rjmp	.-314    	; 0x61d8 <vfprintf+0x270>
    6312:	83 94       	inc	r8
    6314:	83 94       	inc	r8
    6316:	60 cf       	rjmp	.-320    	; 0x61d8 <vfprintf+0x270>
    6318:	84 2d       	mov	r24, r4
    631a:	86 78       	andi	r24, 0x86	; 134
    631c:	09 f4       	brne	.+2      	; 0x6320 <vfprintf+0x3b8>
    631e:	5c cf       	rjmp	.-328    	; 0x61d8 <vfprintf+0x270>
    6320:	f6 cf       	rjmp	.-20     	; 0x630e <vfprintf+0x3a6>
    6322:	b7 01       	movw	r22, r14
    6324:	80 e2       	ldi	r24, 0x20	; 32
    6326:	90 e0       	ldi	r25, 0x00	; 0
    6328:	0e 94 e0 31 	call	0x63c0	; 0x63c0 <fputc>
    632c:	83 94       	inc	r8
    632e:	82 14       	cp	r8, r2
    6330:	c0 f3       	brcs	.-16     	; 0x6322 <vfprintf+0x3ba>
    6332:	51 2c       	mov	r5, r1
    6334:	5e cf       	rjmp	.-324    	; 0x61f2 <vfprintf+0x28a>
    6336:	52 2c       	mov	r5, r2
    6338:	58 18       	sub	r5, r8
    633a:	82 14       	cp	r8, r2
    633c:	08 f4       	brcc	.+2      	; 0x6340 <vfprintf+0x3d8>
    633e:	59 cf       	rjmp	.-334    	; 0x61f2 <vfprintf+0x28a>
    6340:	f8 cf       	rjmp	.-16     	; 0x6332 <vfprintf+0x3ca>
    6342:	84 2d       	mov	r24, r4
    6344:	86 78       	andi	r24, 0x86	; 134
    6346:	09 f4       	brne	.+2      	; 0x634a <vfprintf+0x3e2>
    6348:	66 cf       	rjmp	.-308    	; 0x6216 <vfprintf+0x2ae>
    634a:	8b e2       	ldi	r24, 0x2B	; 43
    634c:	41 fe       	sbrs	r4, 1
    634e:	80 e2       	ldi	r24, 0x20	; 32
    6350:	47 fc       	sbrc	r4, 7
    6352:	8d e2       	ldi	r24, 0x2D	; 45
    6354:	b7 01       	movw	r22, r14
    6356:	90 e0       	ldi	r25, 0x00	; 0
    6358:	5c cf       	rjmp	.-328    	; 0x6212 <vfprintf+0x2aa>
    635a:	b7 01       	movw	r22, r14
    635c:	80 e3       	ldi	r24, 0x30	; 48
    635e:	90 e0       	ldi	r25, 0x00	; 0
    6360:	0e 94 e0 31 	call	0x63c0	; 0x63c0 <fputc>
    6364:	9a 94       	dec	r9
    6366:	57 cf       	rjmp	.-338    	; 0x6216 <vfprintf+0x2ae>
    6368:	8f ef       	ldi	r24, 0xFF	; 255
    636a:	9f ef       	ldi	r25, 0xFF	; 255
    636c:	84 cf       	rjmp	.-248    	; 0x6276 <vfprintf+0x30e>

0000636e <__ctype_isfalse>:
    636e:	99 27       	eor	r25, r25
    6370:	88 27       	eor	r24, r24

00006372 <__ctype_istrue>:
    6372:	08 95       	ret

00006374 <strnlen_P>:
    6374:	fc 01       	movw	r30, r24
    6376:	05 90       	lpm	r0, Z+
    6378:	61 50       	subi	r22, 0x01	; 1
    637a:	70 40       	sbci	r23, 0x00	; 0
    637c:	01 10       	cpse	r0, r1
    637e:	d8 f7       	brcc	.-10     	; 0x6376 <strnlen_P+0x2>
    6380:	80 95       	com	r24
    6382:	90 95       	com	r25
    6384:	8e 0f       	add	r24, r30
    6386:	9f 1f       	adc	r25, r31
    6388:	08 95       	ret

0000638a <strnlen>:
    638a:	fc 01       	movw	r30, r24
    638c:	61 50       	subi	r22, 0x01	; 1
    638e:	70 40       	sbci	r23, 0x00	; 0
    6390:	01 90       	ld	r0, Z+
    6392:	01 10       	cpse	r0, r1
    6394:	d8 f7       	brcc	.-10     	; 0x638c <strnlen+0x2>
    6396:	80 95       	com	r24
    6398:	90 95       	com	r25
    639a:	8e 0f       	add	r24, r30
    639c:	9f 1f       	adc	r25, r31
    639e:	08 95       	ret

000063a0 <strrev>:
    63a0:	dc 01       	movw	r26, r24
    63a2:	fc 01       	movw	r30, r24
    63a4:	67 2f       	mov	r22, r23
    63a6:	71 91       	ld	r23, Z+
    63a8:	77 23       	and	r23, r23
    63aa:	e1 f7       	brne	.-8      	; 0x63a4 <strrev+0x4>
    63ac:	32 97       	sbiw	r30, 0x02	; 2
    63ae:	04 c0       	rjmp	.+8      	; 0x63b8 <strrev+0x18>
    63b0:	7c 91       	ld	r23, X
    63b2:	6d 93       	st	X+, r22
    63b4:	70 83       	st	Z, r23
    63b6:	62 91       	ld	r22, -Z
    63b8:	ae 17       	cp	r26, r30
    63ba:	bf 07       	cpc	r27, r31
    63bc:	c8 f3       	brcs	.-14     	; 0x63b0 <strrev+0x10>
    63be:	08 95       	ret

000063c0 <fputc>:
    63c0:	0f 93       	push	r16
    63c2:	1f 93       	push	r17
    63c4:	cf 93       	push	r28
    63c6:	df 93       	push	r29
    63c8:	18 2f       	mov	r17, r24
    63ca:	09 2f       	mov	r16, r25
    63cc:	eb 01       	movw	r28, r22
    63ce:	8b 81       	ldd	r24, Y+3	; 0x03
    63d0:	81 fd       	sbrc	r24, 1
    63d2:	09 c0       	rjmp	.+18     	; 0x63e6 <fputc+0x26>
    63d4:	1f ef       	ldi	r17, 0xFF	; 255
    63d6:	0f ef       	ldi	r16, 0xFF	; 255
    63d8:	81 2f       	mov	r24, r17
    63da:	90 2f       	mov	r25, r16
    63dc:	df 91       	pop	r29
    63de:	cf 91       	pop	r28
    63e0:	1f 91       	pop	r17
    63e2:	0f 91       	pop	r16
    63e4:	08 95       	ret
    63e6:	82 ff       	sbrs	r24, 2
    63e8:	14 c0       	rjmp	.+40     	; 0x6412 <fputc+0x52>
    63ea:	2e 81       	ldd	r18, Y+6	; 0x06
    63ec:	3f 81       	ldd	r19, Y+7	; 0x07
    63ee:	8c 81       	ldd	r24, Y+4	; 0x04
    63f0:	9d 81       	ldd	r25, Y+5	; 0x05
    63f2:	28 17       	cp	r18, r24
    63f4:	39 07       	cpc	r19, r25
    63f6:	3c f4       	brge	.+14     	; 0x6406 <fputc+0x46>
    63f8:	e8 81       	ld	r30, Y
    63fa:	f9 81       	ldd	r31, Y+1	; 0x01
    63fc:	cf 01       	movw	r24, r30
    63fe:	01 96       	adiw	r24, 0x01	; 1
    6400:	99 83       	std	Y+1, r25	; 0x01
    6402:	88 83       	st	Y, r24
    6404:	10 83       	st	Z, r17
    6406:	8e 81       	ldd	r24, Y+6	; 0x06
    6408:	9f 81       	ldd	r25, Y+7	; 0x07
    640a:	01 96       	adiw	r24, 0x01	; 1
    640c:	9f 83       	std	Y+7, r25	; 0x07
    640e:	8e 83       	std	Y+6, r24	; 0x06
    6410:	e3 cf       	rjmp	.-58     	; 0x63d8 <fputc+0x18>
    6412:	e8 85       	ldd	r30, Y+8	; 0x08
    6414:	f9 85       	ldd	r31, Y+9	; 0x09
    6416:	81 2f       	mov	r24, r17
    6418:	09 95       	icall
    641a:	89 2b       	or	r24, r25
    641c:	a1 f3       	breq	.-24     	; 0x6406 <fputc+0x46>
    641e:	da cf       	rjmp	.-76     	; 0x63d4 <fputc+0x14>

00006420 <__ultoa_invert>:
    6420:	fa 01       	movw	r30, r20
    6422:	aa 27       	eor	r26, r26
    6424:	28 30       	cpi	r18, 0x08	; 8
    6426:	51 f1       	breq	.+84     	; 0x647c <__ultoa_invert+0x5c>
    6428:	20 31       	cpi	r18, 0x10	; 16
    642a:	81 f1       	breq	.+96     	; 0x648c <__ultoa_invert+0x6c>
    642c:	e8 94       	clt
    642e:	6f 93       	push	r22
    6430:	6e 7f       	andi	r22, 0xFE	; 254
    6432:	6e 5f       	subi	r22, 0xFE	; 254
    6434:	7f 4f       	sbci	r23, 0xFF	; 255
    6436:	8f 4f       	sbci	r24, 0xFF	; 255
    6438:	9f 4f       	sbci	r25, 0xFF	; 255
    643a:	af 4f       	sbci	r26, 0xFF	; 255
    643c:	b1 e0       	ldi	r27, 0x01	; 1
    643e:	3e d0       	rcall	.+124    	; 0x64bc <__ultoa_invert+0x9c>
    6440:	b4 e0       	ldi	r27, 0x04	; 4
    6442:	3c d0       	rcall	.+120    	; 0x64bc <__ultoa_invert+0x9c>
    6444:	67 0f       	add	r22, r23
    6446:	78 1f       	adc	r23, r24
    6448:	89 1f       	adc	r24, r25
    644a:	9a 1f       	adc	r25, r26
    644c:	a1 1d       	adc	r26, r1
    644e:	68 0f       	add	r22, r24
    6450:	79 1f       	adc	r23, r25
    6452:	8a 1f       	adc	r24, r26
    6454:	91 1d       	adc	r25, r1
    6456:	a1 1d       	adc	r26, r1
    6458:	6a 0f       	add	r22, r26
    645a:	71 1d       	adc	r23, r1
    645c:	81 1d       	adc	r24, r1
    645e:	91 1d       	adc	r25, r1
    6460:	a1 1d       	adc	r26, r1
    6462:	20 d0       	rcall	.+64     	; 0x64a4 <__ultoa_invert+0x84>
    6464:	09 f4       	brne	.+2      	; 0x6468 <__ultoa_invert+0x48>
    6466:	68 94       	set
    6468:	3f 91       	pop	r19
    646a:	2a e0       	ldi	r18, 0x0A	; 10
    646c:	26 9f       	mul	r18, r22
    646e:	11 24       	eor	r1, r1
    6470:	30 19       	sub	r19, r0
    6472:	30 5d       	subi	r19, 0xD0	; 208
    6474:	31 93       	st	Z+, r19
    6476:	de f6       	brtc	.-74     	; 0x642e <__ultoa_invert+0xe>
    6478:	cf 01       	movw	r24, r30
    647a:	08 95       	ret
    647c:	46 2f       	mov	r20, r22
    647e:	47 70       	andi	r20, 0x07	; 7
    6480:	40 5d       	subi	r20, 0xD0	; 208
    6482:	41 93       	st	Z+, r20
    6484:	b3 e0       	ldi	r27, 0x03	; 3
    6486:	0f d0       	rcall	.+30     	; 0x64a6 <__ultoa_invert+0x86>
    6488:	c9 f7       	brne	.-14     	; 0x647c <__ultoa_invert+0x5c>
    648a:	f6 cf       	rjmp	.-20     	; 0x6478 <__ultoa_invert+0x58>
    648c:	46 2f       	mov	r20, r22
    648e:	4f 70       	andi	r20, 0x0F	; 15
    6490:	40 5d       	subi	r20, 0xD0	; 208
    6492:	4a 33       	cpi	r20, 0x3A	; 58
    6494:	18 f0       	brcs	.+6      	; 0x649c <__ultoa_invert+0x7c>
    6496:	49 5d       	subi	r20, 0xD9	; 217
    6498:	31 fd       	sbrc	r19, 1
    649a:	40 52       	subi	r20, 0x20	; 32
    649c:	41 93       	st	Z+, r20
    649e:	02 d0       	rcall	.+4      	; 0x64a4 <__ultoa_invert+0x84>
    64a0:	a9 f7       	brne	.-22     	; 0x648c <__ultoa_invert+0x6c>
    64a2:	ea cf       	rjmp	.-44     	; 0x6478 <__ultoa_invert+0x58>
    64a4:	b4 e0       	ldi	r27, 0x04	; 4
    64a6:	a6 95       	lsr	r26
    64a8:	97 95       	ror	r25
    64aa:	87 95       	ror	r24
    64ac:	77 95       	ror	r23
    64ae:	67 95       	ror	r22
    64b0:	ba 95       	dec	r27
    64b2:	c9 f7       	brne	.-14     	; 0x64a6 <__ultoa_invert+0x86>
    64b4:	00 97       	sbiw	r24, 0x00	; 0
    64b6:	61 05       	cpc	r22, r1
    64b8:	71 05       	cpc	r23, r1
    64ba:	08 95       	ret
    64bc:	9b 01       	movw	r18, r22
    64be:	ac 01       	movw	r20, r24
    64c0:	0a 2e       	mov	r0, r26
    64c2:	06 94       	lsr	r0
    64c4:	57 95       	ror	r21
    64c6:	47 95       	ror	r20
    64c8:	37 95       	ror	r19
    64ca:	27 95       	ror	r18
    64cc:	ba 95       	dec	r27
    64ce:	c9 f7       	brne	.-14     	; 0x64c2 <__ultoa_invert+0xa2>
    64d0:	62 0f       	add	r22, r18
    64d2:	73 1f       	adc	r23, r19
    64d4:	84 1f       	adc	r24, r20
    64d6:	95 1f       	adc	r25, r21
    64d8:	a0 1d       	adc	r26, r0
    64da:	08 95       	ret

000064dc <eeprom_read_block>:
    64dc:	dc 01       	movw	r26, r24
    64de:	cb 01       	movw	r24, r22

000064e0 <eeprom_read_blraw>:
    64e0:	fc 01       	movw	r30, r24
    64e2:	f9 99       	sbic	0x1f, 1	; 31
    64e4:	fe cf       	rjmp	.-4      	; 0x64e2 <eeprom_read_blraw+0x2>
    64e6:	06 c0       	rjmp	.+12     	; 0x64f4 <eeprom_read_blraw+0x14>
    64e8:	f2 bd       	out	0x22, r31	; 34
    64ea:	e1 bd       	out	0x21, r30	; 33
    64ec:	f8 9a       	sbi	0x1f, 0	; 31
    64ee:	31 96       	adiw	r30, 0x01	; 1
    64f0:	00 b4       	in	r0, 0x20	; 32
    64f2:	0d 92       	st	X+, r0
    64f4:	41 50       	subi	r20, 0x01	; 1
    64f6:	50 40       	sbci	r21, 0x00	; 0
    64f8:	b8 f7       	brcc	.-18     	; 0x64e8 <eeprom_read_blraw+0x8>
    64fa:	08 95       	ret

000064fc <eeprom_read_byte>:
    64fc:	f9 99       	sbic	0x1f, 1	; 31
    64fe:	fe cf       	rjmp	.-4      	; 0x64fc <eeprom_read_byte>
    6500:	92 bd       	out	0x22, r25	; 34
    6502:	81 bd       	out	0x21, r24	; 33
    6504:	f8 9a       	sbi	0x1f, 0	; 31
    6506:	99 27       	eor	r25, r25
    6508:	80 b5       	in	r24, 0x20	; 32
    650a:	08 95       	ret

0000650c <eeprom_update_block>:
    650c:	dc 01       	movw	r26, r24
    650e:	a4 0f       	add	r26, r20
    6510:	b5 1f       	adc	r27, r21
    6512:	41 50       	subi	r20, 0x01	; 1
    6514:	50 40       	sbci	r21, 0x00	; 0
    6516:	48 f0       	brcs	.+18     	; 0x652a <eeprom_update_block+0x1e>
    6518:	cb 01       	movw	r24, r22
    651a:	84 0f       	add	r24, r20
    651c:	95 1f       	adc	r25, r21
    651e:	2e 91       	ld	r18, -X
    6520:	0e 94 97 32 	call	0x652e	; 0x652e <eeprom_update_r18>
    6524:	41 50       	subi	r20, 0x01	; 1
    6526:	50 40       	sbci	r21, 0x00	; 0
    6528:	d0 f7       	brcc	.-12     	; 0x651e <eeprom_update_block+0x12>
    652a:	08 95       	ret

0000652c <eeprom_update_byte>:
    652c:	26 2f       	mov	r18, r22

0000652e <eeprom_update_r18>:
    652e:	f9 99       	sbic	0x1f, 1	; 31
    6530:	fe cf       	rjmp	.-4      	; 0x652e <eeprom_update_r18>
    6532:	92 bd       	out	0x22, r25	; 34
    6534:	81 bd       	out	0x21, r24	; 33
    6536:	f8 9a       	sbi	0x1f, 0	; 31
    6538:	01 97       	sbiw	r24, 0x01	; 1
    653a:	00 b4       	in	r0, 0x20	; 32
    653c:	02 16       	cp	r0, r18
    653e:	39 f0       	breq	.+14     	; 0x654e <eeprom_update_r18+0x20>
    6540:	1f ba       	out	0x1f, r1	; 31
    6542:	20 bd       	out	0x20, r18	; 32
    6544:	0f b6       	in	r0, 0x3f	; 63
    6546:	f8 94       	cli
    6548:	fa 9a       	sbi	0x1f, 2	; 31
    654a:	f9 9a       	sbi	0x1f, 1	; 31
    654c:	0f be       	out	0x3f, r0	; 63
    654e:	08 95       	ret

00006550 <__mulsi3>:
    6550:	db 01       	movw	r26, r22
    6552:	8f 93       	push	r24
    6554:	9f 93       	push	r25
    6556:	0e 94 da 32 	call	0x65b4	; 0x65b4 <__muluhisi3>
    655a:	bf 91       	pop	r27
    655c:	af 91       	pop	r26
    655e:	a2 9f       	mul	r26, r18
    6560:	80 0d       	add	r24, r0
    6562:	91 1d       	adc	r25, r1
    6564:	a3 9f       	mul	r26, r19
    6566:	90 0d       	add	r25, r0
    6568:	b2 9f       	mul	r27, r18
    656a:	90 0d       	add	r25, r0
    656c:	11 24       	eor	r1, r1
    656e:	08 95       	ret

00006570 <__udivmodsi4>:
    6570:	a1 e2       	ldi	r26, 0x21	; 33
    6572:	1a 2e       	mov	r1, r26
    6574:	aa 1b       	sub	r26, r26
    6576:	bb 1b       	sub	r27, r27
    6578:	fd 01       	movw	r30, r26
    657a:	0d c0       	rjmp	.+26     	; 0x6596 <__udivmodsi4_ep>

0000657c <__udivmodsi4_loop>:
    657c:	aa 1f       	adc	r26, r26
    657e:	bb 1f       	adc	r27, r27
    6580:	ee 1f       	adc	r30, r30
    6582:	ff 1f       	adc	r31, r31
    6584:	a2 17       	cp	r26, r18
    6586:	b3 07       	cpc	r27, r19
    6588:	e4 07       	cpc	r30, r20
    658a:	f5 07       	cpc	r31, r21
    658c:	20 f0       	brcs	.+8      	; 0x6596 <__udivmodsi4_ep>
    658e:	a2 1b       	sub	r26, r18
    6590:	b3 0b       	sbc	r27, r19
    6592:	e4 0b       	sbc	r30, r20
    6594:	f5 0b       	sbc	r31, r21

00006596 <__udivmodsi4_ep>:
    6596:	66 1f       	adc	r22, r22
    6598:	77 1f       	adc	r23, r23
    659a:	88 1f       	adc	r24, r24
    659c:	99 1f       	adc	r25, r25
    659e:	1a 94       	dec	r1
    65a0:	69 f7       	brne	.-38     	; 0x657c <__udivmodsi4_loop>
    65a2:	60 95       	com	r22
    65a4:	70 95       	com	r23
    65a6:	80 95       	com	r24
    65a8:	90 95       	com	r25
    65aa:	9b 01       	movw	r18, r22
    65ac:	ac 01       	movw	r20, r24
    65ae:	bd 01       	movw	r22, r26
    65b0:	cf 01       	movw	r24, r30
    65b2:	08 95       	ret

000065b4 <__muluhisi3>:
    65b4:	0e 94 e5 32 	call	0x65ca	; 0x65ca <__umulhisi3>
    65b8:	a5 9f       	mul	r26, r21
    65ba:	90 0d       	add	r25, r0
    65bc:	b4 9f       	mul	r27, r20
    65be:	90 0d       	add	r25, r0
    65c0:	a4 9f       	mul	r26, r20
    65c2:	80 0d       	add	r24, r0
    65c4:	91 1d       	adc	r25, r1
    65c6:	11 24       	eor	r1, r1
    65c8:	08 95       	ret

000065ca <__umulhisi3>:
    65ca:	a2 9f       	mul	r26, r18
    65cc:	b0 01       	movw	r22, r0
    65ce:	b3 9f       	mul	r27, r19
    65d0:	c0 01       	movw	r24, r0
    65d2:	a3 9f       	mul	r26, r19
    65d4:	70 0d       	add	r23, r0
    65d6:	81 1d       	adc	r24, r1
    65d8:	11 24       	eor	r1, r1
    65da:	91 1d       	adc	r25, r1
    65dc:	b2 9f       	mul	r27, r18
    65de:	70 0d       	add	r23, r0
    65e0:	81 1d       	adc	r24, r1
    65e2:	11 24       	eor	r1, r1
    65e4:	91 1d       	adc	r25, r1
    65e6:	08 95       	ret

000065e8 <_exit>:
    65e8:	f8 94       	cli

000065ea <__stop_program>:
    65ea:	ff cf       	rjmp	.-2      	; 0x65ea <__stop_program>
