   1               		.file	"pdu.c"
   2               	__SP_H__ = 0x3e
   3               	__SP_L__ = 0x3d
   4               	__SREG__ = 0x3f
   5               	__RAMPZ__ = 0x3b
   6               	__tmp_reg__ = 0
   7               	__zero_reg__ = 1
   8               		.text
   9               	.Ltext0:
  10               		.cfi_sections	.debug_frame
  11               	.global	pdu_to_ascii
  13               	pdu_to_ascii:
  14               	.LFB1:
  15               		.file 1 "pdu.c"
   1:pdu.c         **** 
   2:pdu.c         **** #include "pdu.h"
   3:pdu.c         **** #include <string.h>
   4:pdu.c         **** #include "narzedzia.h"
   5:pdu.c         **** #include <avr/pgmspace.h>
   6:pdu.c         **** #include "konfiguracja.h"
   7:pdu.c         **** 
   8:pdu.c         **** #define ALPHABET_SIZE 128
   9:pdu.c         **** 
  10:pdu.c         **** static const uchar GSM_Default_Alphabet[ALPHABET_SIZE] PROGMEM = {
  11:pdu.c         **** 
  12:pdu.c         **** 	/* ETSI GSM 03.38, version 6.0.1, section 6.2.1; Default alphabet */
  13:pdu.c         **** 	/* Characters in hex position 10, [12 to 1a] and 24 are not present on
  14:pdu.c         **** 	   latin1 charset, so we cannot reproduce on the screen, however they are
  15:pdu.c         **** 	   greek symbol not present even on my Nokia */
  16:pdu.c         **** 
  17:pdu.c         **** 	'@',  0xa3, '$',  0xa5, 0xe8, 0xe9, 0xf9, 0xec, 
  18:pdu.c         **** 	0xf2, 0xc7, '\n', 0xd8, 0xf8, '\r', 0xc5, 0xe5,
  19:pdu.c         **** 	'?',  '_',  '?',  '?',  '?',  '?',  '?',  '?',
  20:pdu.c         **** 	'?',  '?',  '?',  '?',  0xc6, 0xe6, 0xdf, 0xc9,
  21:pdu.c         **** 	' ',  '!',  '\"', '#',  0xa4,  '%',  '&', '\'',
  22:pdu.c         **** 	'(',  ')',  '*',  '+',  ',',  '-',  '.',  '/',
  23:pdu.c         **** 	'0',  '1',  '2',  '3',  '4',  '5',  '6',  '7',
  24:pdu.c         **** 	'8',  '9',  ':',  ';',  '<',  '=',  '>',  '?',
  25:pdu.c         **** 	0xa1, 'A',  'B',  'C',  'D',  'E',  'F',  'G',
  26:pdu.c         **** 	'H',  'I',  'J',  'K',  'L',  'M',  'N',  'O',
  27:pdu.c         **** 	'P',  'Q',  'R',  'S',  'T',  'U',  'V',  'W',
  28:pdu.c         **** 	'X',  'Y',  'Z',  0xc4, 0xd6, 0xd1, 0xdc, 0xa7,
  29:pdu.c         **** 	0xbf, 'a',  'b',  'c',  'd',  'e',  'f',  'g',
  30:pdu.c         **** 	'h',  'i',  'j',  'k',  'l',  'm',  'n',  'o',
  31:pdu.c         **** 	'p',  'q',  'r',  's',  't',  'u',  'v',  'w',
  32:pdu.c         **** 	'x',  'y',  'z',  0xe4, 0xf6, 0xf1, 0xfc, 0xe0
  33:pdu.c         **** };
  34:pdu.c         **** 
  35:pdu.c         **** void pdu_to_ascii(const uchar* pdu, uchar* bufor, const uchar dim_bufor)
  36:pdu.c         **** {
  16               		.loc 1 36 0
  17               		.cfi_startproc
  18               	.LVL0:
  19 0000 CF92      		push r12
  20               	.LCFI0:
  21               		.cfi_def_cfa_offset 3
  22               		.cfi_offset 12, -2
  23 0002 DF92      		push r13
  24               	.LCFI1:
  25               		.cfi_def_cfa_offset 4
  26               		.cfi_offset 13, -3
  27 0004 EF92      		push r14
  28               	.LCFI2:
  29               		.cfi_def_cfa_offset 5
  30               		.cfi_offset 14, -4
  31 0006 FF92      		push r15
  32               	.LCFI3:
  33               		.cfi_def_cfa_offset 6
  34               		.cfi_offset 15, -5
  35 0008 0F93      		push r16
  36               	.LCFI4:
  37               		.cfi_def_cfa_offset 7
  38               		.cfi_offset 16, -6
  39 000a 1F93      		push r17
  40               	.LCFI5:
  41               		.cfi_def_cfa_offset 8
  42               		.cfi_offset 17, -7
  43 000c CF93      		push r28
  44               	.LCFI6:
  45               		.cfi_def_cfa_offset 9
  46               		.cfi_offset 28, -8
  47 000e DF93      		push r29
  48               	.LCFI7:
  49               		.cfi_def_cfa_offset 10
  50               		.cfi_offset 29, -9
  51               	/* prologue: function */
  52               	/* frame size = 0 */
  53               	/* stack size = 8 */
  54               	.L__stack_usage = 8
  37:pdu.c         **** 	const uchar l = *pdu++;
  55               		.loc 1 37 0
  56 0010 DC01      		movw r26,r24
  57 0012 1196      		adiw r26,1
  58               	.LVL1:
  59 0014 FC01      		movw r30,r24
  60 0016 F080      		ld r15,Z
  61               	.LVL2:
  38:pdu.c         **** 	uchar* ascii = bufor;
  39:pdu.c         **** 	uchar flaga = 0x80;
  40:pdu.c         **** 	uchar pom = 0;
  41:pdu.c         **** 	uchar w = 0;
  42:pdu.c         **** 	const uchar roz_1 = min(dim_bufor-1, l);
  62               		.loc 1 42 0
  63 0018 F416      		cp r15,r20
  64 001a 00F0      		brlo .L2
  65               		.loc 1 42 0 is_stmt 0 discriminator 1
  66 001c FF24      		clr r15
  67 001e FA94      		dec r15
  68               	.LVL3:
  69 0020 F40E      		add r15,r20
  70               	.L2:
  71               	.LVL4:
  72 0022 EB01      		movw r28,r22
  73               	.LBB2:
  43:pdu.c         **** 	for (uchar i = 0; i < roz_1; )
  74               		.loc 1 43 0 is_stmt 1 discriminator 4
  75 0024 40E0      		ldi r20,0
  76               	.LVL5:
  77               	.LBE2:
  41:pdu.c         **** 	const uchar roz_1 = min(dim_bufor-1, l);
  78               		.loc 1 41 0 discriminator 4
  79 0026 E12C      		mov r14,__zero_reg__
  40:pdu.c         **** 	uchar w = 0;
  80               		.loc 1 40 0 discriminator 4
  81 0028 E0E0      		ldi r30,0
  39:pdu.c         **** 	uchar pom = 0;
  82               		.loc 1 39 0 discriminator 4
  83 002a 50E8      		ldi r21,lo8(-128)
  84               	.LBB6:
  85               	.LBB3:
  44:pdu.c         **** {
  45:pdu.c         **** 		*ascii++ = pgm_read_byte(GSM_Default_Alphabet + (((*pdu & (~flaga)) << w) + pom));
  46:pdu.c         **** 		const uchar k = ++i & 0x07;
  47:pdu.c         **** 		if ( k != 0 )
  48:pdu.c         **** 		{
  49:pdu.c         **** 			pom = (*pdu++ & flaga) >> (7 - w);
  86               		.loc 1 49 0 discriminator 4
  87 002c 87E0      		ldi r24,lo8(7)
  88 002e 90E0      		ldi r25,0
  89               	.LVL6:
  90               	.L3:
  91               	.LBE3:
  43:pdu.c         **** {
  92               		.loc 1 43 0 discriminator 1
  93 0030 4F11      		cpse r20,r15
  94 0032 00C0      		rjmp .L5
  95               	.LBE6:
  50:pdu.c         **** 			flaga = (flaga >> 1) + 0x80;
  51:pdu.c         **** 		}
  52:pdu.c         **** 		else
  53:pdu.c         **** 		{
  54:pdu.c         **** 			flaga = 0x80;
  55:pdu.c         **** 			pom = 0;
  56:pdu.c         **** 		}
  57:pdu.c         **** 		w = k;
  58:pdu.c         **** 	}
  59:pdu.c         **** 	*ascii = '\0';
  96               		.loc 1 59 0
  97 0034 640F      		add r22,r20
  98 0036 711D      		adc r23,__zero_reg__
  99               	.LVL7:
 100 0038 FB01      		movw r30,r22
 101               	.LVL8:
 102 003a 1082      		st Z,__zero_reg__
 103               	/* epilogue start */
  60:pdu.c         **** }
 104               		.loc 1 60 0
 105 003c DF91      		pop r29
 106 003e CF91      		pop r28
 107               	.LVL9:
 108 0040 1F91      		pop r17
 109 0042 0F91      		pop r16
 110 0044 FF90      		pop r15
 111               	.LVL10:
 112 0046 EF90      		pop r14
 113               	.LVL11:
 114 0048 DF90      		pop r13
 115 004a CF90      		pop r12
 116 004c 0895      		ret
 117               	.LVL12:
 118               	.L5:
 119               	.LBB7:
 120               	.LBB5:
 121               	.LBB4:
  45:pdu.c         **** 		const uchar k = ++i & 0x07;
 122               		.loc 1 45 0
 123 004e 2E2D      		mov r18,r14
 124 0050 30E0      		ldi r19,0
 125               	.LVL13:
 126 0052 0C91      		ld r16,X
 127 0054 10E0      		ldi r17,0
 128 0056 C52E      		mov r12,r21
 129 0058 D12C      		mov r13,__zero_reg__
 130 005a C094      		com r12
 131 005c D094      		com r13
 132 005e 0C21      		and r16,r12
 133 0060 1D21      		and r17,r13
 134 0062 00C0      		rjmp 2f
 135               		1:
 136 0064 000F      		lsl r16
 137 0066 111F      		rol r17
 138               		2:
 139 0068 EA94      		dec r14
 140 006a 02F4      		brpl 1b
 141 006c E00F      		add r30,r16
 142 006e F12F      		mov r31,r17
 143 0070 F11D      		adc r31,__zero_reg__
 144               	.LVL14:
 145 0072 E050      		subi r30,lo8(-(GSM_Default_Alphabet))
 146 0074 F040      		sbci r31,hi8(-(GSM_Default_Alphabet))
 147               	/* #APP */
 148               	 ;  45 "pdu.c" 1
 149 0076 E491      		lpm r30, Z
 150               		
 151               	 ;  0 "" 2
 152               	.LVL15:
 153               	/* #NOAPP */
 154               	.LBE4:
 155 0078 E993      		st Y+,r30
 156               	.LVL16:
  46:pdu.c         **** 		if ( k != 0 )
 157               		.loc 1 46 0
 158 007a 4F5F      		subi r20,lo8(-(1))
 159               	.LVL17:
 160 007c F42F      		mov r31,r20
 161 007e F770      		andi r31,lo8(7)
 162 0080 EF2E      		mov r14,r31
 163               	.LVL18:
  47:pdu.c         **** 		{
 164               		.loc 1 47 0
 165 0082 01F0      		breq .L6
 166               	.LVL19:
  49:pdu.c         **** 			flaga = (flaga >> 1) + 0x80;
 167               		.loc 1 49 0
 168 0084 EC91      		ld r30,X
 169               	.LVL20:
 170 0086 E523      		and r30,r21
 171 0088 F0E0      		ldi r31,0
 172 008a 8C01      		movw r16,r24
 173 008c 021B      		sub r16,r18
 174 008e 130B      		sbc r17,r19
 175 0090 00C0      		rjmp 2f
 176               		1:
 177 0092 F595      		asr r31
 178 0094 E795      		ror r30
 179               		2:
 180 0096 0A95      		dec r16
 181 0098 02F4      		brpl 1b
  50:pdu.c         **** 		}
 182               		.loc 1 50 0
 183 009a 5695      		lsr r21
 184               	.LVL21:
 185 009c 5058      		subi r21,lo8(-(-128))
 186               	.LVL22:
  49:pdu.c         **** 			flaga = (flaga >> 1) + 0x80;
 187               		.loc 1 49 0
 188 009e 1196      		adiw r26,1
 189               	.LVL23:
 190 00a0 00C0      		rjmp .L3
 191               	.LVL24:
 192               	.L6:
  55:pdu.c         **** 		}
 193               		.loc 1 55 0
 194 00a2 E0E0      		ldi r30,0
 195               	.LVL25:
  54:pdu.c         **** 			pom = 0;
 196               		.loc 1 54 0
 197 00a4 50E8      		ldi r21,lo8(-128)
 198               	.LVL26:
 199 00a6 00C0      		rjmp .L3
 200               	.LBE5:
 201               	.LBE7:
 202               		.cfi_endproc
 203               	.LFE1:
 205               	.global	ascii_to_pdu_blok
 207               	ascii_to_pdu_blok:
 208               	.LFB2:
  61:pdu.c         **** 
  62:pdu.c         **** static const uchar GSM_Default_DeAlphabet[256] PROGMEM = {
  63:pdu.c         **** 	0x3f, 0x3f, 0x3f, 0x3f, 0x3f, 0x3f, 0x3f, 0x3f, 0x3f, 0x3f, 0x0a, 0x3f, 0x3f, 0x0d, 0x3f, 0x3f, 
  64:pdu.c         **** 	0x3f, 0x3f, 0x3f, 0x3f, 0x3f, 0x3f, 0x3f, 0x3f, 0x3f, 0x3f, 0x3f, 0x3f, 0x3f, 0x3f, 0x3f, 0x3f, 
  65:pdu.c         **** 	0x20, 0x21, 0x22, 0x23, 0x02, 0x25, 0x26, 0x27, 0x28, 0x29, 0x2a, 0x2b, 0x2c, 0x2d, 0x2e, 0x2f, 
  66:pdu.c         **** 	0x30, 0x31, 0x32, 0x33, 0x34, 0x35, 0x36, 0x37, 0x38, 0x39, 0x3a, 0x3b, 0x3c, 0x3d, 0x3e, 0x3f, 
  67:pdu.c         **** 	0x00, 0x41, 0x42, 0x43, 0x44, 0x45, 0x46, 0x47, 0x48, 0x49, 0x4a, 0x4b, 0x4c, 0x4d, 0x4e, 0x4f, 
  68:pdu.c         **** 	0x50, 0x51, 0x52, 0x53, 0x54, 0x55, 0x56, 0x57, 0x58, 0x59, 0x5a, 0x3f, 0x3f, 0x3f, 0x3f, 0x11, 
  69:pdu.c         **** 	0x3f, 0x61, 0x62, 0x63, 0x64, 0x65, 0x66, 0x67, 0x68, 0x69, 0x6a, 0x6b, 0x6c, 0x6d, 0x6e, 0x6f, 
  70:pdu.c         **** 	0x70, 0x71, 0x72, 0x73, 0x74, 0x75, 0x76, 0x77, 0x78, 0x79, 0x7a, 0x3f, 0x3f, 0x3f, 0x3f, 0x3f, 
  71:pdu.c         **** 	0x3f, 0x3f, 0x3f, 0x3f, 0x3f, 0x3f, 0x3f, 0x3f, 0x3f, 0x3f, 0x3f, 0x3f, 0x3f, 0x3f, 0x3f, 0x3f, 
  72:pdu.c         **** 	0x3f, 0x3f, 0x3f, 0x3f, 0x3f, 0x3f, 0x3f, 0x3f, 0x3f, 0x3f, 0x3f, 0x3f, 0x3f, 0x3f, 0x3f, 0x3f, 
  73:pdu.c         **** 	0x3f, 0x40, 0x3f, 0x01, 0x24, 0x03, 0x3f, 0x5f, 0x3f, 0x3f, 0x3f, 0x3f, 0x3f, 0x3f, 0x3f, 0x3f, 
  74:pdu.c         **** 	0x3f, 0x3f, 0x3f, 0x3f, 0x3f, 0x3f, 0x3f, 0x3f, 0x3f, 0x3f, 0x3f, 0x3f, 0x3f, 0x3f, 0x3f, 0x60, 
  75:pdu.c         **** 	0x3f, 0x3f, 0x3f, 0x3f, 0x5b, 0x0e, 0x1c, 0x09, 0x3f, 0x1f, 0x3f, 0x3f, 0x3f, 0x3f, 0x3f, 0x3f, 
  76:pdu.c         **** 	0x3f, 0x5d, 0x3f, 0x3f, 0x3f, 0x3f, 0x5c, 0x3f, 0x0b, 0x3f, 0x3f, 0x3f, 0x5e, 0x3f, 0x3f, 0x1e, 
  77:pdu.c         **** 	0x7f, 0x3f, 0x3f, 0x3f, 0x7b, 0x0f, 0x1d, 0x3f, 0x04, 0x05, 0x3f, 0x3f, 0x07, 0x3f, 0x3f, 0x3f, 
  78:pdu.c         **** 	0x3f, 0x7d, 0x08, 0x3f, 0x3f, 0x3f, 0x7c, 0x3f, 0x0c, 0x06, 0x3f, 0x3f, 0x7e, 0x3f, 0x3f, 0x3f
  79:pdu.c         **** };
  80:pdu.c         **** 
  81:pdu.c         **** uchar* ascii_to_pdu_blok(uchar* bufor_pdu, const uchar* ascii, 
  82:pdu.c         **** 	const uchar* ascii_end)
  83:pdu.c         **** {
 209               		.loc 1 83 0
 210               		.cfi_startproc
 211               	.LVL27:
 212 00a8 CF92      		push r12
 213               	.LCFI8:
 214               		.cfi_def_cfa_offset 3
 215               		.cfi_offset 12, -2
 216 00aa DF92      		push r13
 217               	.LCFI9:
 218               		.cfi_def_cfa_offset 4
 219               		.cfi_offset 13, -3
 220 00ac EF92      		push r14
 221               	.LCFI10:
 222               		.cfi_def_cfa_offset 5
 223               		.cfi_offset 14, -4
 224 00ae FF92      		push r15
 225               	.LCFI11:
 226               		.cfi_def_cfa_offset 6
 227               		.cfi_offset 15, -5
 228 00b0 0F93      		push r16
 229               	.LCFI12:
 230               		.cfi_def_cfa_offset 7
 231               		.cfi_offset 16, -6
 232 00b2 1F93      		push r17
 233               	.LCFI13:
 234               		.cfi_def_cfa_offset 8
 235               		.cfi_offset 17, -7
 236 00b4 CF93      		push r28
 237               	.LCFI14:
 238               		.cfi_def_cfa_offset 9
 239               		.cfi_offset 28, -8
 240 00b6 DF93      		push r29
 241               	.LCFI15:
 242               		.cfi_def_cfa_offset 10
 243               		.cfi_offset 29, -9
 244               	/* prologue: function */
 245               	/* frame size = 0 */
 246               	/* stack size = 8 */
 247               	.L__stack_usage = 8
 248 00b8 8C01      		movw r16,r24
  84:pdu.c         **** 	bufor_pdu[0] = (uchar)(ascii_end - ascii);
 249               		.loc 1 84 0
 250 00ba CA01      		movw r24,r20
 251               	.LVL28:
 252 00bc 861B      		sub r24,r22
 253 00be 970B      		sbc r25,r23
 254 00c0 E801      		movw r28,r16
 255 00c2 8993      		st Y+,r24
  85:pdu.c         **** 	const uchar roz_1 = bufor_pdu[0] - 1;	// rozmiar = roz_1 + 1
 256               		.loc 1 85 0
 257 00c4 8150      		subi r24,lo8(-(-1))
 258               	.LVL29:
  86:pdu.c         **** 	uchar j = 0;
  87:pdu.c         **** 	uchar l = 0;
 259               		.loc 1 87 0
 260 00c6 90E0      		ldi r25,0
  86:pdu.c         **** 	uchar j = 0;
 261               		.loc 1 86 0
 262 00c8 20E0      		ldi r18,0
 263               	.LBB8:
  88:pdu.c         **** 	uchar* pdu_ptr = bufor_pdu+1;
  89:pdu.c         **** 	uchar konwersja;
  90:pdu.c         **** 	while ( j < roz_1 )
  91:pdu.c         **** 	{
  92:pdu.c         **** 		uchar l_7 = 7 - l;
  93:pdu.c         **** 		konwersja = ((pgm_read_byte(GSM_Default_DeAlphabet + ascii[j])) & (0x7fu << l)) >> l;
 264               		.loc 1 93 0
 265 00ca 4FE7      		ldi r20,lo8(127)
 266 00cc 50E0      		ldi r21,0
 267               	.LVL30:
  92:pdu.c         **** 		konwersja = ((pgm_read_byte(GSM_Default_DeAlphabet + ascii[j])) & (0x7fu << l)) >> l;
 268               		.loc 1 92 0
 269 00ce 37E0      		ldi r19,lo8(7)
  94:pdu.c         **** 		konwersja |= ((pgm_read_byte(GSM_Default_DeAlphabet + ascii[j+1])) & (0xffu >> l_7)) << l_7;
 270               		.loc 1 94 0
 271 00d0 EE24      		clr r14
 272 00d2 EA94      		dec r14
 273 00d4 F12C      		mov r15,__zero_reg__
 274               	.LVL31:
 275               	.L8:
 276 00d6 DE01      		movw r26,r28
 277               	.LVL32:
 278               	.LBE8:
  90:pdu.c         **** 	{
 279               		.loc 1 90 0
 280 00d8 2817      		cp r18,r24
 281 00da 00F0      		brlo .L10
  95:pdu.c         **** 		//*pdu_ptr++ = pgm_read_byte(GSM_Default_DeAlphabet + konwersja);
  96:pdu.c         **** 		*pdu_ptr++ = konwersja;
  97:pdu.c         **** 		if ( ++l == 7 )
  98:pdu.c         **** 		{
  99:pdu.c         **** 			l = 0;
 100:pdu.c         **** 			++j;
 101:pdu.c         **** 		}
 102:pdu.c         **** 		++j;
 103:pdu.c         **** 	}
 104:pdu.c         **** 	if ( bufor_pdu[0] % 8 != 0 )
 282               		.loc 1 104 0
 283 00dc F801      		movw r30,r16
 284 00de 8081      		ld r24,Z
 285               	.LVL33:
 286 00e0 8770      		andi r24,lo8(7)
 287 00e2 01F0      		breq .L7
 288               	.LVL34:
 289               	.LBB11:
 105:pdu.c         **** 	{
 106:pdu.c         **** 		konwersja = (((pgm_read_byte(GSM_Default_DeAlphabet + ascii[j])) & (0x7fu << l)) >> l );
 290               		.loc 1 106 0
 291 00e4 FB01      		movw r30,r22
 292 00e6 E20F      		add r30,r18
 293 00e8 F11D      		adc r31,__zero_reg__
 294 00ea E081      		ld r30,Z
 295 00ec F0E0      		ldi r31,0
 296 00ee E050      		subi r30,lo8(-(GSM_Default_DeAlphabet))
 297 00f0 F040      		sbci r31,hi8(-(GSM_Default_DeAlphabet))
 298               	/* #APP */
 299               	 ;  106 "pdu.c" 1
 300 00f2 2491      		lpm r18, Z
 301               		
 302               	 ;  0 "" 2
 303               	.LVL35:
 304               	/* #NOAPP */
 305               	.LBE11:
 306 00f4 4FE7      		ldi r20,lo8(127)
 307 00f6 50E0      		ldi r21,0
 308 00f8 092E      		mov r0,r25
 309 00fa 00C0      		rjmp 2f
 310               		1:
 311 00fc 440F      		lsl r20
 312 00fe 551F      		rol r21
 313               		2:
 314 0100 0A94      		dec r0
 315 0102 02F4      		brpl 1b
 316 0104 E22F      		mov r30,r18
 317 0106 F0E0      		ldi r31,0
 318 0108 E423      		and r30,r20
 319 010a F523      		and r31,r21
 320 010c 00C0      		rjmp 2f
 321               		1:
 322 010e F695      		lsr r31
 323 0110 E795      		ror r30
 324               		2:
 325 0112 9A95      		dec r25
 326 0114 02F4      		brpl 1b
 327 0116 E883      		st Y,r30
 107:pdu.c         **** 		//*pdu_ptr++ = pgm_read_byte(GSM_Default_DeAlphabet + konwersja);
 108:pdu.c         **** 		*pdu_ptr++ = konwersja;
 328               		.loc 1 108 0
 329 0118 1196      		adiw r26,1
 330               	.LVL36:
 331               	.L7:
 109:pdu.c         **** 	}
 110:pdu.c         **** 	return pdu_ptr;
 111:pdu.c         **** }
 332               		.loc 1 111 0
 333 011a CD01      		movw r24,r26
 334               	/* epilogue start */
 335 011c DF91      		pop r29
 336 011e CF91      		pop r28
 337 0120 1F91      		pop r17
 338 0122 0F91      		pop r16
 339               	.LVL37:
 340 0124 FF90      		pop r15
 341 0126 EF90      		pop r14
 342 0128 DF90      		pop r13
 343 012a CF90      		pop r12
 344 012c 0895      		ret
 345               	.LVL38:
 346               	.L10:
 347               	.LBB12:
 348               	.LBB9:
  93:pdu.c         **** 		konwersja |= ((pgm_read_byte(GSM_Default_DeAlphabet + ascii[j+1])) & (0xffu >> l_7)) << l_7;
 349               		.loc 1 93 0
 350 012e 6B01      		movw r12,r22
 351 0130 C20E      		add r12,r18
 352 0132 D11C      		adc r13,__zero_reg__
 353               	.LVL39:
 354 0134 D601      		movw r26,r12
 355               	.LVL40:
 356 0136 EC91      		ld r30,X
 357 0138 F0E0      		ldi r31,0
 358 013a E050      		subi r30,lo8(-(GSM_Default_DeAlphabet))
 359 013c F040      		sbci r31,hi8(-(GSM_Default_DeAlphabet))
 360               	/* #APP */
 361               	 ;  93 "pdu.c" 1
 362 013e E491      		lpm r30, Z
 363               		
 364               	 ;  0 "" 2
 365               	.LVL41:
 366               	/* #NOAPP */
 367               	.LBE9:
 368 0140 DA01      		movw r26,r20
 369 0142 092E      		mov r0,r25
 370 0144 00C0      		rjmp 2f
 371               		1:
 372 0146 AA0F      		lsl r26
 373 0148 BB1F      		rol r27
 374               		2:
 375 014a 0A94      		dec r0
 376 014c 02F4      		brpl 1b
 377 014e F0E0      		ldi r31,0
 378 0150 AE23      		and r26,r30
 379 0152 BF23      		and r27,r31
 380 0154 092E      		mov r0,r25
 381 0156 00C0      		rjmp 2f
 382               		1:
 383 0158 B695      		lsr r27
 384 015a A795      		ror r26
 385               		2:
 386 015c 0A94      		dec r0
 387 015e 02F4      		brpl 1b
 388               	.LVL42:
 389               	.LBB10:
  94:pdu.c         **** 		//*pdu_ptr++ = pgm_read_byte(GSM_Default_DeAlphabet + konwersja);
 390               		.loc 1 94 0
 391 0160 F601      		movw r30,r12
 392               	.LVL43:
 393 0162 B181      		ldd r27,Z+1
 394 0164 EB2F      		mov r30,r27
 395 0166 F0E0      		ldi r31,0
 396 0168 E050      		subi r30,lo8(-(GSM_Default_DeAlphabet))
 397 016a F040      		sbci r31,hi8(-(GSM_Default_DeAlphabet))
 398               	/* #APP */
 399               	 ;  94 "pdu.c" 1
 400 016c E491      		lpm r30, Z
 401               		
 402               	 ;  0 "" 2
 403               	.LVL44:
 404               	/* #NOAPP */
 405               	.LBE10:
  92:pdu.c         **** 		konwersja = ((pgm_read_byte(GSM_Default_DeAlphabet + ascii[j])) & (0x7fu << l)) >> l;
 406               		.loc 1 92 0
 407 016e B32F      		mov r27,r19
 408 0170 B91B      		sub r27,r25
 409               	.LVL45:
  94:pdu.c         **** 		//*pdu_ptr++ = pgm_read_byte(GSM_Default_DeAlphabet + konwersja);
 410               		.loc 1 94 0
 411 0172 6701      		movw r12,r14
 412               	.LVL46:
 413 0174 0B2E      		mov r0,r27
 414 0176 00C0      		rjmp 2f
 415               		1:
 416 0178 D694      		lsr r13
 417 017a C794      		ror r12
 418               		2:
 419 017c 0A94      		dec r0
 420 017e 02F4      		brpl 1b
 421 0180 EC21      		and r30,r12
 422               	.LVL47:
 423 0182 00C0      		rjmp 2f
 424               		1:
 425 0184 EE0F      		lsl r30
 426               		2:
 427 0186 BA95      		dec r27
 428 0188 02F4      		brpl 1b
 429 018a EA2B      		or r30,r26
  96:pdu.c         **** 		if ( ++l == 7 )
 430               		.loc 1 96 0
 431 018c E993      		st Y+,r30
 432               	.LVL48:
  97:pdu.c         **** 		{
 433               		.loc 1 97 0
 434 018e 9F5F      		subi r25,lo8(-(1))
 435               	.LVL49:
 436 0190 9730      		cpi r25,lo8(7)
 437 0192 01F4      		brne .L9
 438 0194 2F5F      		subi r18,lo8(-(1))
 439               	.LVL50:
  99:pdu.c         **** 			++j;
 440               		.loc 1 99 0
 441 0196 90E0      		ldi r25,0
 442               	.LVL51:
 443               	.L9:
 102:pdu.c         **** 	}
 444               		.loc 1 102 0
 445 0198 2F5F      		subi r18,lo8(-(1))
 446               	.LVL52:
 447 019a 00C0      		rjmp .L8
 448               	.LBE12:
 449               		.cfi_endproc
 450               	.LFE2:
 452               	.global	konwertuj_blok_dwa_znaki_na_znak_pdu
 454               	konwertuj_blok_dwa_znaki_na_znak_pdu:
 455               	.LFB3:
 112:pdu.c         **** 
 113:pdu.c         **** void konwertuj_blok_dwa_znaki_na_znak_pdu(const uchar* blok_danych, 
 114:pdu.c         **** 	const uchar liczba_znakow, uchar* ptr)
 115:pdu.c         **** {
 456               		.loc 1 115 0
 457               		.cfi_startproc
 458               	.LVL53:
 459               	/* prologue: function */
 460               	/* frame size = 0 */
 461               	/* stack size = 0 */
 462               	.L__stack_usage = 0
 463 019c FC01      		movw r30,r24
 464               	.LBB13:
 116:pdu.c         **** 	for (uint i = 0; i < liczba_znakow; ++i)
 465               		.loc 1 116 0
 466 019e DA01      		movw r26,r20
 467 01a0 70E0      		ldi r23,0
 468               	.LVL54:
 469               	.L16:
 470               		.loc 1 116 0 is_stmt 0 discriminator 2
 471 01a2 CD01      		movw r24,r26
 472 01a4 841B      		sub r24,r20
 473 01a6 950B      		sbc r25,r21
 474 01a8 8617      		cp r24,r22
 475 01aa 9707      		cpc r25,r23
 476 01ac 00F0      		brlo .L21
 477               	/* epilogue start */
 478               	.LBE13:
 117:pdu.c         **** 	{
 118:pdu.c         **** 		uchar ch = *blok_danych++;
 119:pdu.c         **** 		uchar wynik = ( ch < ('9' + 1)) ? (ch - '0') : (ch - ('A' - 10));
 120:pdu.c         **** 		wynik <<= 4;
 121:pdu.c         **** 		ch = *blok_danych++;
 122:pdu.c         **** 		wynik += ( ch < ('9' + 1)) ? (ch - '0') : (ch - ('A' - 10));
 123:pdu.c         **** 		*ptr++ = wynik;
 124:pdu.c         **** 	}
 125:pdu.c         **** }
 479               		.loc 1 125 0 is_stmt 1
 480 01ae 0895      		ret
 481               	.L21:
 482               	.LVL55:
 483               	.LBB15:
 484               	.LBB14:
 118:pdu.c         **** 		uchar wynik = ( ch < ('9' + 1)) ? (ch - '0') : (ch - ('A' - 10));
 485               		.loc 1 118 0
 486 01b0 9081      		ld r25,Z
 487               	.LVL56:
 119:pdu.c         **** 		wynik <<= 4;
 488               		.loc 1 119 0
 489 01b2 9A33      		cpi r25,lo8(58)
 490 01b4 00F4      		brsh .L17
 119:pdu.c         **** 		wynik <<= 4;
 491               		.loc 1 119 0 is_stmt 0 discriminator 1
 492 01b6 9053      		subi r25,lo8(-(-48))
 493               	.LVL57:
 494               	.L18:
 120:pdu.c         **** 		ch = *blok_danych++;
 495               		.loc 1 120 0 is_stmt 1 discriminator 4
 496 01b8 292F      		mov r18,r25
 497 01ba 2295      		swap r18
 498 01bc 207F      		andi r18,lo8(-16)
 499               	.LVL58:
 121:pdu.c         **** 		wynik += ( ch < ('9' + 1)) ? (ch - '0') : (ch - ('A' - 10));
 500               		.loc 1 121 0 discriminator 4
 501 01be 9181      		ldd r25,Z+1
 502               	.LVL59:
 122:pdu.c         **** 		*ptr++ = wynik;
 503               		.loc 1 122 0 discriminator 4
 504 01c0 9A33      		cpi r25,lo8(58)
 505 01c2 00F4      		brsh .L19
 122:pdu.c         **** 		*ptr++ = wynik;
 506               		.loc 1 122 0 is_stmt 0 discriminator 1
 507 01c4 9053      		subi r25,lo8(-(-48))
 508               	.LVL60:
 509               	.L20:
 122:pdu.c         **** 		*ptr++ = wynik;
 510               		.loc 1 122 0 discriminator 4
 511 01c6 920F      		add r25,r18
 512               	.LVL61:
 123:pdu.c         **** 	}
 513               		.loc 1 123 0 is_stmt 1 discriminator 4
 514 01c8 9D93      		st X+,r25
 515               	.LVL62:
 516 01ca 3296      		adiw r30,2
 517               	.LVL63:
 518 01cc 00C0      		rjmp .L16
 519               	.LVL64:
 520               	.L17:
 119:pdu.c         **** 		wynik <<= 4;
 521               		.loc 1 119 0 discriminator 2
 522 01ce 9753      		subi r25,lo8(-(-55))
 523               	.LVL65:
 524 01d0 00C0      		rjmp .L18
 525               	.LVL66:
 526               	.L19:
 122:pdu.c         **** 		*ptr++ = wynik;
 527               		.loc 1 122 0 discriminator 2
 528 01d2 9753      		subi r25,lo8(-(-55))
 529               	.LVL67:
 530 01d4 00C0      		rjmp .L20
 531               	.LBE14:
 532               	.LBE15:
 533               		.cfi_endproc
 534               	.LFE3:
 536               	.global	pobierz_numer_telefonu_nadawcy_z_PDU
 538               	pobierz_numer_telefonu_nadawcy_z_PDU:
 539               	.LFB4:
 126:pdu.c         **** 
 127:pdu.c         **** uchar* pobierz_numer_telefonu_nadawcy_z_PDU(const uchar* pdu_ptr, uchar* bufor_numer_telefonu, ucha
 128:pdu.c         **** {
 540               		.loc 1 128 0
 541               		.cfi_startproc
 542               	.LVL68:
 543 01d6 1F93      		push r17
 544               	.LCFI16:
 545               		.cfi_def_cfa_offset 3
 546               		.cfi_offset 17, -2
 547 01d8 CF93      		push r28
 548               	.LCFI17:
 549               		.cfi_def_cfa_offset 4
 550               		.cfi_offset 28, -3
 551 01da DF93      		push r29
 552               	.LCFI18:
 553               		.cfi_def_cfa_offset 5
 554               		.cfi_offset 29, -4
 555               	/* prologue: function */
 556               	/* frame size = 0 */
 557               	/* stack size = 3 */
 558               	.L__stack_usage = 3
 559 01dc DC01      		movw r26,r24
 560 01de EA01      		movw r28,r20
 129:pdu.c         **** 	//pdu_ptr += pdu_ptr[0] + 2;
 130:pdu.c         **** 	if ( (pdu_ptr[0] + 1) >= 200 )	// (1)
 561               		.loc 1 130 0
 562 01e0 8C91      		ld r24,X
 563               	.LVL69:
 564 01e2 873C      		cpi r24,lo8(-57)
 565 01e4 00F0      		brlo .L23
 566               	.LVL70:
 567               	.L26:
 131:pdu.c         **** 	{
 132:pdu.c         **** 		*bufor_numer_telefonu = 0;
 568               		.loc 1 132 0
 569 01e6 DB01      		movw r26,r22
 570 01e8 1C92      		st X,__zero_reg__
 133:pdu.c         **** 		*nietypowy_sms = TRUE;
 571               		.loc 1 133 0
 572 01ea 8FEF      		ldi r24,lo8(-1)
 573 01ec 8883      		st Y,r24
 134:pdu.c         **** 		return 0;
 574               		.loc 1 134 0
 575 01ee 90E0      		ldi r25,0
 576 01f0 80E0      		ldi r24,0
 577               	.LVL71:
 578               	.L22:
 579               	/* epilogue start */
 135:pdu.c         **** 	}
 136:pdu.c         **** 	*nietypowy_sms = FALSE;
 137:pdu.c         **** 	pdu_ptr += pdu_ptr[0] + 1;
 138:pdu.c         **** 	if ( ! (*pdu_ptr == 0x04 || *pdu_ptr == 0x00) )	//First octet of the SMS-DELIVER PDU
 139:pdu.c         **** 		*nietypowy_sms = TRUE;
 140:pdu.c         **** 	++pdu_ptr;
 141:pdu.c         **** 	const uchar liczba_cyfr_w_telefonie = *pdu_ptr++;
 142:pdu.c         **** 	if ( liczba_cyfr_w_telefonie > MAX_LICZBA_ZNAKOW_TELEFON )	// (1)
 143:pdu.c         **** 	{
 144:pdu.c         **** 		*bufor_numer_telefonu = 0;
 145:pdu.c         **** 		*nietypowy_sms = TRUE;
 146:pdu.c         **** 		return 0;
 147:pdu.c         **** 	}
 148:pdu.c         **** 	const uchar typ_telefonu = *pdu_ptr++;
 149:pdu.c         **** 	const uchar dobry_telefon = (typ_telefonu == 129 || typ_telefonu == 145);
 150:pdu.c         **** 	if ( typ_telefonu == 145 )
 151:pdu.c         **** 		*bufor_numer_telefonu++ = '+';
 152:pdu.c         **** 	for (uchar i = 0; i < liczba_cyfr_w_telefonie; ++i)
 153:pdu.c         **** 	{
 154:pdu.c         **** 		uchar znak = *pdu_ptr;
 155:pdu.c         **** 		if ( (i & 0x01) != 0)
 156:pdu.c         **** 		{
 157:pdu.c         **** 			SWAP(znak);
 158:pdu.c         **** 			++pdu_ptr;
 159:pdu.c         **** 		}
 160:pdu.c         **** 		*bufor_numer_telefonu++ = (dobry_telefon ? ((znak & 0x0f) + '0') : '0');
 161:pdu.c         **** 	}
 162:pdu.c         **** 	*bufor_numer_telefonu = '\0';
 163:pdu.c         **** 	if ( !(liczba_cyfr_w_telefonie & 0x01) )
 164:pdu.c         **** 		--pdu_ptr;
 165:pdu.c         **** 	if ( pdu_ptr[2] != 0 )	// TP-DCS Data coding scheme
 166:pdu.c         **** 		*nietypowy_sms = TRUE;
 167:pdu.c         **** 	pdu_ptr += 3;
 168:pdu.c         **** 	return (uchar*) pdu_ptr;
 169:pdu.c         **** }
 580               		.loc 1 169 0
 581 01f2 DF91      		pop r29
 582 01f4 CF91      		pop r28
 583               	.LVL72:
 584 01f6 1F91      		pop r17
 585 01f8 0895      		ret
 586               	.LVL73:
 587               	.L23:
 136:pdu.c         **** 	pdu_ptr += pdu_ptr[0] + 1;
 588               		.loc 1 136 0
 589 01fa 1882      		st Y,__zero_reg__
 137:pdu.c         **** 	if ( ! (*pdu_ptr == 0x04 || *pdu_ptr == 0x00) )	//First octet of the SMS-DELIVER PDU
 590               		.loc 1 137 0
 591 01fc 8C91      		ld r24,X
 592 01fe 90E0      		ldi r25,0
 593 0200 0196      		adiw r24,1
 594 0202 A80F      		add r26,r24
 595 0204 B91F      		adc r27,r25
 596               	.LVL74:
 138:pdu.c         **** 		*nietypowy_sms = TRUE;
 597               		.loc 1 138 0
 598 0206 8C91      		ld r24,X
 599 0208 8B7F      		andi r24,lo8(-5)
 600 020a 01F0      		breq .L25
 139:pdu.c         **** 	++pdu_ptr;
 601               		.loc 1 139 0
 602 020c 8FEF      		ldi r24,lo8(-1)
 603 020e 8883      		st Y,r24
 604               	.L25:
 605               	.LVL75:
 141:pdu.c         **** 	if ( liczba_cyfr_w_telefonie > MAX_LICZBA_ZNAKOW_TELEFON )	// (1)
 606               		.loc 1 141 0
 607 0210 1196      		adiw r26,1
 608 0212 2C91      		ld r18,X
 609 0214 1197      		sbiw r26,1
 610               	.LVL76:
 142:pdu.c         **** 	{
 611               		.loc 1 142 0
 612 0216 2131      		cpi r18,lo8(17)
 613 0218 00F4      		brsh .L26
 148:pdu.c         **** 	const uchar dobry_telefon = (typ_telefonu == 129 || typ_telefonu == 145);
 614               		.loc 1 148 0
 615 021a FD01      		movw r30,r26
 616 021c 3396      		adiw r30,3
 617               	.LVL77:
 618 021e 1296      		adiw r26,2
 619 0220 8C91      		ld r24,X
 620               	.LVL78:
 149:pdu.c         **** 	if ( typ_telefonu == 145 )
 621               		.loc 1 149 0
 622 0222 982F      		mov r25,r24
 623 0224 9F7E      		andi r25,lo8(-17)
 624 0226 31E0      		ldi r19,lo8(1)
 625 0228 9138      		cpi r25,lo8(-127)
 626 022a 01F0      		breq .L27
 627 022c 30E0      		ldi r19,0
 628               	.L27:
 629               	.LVL79:
 150:pdu.c         **** 		*bufor_numer_telefonu++ = '+';
 630               		.loc 1 150 0
 631 022e 8139      		cpi r24,lo8(-111)
 632 0230 01F4      		brne .L28
 633               	.LVL80:
 151:pdu.c         **** 	for (uchar i = 0; i < liczba_cyfr_w_telefonie; ++i)
 634               		.loc 1 151 0
 635 0232 8BE2      		ldi r24,lo8(43)
 636               	.LVL81:
 637 0234 DB01      		movw r26,r22
 638               	.LVL82:
 639 0236 8C93      		st X,r24
 640               	.LVL83:
 641 0238 6F5F      		subi r22,-1
 642 023a 7F4F      		sbci r23,-1
 643               	.LVL84:
 644               	.L28:
 645 023c AB01      		movw r20,r22
 646               	.LVL85:
 151:pdu.c         **** 	for (uchar i = 0; i < liczba_cyfr_w_telefonie; ++i)
 647               		.loc 1 151 0 is_stmt 0 discriminator 2
 648 023e 10E0      		ldi r17,0
 649 0240 00C0      		rjmp .L31
 650               	.LVL86:
 651               	.L32:
 652               	.LBB16:
 653               	.LBB17:
 154:pdu.c         **** 		if ( (i & 0x01) != 0)
 654               		.loc 1 154 0 is_stmt 1
 655 0242 8081      		ld r24,Z
 656               	.LVL87:
 155:pdu.c         **** 		{
 657               		.loc 1 155 0
 658 0244 9923      		tst r25
 659 0246 01F0      		breq .L29
 157:pdu.c         **** 			++pdu_ptr;
 660               		.loc 1 157 0
 661               	/* #APP */
 662               	 ;  157 "pdu.c" 1
 663 0248 8295      		swap r24
 664               		
 665               	 ;  0 "" 2
 666               	.LVL88:
 158:pdu.c         **** 		}
 667               		.loc 1 158 0
 668               	/* #NOAPP */
 669 024a 3196      		adiw r30,1
 670               	.LVL89:
 671               	.L29:
 160:pdu.c         **** 	}
 672               		.loc 1 160 0
 673 024c 8F70      		andi r24,lo8(15)
 674               	.LVL90:
 675 024e 805D      		subi r24,lo8(-(48))
 676 0250 3111      		cpse r19,__zero_reg__
 677 0252 00C0      		rjmp .L30
 678 0254 80E3      		ldi r24,lo8(48)
 679               	.L30:
 680               	.LVL91:
 160:pdu.c         **** 	}
 681               		.loc 1 160 0 is_stmt 0 discriminator 4
 682 0256 DA01      		movw r26,r20
 683 0258 8D93      		st X+,r24
 684               	.LVL92:
 685 025a AD01      		movw r20,r26
 686               	.LBE17:
 152:pdu.c         **** 	{
 687               		.loc 1 152 0 is_stmt 1 discriminator 4
 688 025c 1F5F      		subi r17,lo8(-(1))
 689               	.LVL93:
 690               	.L31:
 691 025e 912F      		mov r25,r17
 692 0260 9170      		andi r25,lo8(1)
 152:pdu.c         **** 	{
 693               		.loc 1 152 0 is_stmt 0 discriminator 2
 694 0262 1213      		cpse r17,r18
 695 0264 00C0      		rjmp .L32
 696               	.LBE16:
 162:pdu.c         **** 	if ( !(liczba_cyfr_w_telefonie & 0x01) )
 697               		.loc 1 162 0 is_stmt 1
 698 0266 DB01      		movw r26,r22
 699 0268 A10F      		add r26,r17
 700 026a B11D      		adc r27,__zero_reg__
 701 026c 1C92      		st X,__zero_reg__
 163:pdu.c         **** 		--pdu_ptr;
 702               		.loc 1 163 0
 703 026e 9111      		cpse r25,__zero_reg__
 704 0270 00C0      		rjmp .L33
 164:pdu.c         **** 	if ( pdu_ptr[2] != 0 )	// TP-DCS Data coding scheme
 705               		.loc 1 164 0
 706 0272 3197      		sbiw r30,1
 707               	.LVL94:
 708               	.L33:
 165:pdu.c         **** 		*nietypowy_sms = TRUE;
 709               		.loc 1 165 0
 710 0274 8281      		ldd r24,Z+2
 711 0276 8823      		tst r24
 712 0278 01F0      		breq .L34
 166:pdu.c         **** 	pdu_ptr += 3;
 713               		.loc 1 166 0
 714 027a 8FEF      		ldi r24,lo8(-1)
 715 027c 8883      		st Y,r24
 716               	.L34:
 167:pdu.c         **** 	return (uchar*) pdu_ptr;
 717               		.loc 1 167 0
 718 027e CF01      		movw r24,r30
 719 0280 0396      		adiw r24,3
 720               	.LVL95:
 168:pdu.c         **** }
 721               		.loc 1 168 0
 722 0282 00C0      		rjmp .L22
 723               		.cfi_endproc
 724               	.LFE4:
 726               	.global	pobierz_date_z_PDU
 728               	pobierz_date_z_PDU:
 729               	.LFB5:
 170:pdu.c         **** 
 171:pdu.c         **** const uchar* pobierz_date_z_PDU(const uchar* ptr, uchar* rok, uchar* miesiac, uchar* dzien)
 172:pdu.c         **** {
 730               		.loc 1 172 0
 731               		.cfi_startproc
 732               	.LVL96:
 733               	/* prologue: function */
 734               	/* frame size = 0 */
 735               	/* stack size = 0 */
 736               	.L__stack_usage = 0
 737 0284 FC01      		movw r30,r24
 738               	.LVL97:
 173:pdu.c         **** 	*rok = *ptr++;
 739               		.loc 1 173 0
 740 0286 9081      		ld r25,Z
 174:pdu.c         **** 	*rok = 10 * (*rok & 0x0f) + ((*rok & 0xf0) >> 4);
 741               		.loc 1 174 0
 742 0288 A92F      		mov r26,r25
 743 028a AF70      		andi r26,lo8(15)
 744 028c 8AE0      		ldi r24,lo8(10)
 745               	.LVL98:
 746 028e 9295      		swap r25
 747 0290 9F70      		andi r25,lo8(15)
 748 0292 A89F      		mul r26,r24
 749 0294 900D      		add r25,r0
 750 0296 1124      		clr __zero_reg__
 751 0298 DB01      		movw r26,r22
 752 029a 9C93      		st X,r25
 753               	.LVL99:
 175:pdu.c         **** 	*miesiac = *ptr++;
 754               		.loc 1 175 0
 755 029c 9181      		ldd r25,Z+1
 176:pdu.c         **** 	*miesiac = 10 * (*miesiac & 0x0f) + ((*miesiac & 0xf0) >> 4);
 756               		.loc 1 176 0
 757 029e 692F      		mov r22,r25
 758               	.LVL100:
 759 02a0 6F70      		andi r22,lo8(15)
 760 02a2 9295      		swap r25
 761 02a4 9F70      		andi r25,lo8(15)
 762 02a6 689F      		mul r22,r24
 763 02a8 900D      		add r25,r0
 764 02aa 1124      		clr __zero_reg__
 765 02ac DA01      		movw r26,r20
 766               	.LVL101:
 767 02ae 9C93      		st X,r25
 768               	.LVL102:
 177:pdu.c         **** 	*dzien = *ptr++;
 769               		.loc 1 177 0
 770 02b0 9281      		ldd r25,Z+2
 178:pdu.c         **** 	*dzien = 10 * (*dzien & 0x0f) + ((*dzien & 0xf0) >> 4);
 771               		.loc 1 178 0
 772 02b2 492F      		mov r20,r25
 773               	.LVL103:
 774 02b4 4F70      		andi r20,lo8(15)
 775 02b6 9295      		swap r25
 776 02b8 9F70      		andi r25,lo8(15)
 777 02ba 489F      		mul r20,r24
 778 02bc 900D      		add r25,r0
 779 02be 1124      		clr __zero_reg__
 780 02c0 D901      		movw r26,r18
 781               	.LVL104:
 782 02c2 9C93      		st X,r25
 179:pdu.c         **** 	return ptr;
 180:pdu.c         **** }
 783               		.loc 1 180 0
 784 02c4 CF01      		movw r24,r30
 785 02c6 0396      		adiw r24,3
 786               	.LVL105:
 787               	/* epilogue start */
 788 02c8 0895      		ret
 789               		.cfi_endproc
 790               	.LFE5:
 792               	.global	pobierz_czas_z_PDU
 794               	pobierz_czas_z_PDU:
 795               	.LFB6:
 181:pdu.c         **** 
 182:pdu.c         **** const uchar* pobierz_czas_z_PDU(const uchar* ptr, uchar* godzina, uchar* minuta, uchar* sekunda)
 183:pdu.c         **** {
 796               		.loc 1 183 0
 797               		.cfi_startproc
 798               	.LVL106:
 799               	/* prologue: function */
 800               	/* frame size = 0 */
 801               	/* stack size = 0 */
 802               	.L__stack_usage = 0
 803 02ca FC01      		movw r30,r24
 804               	.LVL107:
 184:pdu.c         **** 	*godzina = *ptr++;
 805               		.loc 1 184 0
 806 02cc 9081      		ld r25,Z
 185:pdu.c         **** 	*godzina = 10 * (*godzina & 0x0f) + ((*godzina & 0xf0) >> 4);
 807               		.loc 1 185 0
 808 02ce A92F      		mov r26,r25
 809 02d0 AF70      		andi r26,lo8(15)
 810 02d2 8AE0      		ldi r24,lo8(10)
 811               	.LVL108:
 812 02d4 9295      		swap r25
 813 02d6 9F70      		andi r25,lo8(15)
 814 02d8 A89F      		mul r26,r24
 815 02da 900D      		add r25,r0
 816 02dc 1124      		clr __zero_reg__
 817 02de DB01      		movw r26,r22
 818 02e0 9C93      		st X,r25
 819               	.LVL109:
 186:pdu.c         **** 	*minuta = *ptr++;
 820               		.loc 1 186 0
 821 02e2 9181      		ldd r25,Z+1
 187:pdu.c         **** 	*minuta = 10 * (*minuta & 0x0f) + ((*minuta & 0xf0) >> 4);
 822               		.loc 1 187 0
 823 02e4 692F      		mov r22,r25
 824               	.LVL110:
 825 02e6 6F70      		andi r22,lo8(15)
 826 02e8 9295      		swap r25
 827 02ea 9F70      		andi r25,lo8(15)
 828 02ec 689F      		mul r22,r24
 829 02ee 900D      		add r25,r0
 830 02f0 1124      		clr __zero_reg__
 831 02f2 DA01      		movw r26,r20
 832               	.LVL111:
 833 02f4 9C93      		st X,r25
 834               	.LVL112:
 188:pdu.c         ****         *sekunda = *ptr++;
 835               		.loc 1 188 0
 836 02f6 9281      		ldd r25,Z+2
 189:pdu.c         ****         *sekunda = 10 * (*sekunda & 0x0f) + ((*sekunda & 0xf0) >> 4);
 837               		.loc 1 189 0
 838 02f8 492F      		mov r20,r25
 839               	.LVL113:
 840 02fa 4F70      		andi r20,lo8(15)
 841 02fc 9295      		swap r25
 842 02fe 9F70      		andi r25,lo8(15)
 843 0300 489F      		mul r20,r24
 844 0302 900D      		add r25,r0
 845 0304 1124      		clr __zero_reg__
 846 0306 D901      		movw r26,r18
 847               	.LVL114:
 848 0308 9C93      		st X,r25
 190:pdu.c         **** 	return ptr + 1; // Pomin timezone
 191:pdu.c         **** }
 849               		.loc 1 191 0
 850 030a CF01      		movw r24,r30
 851 030c 0496      		adiw r24,4
 852               	/* epilogue start */
 853 030e 0895      		ret
 854               		.cfi_endproc
 855               	.LFE6:
 857               	.global	wpisz_telefon_w_formacie_sms
 859               	wpisz_telefon_w_formacie_sms:
 860               	.LFB7:
 192:pdu.c         **** 
 193:pdu.c         **** uchar* wpisz_telefon_w_formacie_sms(uchar* ptr, const uchar* telefon)
 194:pdu.c         **** {
 861               		.loc 1 194 0
 862               		.cfi_startproc
 863               	.LVL115:
 864 0310 CF93      		push r28
 865               	.LCFI19:
 866               		.cfi_def_cfa_offset 3
 867               		.cfi_offset 28, -2
 868 0312 DF93      		push r29
 869               	.LCFI20:
 870               		.cfi_def_cfa_offset 4
 871               		.cfi_offset 29, -3
 872               	/* prologue: function */
 873               	/* frame size = 0 */
 874               	/* stack size = 2 */
 875               	.L__stack_usage = 2
 876 0314 DC01      		movw r26,r24
 877 0316 FB01      		movw r30,r22
 195:pdu.c         **** 	uchar typ_telefonu;
 196:pdu.c         **** 	if ( *telefon == '+' )
 878               		.loc 1 196 0
 879 0318 8081      		ld r24,Z
 880               	.LVL116:
 881 031a 8B32      		cpi r24,lo8(43)
 882 031c 01F4      		brne .L58
 197:pdu.c         **** 	{
 198:pdu.c         **** 		++telefon;
 883               		.loc 1 198 0
 884 031e 3196      		adiw r30,1
 885               	.LVL117:
 199:pdu.c         **** 		typ_telefonu = 145;
 886               		.loc 1 199 0
 887 0320 81E9      		ldi r24,lo8(-111)
 888               	.LVL118:
 889               	.L51:
 200:pdu.c         **** 	}
 201:pdu.c         **** 	else
 202:pdu.c         **** 		typ_telefonu = 129;
 203:pdu.c         **** 	const uchar liczba_cyfr_telefonu = strlen(telefon);
 890               		.loc 1 203 0
 891 0322 EF01      		movw r28,r30
 892               		0:
 893 0324 0990      		ld __tmp_reg__,Y+
 894 0326 0020      		tst __tmp_reg__
 895 0328 01F4      		brne 0b
 896 032a 9E01      		movw r18,r28
 897 032c 2150      		subi r18,1
 898 032e 3109      		sbc r19,__zero_reg__
 899 0330 2E1B      		sub r18,r30
 900 0332 3F0B      		sbc r19,r31
 901               	.LVL119:
 204:pdu.c         **** 	if ( liczba_cyfr_telefonu == 0 )
 902               		.loc 1 204 0
 903 0334 2111      		cpse r18,__zero_reg__
 904 0336 00C0      		rjmp .L52
 205:pdu.c         **** 	{
 206:pdu.c         **** 		*ptr++ = liczba_cyfr_telefonu;
 905               		.loc 1 206 0
 906 0338 CD01      		movw r24,r26
 907               	.LVL120:
 908 033a 0196      		adiw r24,1
 909               	.LVL121:
 910 033c 1C92      		st X,__zero_reg__
 911               	.LVL122:
 912               	.L50:
 913               	/* epilogue start */
 207:pdu.c         **** 		return ptr;
 208:pdu.c         **** 	}
 209:pdu.c         **** 	*ptr++ = liczba_cyfr_telefonu;
 210:pdu.c         **** 	*ptr++ = typ_telefonu;
 211:pdu.c         **** 	const uchar k = (liczba_cyfr_telefonu + 1) / 2;
 212:pdu.c         **** 	for (uchar i = 0; i < k; ++i)
 213:pdu.c         **** 	{
 214:pdu.c         **** 		uchar ch = (*telefon++ - '0');
 215:pdu.c         **** 		if ( *telefon != '\0' )
 216:pdu.c         **** 			ch |= (*telefon++ - '0') << 4;
 217:pdu.c         **** 		else
 218:pdu.c         **** 			ch |= 0xf0;
 219:pdu.c         **** 		*ptr++ = ch;
 220:pdu.c         **** 	}
 221:pdu.c         **** 	return ptr;
 222:pdu.c         **** }
 914               		.loc 1 222 0
 915 033e DF91      		pop r29
 916 0340 CF91      		pop r28
 917 0342 0895      		ret
 918               	.LVL123:
 919               	.L58:
 202:pdu.c         **** 	const uchar liczba_cyfr_telefonu = strlen(telefon);
 920               		.loc 1 202 0
 921 0344 81E8      		ldi r24,lo8(-127)
 922 0346 00C0      		rjmp .L51
 923               	.LVL124:
 924               	.L52:
 209:pdu.c         **** 	*ptr++ = typ_telefonu;
 925               		.loc 1 209 0
 926 0348 2C93      		st X,r18
 210:pdu.c         **** 	const uchar k = (liczba_cyfr_telefonu + 1) / 2;
 927               		.loc 1 210 0
 928 034a AD01      		movw r20,r26
 929 034c 4E5F      		subi r20,-2
 930 034e 5F4F      		sbci r21,-1
 931               	.LVL125:
 932 0350 1196      		adiw r26,1
 933 0352 8C93      		st X,r24
 211:pdu.c         **** 	for (uchar i = 0; i < k; ++i)
 934               		.loc 1 211 0
 935 0354 C901      		movw r24,r18
 936               	.LVL126:
 937 0356 9927      		clr r25
 938 0358 0196      		adiw r24,1
 939 035a 9595      		asr r25
 940 035c 8795      		ror r24
 941               	.LVL127:
 942 035e 682F      		mov r22,r24
 943               	.LVL128:
 944 0360 742F      		mov r23,r20
 945               	.LBB18:
 212:pdu.c         **** 	{
 946               		.loc 1 212 0
 947 0362 DA01      		movw r26,r20
 948               	.LVL129:
 949               	.L54:
 212:pdu.c         **** 	{
 950               		.loc 1 212 0 is_stmt 0 discriminator 1
 951 0364 2A2F      		mov r18,r26
 952 0366 271B      		sub r18,r23
 953 0368 2617      		cp r18,r22
 954 036a 00F0      		brlo .L57
 955 036c 840F      		add r24,r20
 956 036e 951F      		adc r25,r21
 957               	.LVL130:
 958 0370 00C0      		rjmp .L50
 959               	.LVL131:
 960               	.L57:
 961               	.LBB19:
 214:pdu.c         **** 		if ( *telefon != '\0' )
 962               		.loc 1 214 0 is_stmt 1
 963 0372 2081      		ld r18,Z
 964 0374 2053      		subi r18,lo8(-(-48))
 965               	.LVL132:
 215:pdu.c         **** 			ch |= (*telefon++ - '0') << 4;
 966               		.loc 1 215 0
 967 0376 3181      		ldd r19,Z+1
 968 0378 3323      		tst r19
 969 037a 01F0      		breq .L55
 216:pdu.c         **** 		else
 970               		.loc 1 216 0
 971 037c 3296      		adiw r30,2
 972               	.LVL133:
 973 037e 3295      		swap r19
 974 0380 307F      		andi r19,lo8(-16)
 975 0382 232B      		or r18,r19
 976               	.LVL134:
 977               	.L56:
 219:pdu.c         **** 	}
 978               		.loc 1 219 0 discriminator 2
 979 0384 2D93      		st X+,r18
 980               	.LVL135:
 981 0386 00C0      		rjmp .L54
 982               	.LVL136:
 983               	.L55:
 214:pdu.c         **** 		if ( *telefon != '\0' )
 984               		.loc 1 214 0
 985 0388 3196      		adiw r30,1
 986               	.LVL137:
 218:pdu.c         **** 		*ptr++ = ch;
 987               		.loc 1 218 0
 988 038a 206F      		ori r18,lo8(-16)
 989               	.LVL138:
 990 038c 00C0      		rjmp .L56
 991               	.LBE19:
 992               	.LBE18:
 993               		.cfi_endproc
 994               	.LFE7:
 996               	.global	wpisz_centrum_sms_w_formacie_sms
 998               	wpisz_centrum_sms_w_formacie_sms:
 999               	.LFB8:
 223:pdu.c         **** 
 224:pdu.c         **** uchar* wpisz_centrum_sms_w_formacie_sms(uchar* ptr, const uchar* telefon)
 225:pdu.c         **** {
 1000               		.loc 1 225 0
 1001               		.cfi_startproc
 1002               	.LVL139:
 1003 038e CF93      		push r28
 1004               	.LCFI21:
 1005               		.cfi_def_cfa_offset 3
 1006               		.cfi_offset 28, -2
 1007 0390 DF93      		push r29
 1008               	.LCFI22:
 1009               		.cfi_def_cfa_offset 4
 1010               		.cfi_offset 29, -3
 1011               	/* prologue: function */
 1012               	/* frame size = 0 */
 1013               	/* stack size = 2 */
 1014               	.L__stack_usage = 2
 1015 0392 EC01      		movw r28,r24
 1016 0394 DB01      		movw r26,r22
 226:pdu.c         **** 	if ( *telefon == '\0' )
 1017               		.loc 1 226 0
 1018 0396 8C91      		ld r24,X
 1019               	.LVL140:
 1020 0398 8111      		cpse r24,__zero_reg__
 1021 039a 00C0      		rjmp .L60
 227:pdu.c         **** 	{
 228:pdu.c         **** 		*ptr++ = 0x00;
 1022               		.loc 1 228 0
 1023 039c CE01      		movw r24,r28
 1024 039e 0196      		adiw r24,1
 1025               	.LVL141:
 1026 03a0 1882      		st Y,__zero_reg__
 1027               	.LVL142:
 1028               	.L59:
 1029               	/* epilogue start */
 229:pdu.c         **** 		return ptr;
 230:pdu.c         **** 	}
 231:pdu.c         **** 	uchar typ_telefonu;
 232:pdu.c         **** 	if ( *telefon == '+' )
 233:pdu.c         **** 	{
 234:pdu.c         **** 		++telefon;
 235:pdu.c         **** 		typ_telefonu = 145;
 236:pdu.c         **** 	}
 237:pdu.c         **** 	else
 238:pdu.c         **** 		typ_telefonu = 129;
 239:pdu.c         **** 	const uchar liczba_cyfr_telefonu = strlen(telefon);
 240:pdu.c         **** 	*ptr++ = (liczba_cyfr_telefonu + 1) / 2 + 1;
 241:pdu.c         **** 	*ptr++ = typ_telefonu;
 242:pdu.c         **** 	const uchar k = (liczba_cyfr_telefonu + 1) / 2;
 243:pdu.c         **** 	for (uchar i = 0; i < k; ++i)
 244:pdu.c         **** 	{
 245:pdu.c         **** 		uchar ch = (*telefon++ - '0');
 246:pdu.c         **** 		if ( *telefon != '\0' )
 247:pdu.c         **** 			ch |= (*telefon++ - '0') << 4;
 248:pdu.c         **** 		else
 249:pdu.c         **** 			ch |= 0xf0;
 250:pdu.c         **** 		*ptr++ = ch;
 251:pdu.c         **** 	}
 252:pdu.c         **** 	return ptr;
 253:pdu.c         **** }
 1030               		.loc 1 253 0
 1031 03a2 DF91      		pop r29
 1032 03a4 CF91      		pop r28
 1033 03a6 0895      		ret
 1034               	.LVL143:
 1035               	.L60:
 232:pdu.c         **** 	{
 1036               		.loc 1 232 0
 1037 03a8 8B32      		cpi r24,lo8(43)
 1038 03aa 01F4      		brne .L67
 234:pdu.c         **** 		typ_telefonu = 145;
 1039               		.loc 1 234 0
 1040 03ac 1196      		adiw r26,1
 1041               	.LVL144:
 235:pdu.c         **** 	}
 1042               		.loc 1 235 0
 1043 03ae 81E9      		ldi r24,lo8(-111)
 1044               	.LVL145:
 1045               	.L62:
 239:pdu.c         **** 	*ptr++ = (liczba_cyfr_telefonu + 1) / 2 + 1;
 1046               		.loc 1 239 0
 1047 03b0 FD01      		movw r30,r26
 1048               		0:
 1049 03b2 0190      		ld __tmp_reg__,Z+
 1050 03b4 0020      		tst __tmp_reg__
 1051 03b6 01F4      		brne 0b
 1052 03b8 3197      		sbiw r30,1
 1053 03ba 9F01      		movw r18,r30
 1054 03bc 2A1B      		sub r18,r26
 1055 03be 3B0B      		sbc r19,r27
 1056               	.LVL146:
 240:pdu.c         **** 	*ptr++ = typ_telefonu;
 1057               		.loc 1 240 0
 1058 03c0 3327      		clr r19
 1059               	.LVL147:
 1060 03c2 2F5F      		subi r18,-1
 1061 03c4 3F4F      		sbci r19,-1
 1062 03c6 3595      		asr r19
 1063 03c8 2795      		ror r18
 1064 03ca 622F      		mov r22,r18
 1065               	.LVL148:
 1066 03cc 91E0      		ldi r25,lo8(1)
 1067 03ce 920F      		add r25,r18
 1068 03d0 9883      		st Y,r25
 241:pdu.c         **** 	const uchar k = (liczba_cyfr_telefonu + 1) / 2;
 1069               		.loc 1 241 0
 1070 03d2 AE01      		movw r20,r28
 1071 03d4 4E5F      		subi r20,-2
 1072 03d6 5F4F      		sbci r21,-1
 1073               	.LVL149:
 1074 03d8 8983      		std Y+1,r24
 1075               	.LVL150:
 1076 03da 742F      		mov r23,r20
 1077               	.LBB20:
 243:pdu.c         **** 	{
 1078               		.loc 1 243 0
 1079 03dc FA01      		movw r30,r20
 1080               	.LVL151:
 1081               	.L63:
 243:pdu.c         **** 	{
 1082               		.loc 1 243 0 is_stmt 0 discriminator 1
 1083 03de 8E2F      		mov r24,r30
 1084 03e0 871B      		sub r24,r23
 1085 03e2 8617      		cp r24,r22
 1086 03e4 00F0      		brlo .L66
 1087 03e6 CA01      		movw r24,r20
 1088 03e8 820F      		add r24,r18
 1089 03ea 931F      		adc r25,r19
 1090 03ec 00C0      		rjmp .L59
 1091               	.LVL152:
 1092               	.L67:
 1093               	.LBE20:
 238:pdu.c         **** 	const uchar liczba_cyfr_telefonu = strlen(telefon);
 1094               		.loc 1 238 0 is_stmt 1
 1095 03ee 81E8      		ldi r24,lo8(-127)
 1096 03f0 00C0      		rjmp .L62
 1097               	.LVL153:
 1098               	.L66:
 1099               	.LBB22:
 1100               	.LBB21:
 245:pdu.c         **** 		if ( *telefon != '\0' )
 1101               		.loc 1 245 0
 1102 03f2 8C91      		ld r24,X
 1103 03f4 8053      		subi r24,lo8(-(-48))
 1104               	.LVL154:
 246:pdu.c         **** 			ch |= (*telefon++ - '0') << 4;
 1105               		.loc 1 246 0
 1106 03f6 1196      		adiw r26,1
 1107 03f8 9C91      		ld r25,X
 1108 03fa 1197      		sbiw r26,1
 1109 03fc 9923      		tst r25
 1110 03fe 01F0      		breq .L64
 247:pdu.c         **** 		else
 1111               		.loc 1 247 0
 1112 0400 1296      		adiw r26,2
 1113               	.LVL155:
 1114 0402 9295      		swap r25
 1115 0404 907F      		andi r25,lo8(-16)
 1116 0406 892B      		or r24,r25
 1117               	.LVL156:
 1118               	.L65:
 250:pdu.c         **** 	}
 1119               		.loc 1 250 0 discriminator 2
 1120 0408 8193      		st Z+,r24
 1121               	.LVL157:
 1122 040a 00C0      		rjmp .L63
 1123               	.LVL158:
 1124               	.L64:
 245:pdu.c         **** 		if ( *telefon != '\0' )
 1125               		.loc 1 245 0
 1126 040c 1196      		adiw r26,1
 1127               	.LVL159:
 249:pdu.c         **** 		*ptr++ = ch;
 1128               		.loc 1 249 0
 1129 040e 806F      		ori r24,lo8(-16)
 1130               	.LVL160:
 1131 0410 00C0      		rjmp .L65
 1132               	.LBE21:
 1133               	.LBE22:
 1134               		.cfi_endproc
 1135               	.LFE8:
 1137               	.global	zapisz_naglowek_pdu
 1139               	zapisz_naglowek_pdu:
 1140               	.LFB9:
 254:pdu.c         **** 
 255:pdu.c         **** uchar* zapisz_naglowek_pdu(uchar* ptr, const uchar* telefon_odbiorcy, 
 256:pdu.c         **** 	const uchar* telefon_centrum_sms, const uchar TP_PID, const uchar TP_DCS)
 257:pdu.c         **** {
 1141               		.loc 1 257 0
 1142               		.cfi_startproc
 1143               	.LVL161:
 1144 0412 EF92      		push r14
 1145               	.LCFI23:
 1146               		.cfi_def_cfa_offset 3
 1147               		.cfi_offset 14, -2
 1148 0414 FF92      		push r15
 1149               	.LCFI24:
 1150               		.cfi_def_cfa_offset 4
 1151               		.cfi_offset 15, -3
 1152 0416 0F93      		push r16
 1153               	.LCFI25:
 1154               		.cfi_def_cfa_offset 5
 1155               		.cfi_offset 16, -4
 1156 0418 CF93      		push r28
 1157               	.LCFI26:
 1158               		.cfi_def_cfa_offset 6
 1159               		.cfi_offset 28, -5
 1160               	/* prologue: function */
 1161               	/* frame size = 0 */
 1162               	/* stack size = 4 */
 1163               	.L__stack_usage = 4
 1164 041a 7B01      		movw r14,r22
 1165 041c C22F      		mov r28,r18
 258:pdu.c         **** 	ptr = wpisz_centrum_sms_w_formacie_sms(ptr, telefon_centrum_sms);
 1166               		.loc 1 258 0
 1167 041e BA01      		movw r22,r20
 1168               	.LVL162:
 1169 0420 0E94 0000 		call wpisz_centrum_sms_w_formacie_sms
 1170               	.LVL163:
 259:pdu.c         **** 	*ptr++ = 0x11;
 1171               		.loc 1 259 0
 1172 0424 21E1      		ldi r18,lo8(17)
 1173 0426 FC01      		movw r30,r24
 1174 0428 2083      		st Z,r18
 1175               	.LVL164:
 260:pdu.c         **** 	*ptr++ = 0x00;
 1176               		.loc 1 260 0
 1177 042a 1182      		std Z+1,__zero_reg__
 261:pdu.c         **** 	ptr = wpisz_telefon_w_formacie_sms(ptr, telefon_odbiorcy);
 1178               		.loc 1 261 0
 1179 042c B701      		movw r22,r14
 1180 042e 0296      		adiw r24,2
 1181               	.LVL165:
 1182 0430 0E94 0000 		call wpisz_telefon_w_formacie_sms
 1183               	.LVL166:
 262:pdu.c         **** 	*ptr++ = TP_PID;	// TP-PID. Protocol identifier 
 1184               		.loc 1 262 0
 1185 0434 FC01      		movw r30,r24
 1186 0436 C083      		st Z,r28
 1187               	.LVL167:
 263:pdu.c         **** 	*ptr++ = TP_DCS;	// TP-DCS. Data coding scheme (7-bit, 8-bit, UCS2)
 1188               		.loc 1 263 0
 1189 0438 0183      		std Z+1,r16
 1190               	.LVL168:
 264:pdu.c         **** 	*ptr++ = 0xAA;	// TP-Validity-Period. "AA" means 4 days
 1191               		.loc 1 264 0
 1192 043a 2AEA      		ldi r18,lo8(-86)
 1193 043c 2283      		std Z+2,r18
 265:pdu.c         **** 	return ptr;
 266:pdu.c         **** }
 1194               		.loc 1 266 0
 1195 043e 0396      		adiw r24,3
 1196               	.LVL169:
 1197               	/* epilogue start */
 1198 0440 CF91      		pop r28
 1199               	.LVL170:
 1200 0442 0F91      		pop r16
 1201               	.LVL171:
 1202 0444 FF90      		pop r15
 1203 0446 EF90      		pop r14
 1204               	.LVL172:
 1205 0448 0895      		ret
 1206               		.cfi_endproc
 1207               	.LFE9:
 1209               	.global	konwertuj_pdu_na_blok_wysylany
 1211               	konwertuj_pdu_na_blok_wysylany:
 1212               	.LFB10:
 267:pdu.c         **** 
 268:pdu.c         **** void konwertuj_pdu_na_blok_wysylany(uchar* buf, const uchar* pdu_ptr, 
 269:pdu.c         **** 	const uchar dlugosc_pdu)
 270:pdu.c         **** {
 1213               		.loc 1 270 0
 1214               		.cfi_startproc
 1215               	.LVL173:
 1216 044a CF93      		push r28
 1217               	.LCFI27:
 1218               		.cfi_def_cfa_offset 3
 1219               		.cfi_offset 28, -2
 1220 044c DF93      		push r29
 1221               	.LCFI28:
 1222               		.cfi_def_cfa_offset 4
 1223               		.cfi_offset 29, -3
 1224 044e 1F92      		push __zero_reg__
 1225               	.LCFI29:
 1226               		.cfi_def_cfa_offset 5
 1227 0450 CDB7      		in r28,__SP_L__
 1228 0452 DEB7      		in r29,__SP_H__
 1229               	.LCFI30:
 1230               		.cfi_def_cfa_register 28
 1231               	/* prologue: function */
 1232               	/* frame size = 1 */
 1233               	/* stack size = 3 */
 1234               	.L__stack_usage = 3
 1235               	.LVL174:
 1236 0454 9C01      		movw r18,r24
 1237 0456 562F      		mov r21,r22
 1238               	.LBB23:
 271:pdu.c         **** 	static const char znak_wartosc_heksadecymalna[] PROGMEM = "0123456789ABCDEF";
 272:pdu.c         **** 	for (uchar i = 0; i < dlugosc_pdu; ++i)
 1239               		.loc 1 272 0
 1240 0458 DB01      		movw r26,r22
 1241               	.LVL175:
 1242               	.L70:
 1243               		.loc 1 272 0 is_stmt 0 discriminator 1
 1244 045a 8A2F      		mov r24,r26
 1245 045c 851B      		sub r24,r21
 1246 045e 8417      		cp r24,r20
 1247 0460 00F0      		brlo .L71
 1248               	/* epilogue start */
 1249               	.LBE23:
 273:pdu.c         **** 	{
 274:pdu.c         **** 		uchar znak = *pdu_ptr++;
 275:pdu.c         **** 		volatile uchar pom = znak & 0xf0;	// bardzo wane jst sowo volatile, bo kompilator le generuje 
 276:pdu.c         **** 		SWAP(pom);
 277:pdu.c         **** 		*buf++ = pgm_read_byte(znak_wartosc_heksadecymalna + pom);
 278:pdu.c         **** 		*buf++ = pgm_read_byte(znak_wartosc_heksadecymalna + (znak & 0x0f));
 279:pdu.c         **** 	}
 280:pdu.c         **** }
 1250               		.loc 1 280 0 is_stmt 1
 1251 0462 0F90      		pop __tmp_reg__
 1252 0464 DF91      		pop r29
 1253 0466 CF91      		pop r28
 1254 0468 0895      		ret
 1255               	.L71:
 1256               	.LVL176:
 1257               	.LBB27:
 1258               	.LBB24:
 274:pdu.c         **** 		volatile uchar pom = znak & 0xf0;	// bardzo wane jst sowo volatile, bo kompilator le generuje 
 1259               		.loc 1 274 0 discriminator 3
 1260 046a 9D91      		ld r25,X+
 1261               	.LVL177:
 275:pdu.c         **** 		SWAP(pom);
 1262               		.loc 1 275 0 discriminator 3
 1263 046c 892F      		mov r24,r25
 1264 046e 807F      		andi r24,lo8(-16)
 1265 0470 8983      		std Y+1,r24
 276:pdu.c         **** 		*buf++ = pgm_read_byte(znak_wartosc_heksadecymalna + pom);
 1266               		.loc 1 276 0 discriminator 3
 1267               	/* #APP */
 1268               	 ;  276 "pdu.c" 1
 1269 0472 8295      		swap r24
 1270               		
 1271               	 ;  0 "" 2
 1272               	/* #NOAPP */
 1273 0474 8983      		std Y+1,r24
 1274               	.LBB25:
 277:pdu.c         **** 		*buf++ = pgm_read_byte(znak_wartosc_heksadecymalna + (znak & 0x0f));
 1275               		.loc 1 277 0 discriminator 3
 1276 0476 E981      		ldd r30,Y+1
 1277               	.LVL178:
 1278 0478 F0E0      		ldi r31,0
 1279 047a E050      		subi r30,lo8(-(znak_wartosc_heksadecymalna.2043))
 1280 047c F040      		sbci r31,hi8(-(znak_wartosc_heksadecymalna.2043))
 1281               	.LVL179:
 1282               	/* #APP */
 1283               	 ;  277 "pdu.c" 1
 1284 047e 8491      		lpm r24, Z
 1285               		
 1286               	 ;  0 "" 2
 1287               	.LVL180:
 1288               	/* #NOAPP */
 1289               	.LBE25:
 1290 0480 F901      		movw r30,r18
 1291 0482 8083      		st Z,r24
 1292               	.LVL181:
 1293               	.LBB26:
 278:pdu.c         **** 	}
 1294               		.loc 1 278 0 discriminator 3
 1295 0484 9F70      		andi r25,lo8(15)
 1296               	.LVL182:
 1297 0486 E92F      		mov r30,r25
 1298 0488 F0E0      		ldi r31,0
 1299 048a E050      		subi r30,lo8(-(znak_wartosc_heksadecymalna.2043))
 1300 048c F040      		sbci r31,hi8(-(znak_wartosc_heksadecymalna.2043))
 1301               	/* #APP */
 1302               	 ;  278 "pdu.c" 1
 1303 048e 8491      		lpm r24, Z
 1304               		
 1305               	 ;  0 "" 2
 1306               	.LVL183:
 1307               	/* #NOAPP */
 1308               	.LBE26:
 1309 0490 F901      		movw r30,r18
 1310 0492 8183      		std Z+1,r24
 1311               	.LVL184:
 1312 0494 2E5F      		subi r18,-2
 1313 0496 3F4F      		sbci r19,-1
 1314               	.LVL185:
 1315 0498 00C0      		rjmp .L70
 1316               	.LBE24:
 1317               	.LBE27:
 1318               		.cfi_endproc
 1319               	.LFE10:
 1321               		.section	.progmem.data,"a",@progbits
 1324               	znak_wartosc_heksadecymalna.2043:
 1325 0000 3031 3233 		.string	"0123456789ABCDEF"
 1325      3435 3637 
 1325      3839 4142 
 1325      4344 4546 
 1325      00
 1328               	GSM_Default_DeAlphabet:
 1329 0011 3F        		.byte	63
 1330 0012 3F        		.byte	63
 1331 0013 3F        		.byte	63
 1332 0014 3F        		.byte	63
 1333 0015 3F        		.byte	63
 1334 0016 3F        		.byte	63
 1335 0017 3F        		.byte	63
 1336 0018 3F        		.byte	63
 1337 0019 3F        		.byte	63
 1338 001a 3F        		.byte	63
 1339 001b 0A        		.byte	10
 1340 001c 3F        		.byte	63
 1341 001d 3F        		.byte	63
 1342 001e 0D        		.byte	13
 1343 001f 3F        		.byte	63
 1344 0020 3F        		.byte	63
 1345 0021 3F        		.byte	63
 1346 0022 3F        		.byte	63
 1347 0023 3F        		.byte	63
 1348 0024 3F        		.byte	63
 1349 0025 3F        		.byte	63
 1350 0026 3F        		.byte	63
 1351 0027 3F        		.byte	63
 1352 0028 3F        		.byte	63
 1353 0029 3F        		.byte	63
 1354 002a 3F        		.byte	63
 1355 002b 3F        		.byte	63
 1356 002c 3F        		.byte	63
 1357 002d 3F        		.byte	63
 1358 002e 3F        		.byte	63
 1359 002f 3F        		.byte	63
 1360 0030 3F        		.byte	63
 1361 0031 20        		.byte	32
 1362 0032 21        		.byte	33
 1363 0033 22        		.byte	34
 1364 0034 23        		.byte	35
 1365 0035 02        		.byte	2
 1366 0036 25        		.byte	37
 1367 0037 26        		.byte	38
 1368 0038 27        		.byte	39
 1369 0039 28        		.byte	40
 1370 003a 29        		.byte	41
 1371 003b 2A        		.byte	42
 1372 003c 2B        		.byte	43
 1373 003d 2C        		.byte	44
 1374 003e 2D        		.byte	45
 1375 003f 2E        		.byte	46
 1376 0040 2F        		.byte	47
 1377 0041 30        		.byte	48
 1378 0042 31        		.byte	49
 1379 0043 32        		.byte	50
 1380 0044 33        		.byte	51
 1381 0045 34        		.byte	52
 1382 0046 35        		.byte	53
 1383 0047 36        		.byte	54
 1384 0048 37        		.byte	55
 1385 0049 38        		.byte	56
 1386 004a 39        		.byte	57
 1387 004b 3A        		.byte	58
 1388 004c 3B        		.byte	59
 1389 004d 3C        		.byte	60
 1390 004e 3D        		.byte	61
 1391 004f 3E        		.byte	62
 1392 0050 3F        		.byte	63
 1393 0051 00        		.byte	0
 1394 0052 41        		.byte	65
 1395 0053 42        		.byte	66
 1396 0054 43        		.byte	67
 1397 0055 44        		.byte	68
 1398 0056 45        		.byte	69
 1399 0057 46        		.byte	70
 1400 0058 47        		.byte	71
 1401 0059 48        		.byte	72
 1402 005a 49        		.byte	73
 1403 005b 4A        		.byte	74
 1404 005c 4B        		.byte	75
 1405 005d 4C        		.byte	76
 1406 005e 4D        		.byte	77
 1407 005f 4E        		.byte	78
 1408 0060 4F        		.byte	79
 1409 0061 50        		.byte	80
 1410 0062 51        		.byte	81
 1411 0063 52        		.byte	82
 1412 0064 53        		.byte	83
 1413 0065 54        		.byte	84
 1414 0066 55        		.byte	85
 1415 0067 56        		.byte	86
 1416 0068 57        		.byte	87
 1417 0069 58        		.byte	88
 1418 006a 59        		.byte	89
 1419 006b 5A        		.byte	90
 1420 006c 3F        		.byte	63
 1421 006d 3F        		.byte	63
 1422 006e 3F        		.byte	63
 1423 006f 3F        		.byte	63
 1424 0070 11        		.byte	17
 1425 0071 3F        		.byte	63
 1426 0072 61        		.byte	97
 1427 0073 62        		.byte	98
 1428 0074 63        		.byte	99
 1429 0075 64        		.byte	100
 1430 0076 65        		.byte	101
 1431 0077 66        		.byte	102
 1432 0078 67        		.byte	103
 1433 0079 68        		.byte	104
 1434 007a 69        		.byte	105
 1435 007b 6A        		.byte	106
 1436 007c 6B        		.byte	107
 1437 007d 6C        		.byte	108
 1438 007e 6D        		.byte	109
 1439 007f 6E        		.byte	110
 1440 0080 6F        		.byte	111
 1441 0081 70        		.byte	112
 1442 0082 71        		.byte	113
 1443 0083 72        		.byte	114
 1444 0084 73        		.byte	115
 1445 0085 74        		.byte	116
 1446 0086 75        		.byte	117
 1447 0087 76        		.byte	118
 1448 0088 77        		.byte	119
 1449 0089 78        		.byte	120
 1450 008a 79        		.byte	121
 1451 008b 7A        		.byte	122
 1452 008c 3F        		.byte	63
 1453 008d 3F        		.byte	63
 1454 008e 3F        		.byte	63
 1455 008f 3F        		.byte	63
 1456 0090 3F        		.byte	63
 1457 0091 3F        		.byte	63
 1458 0092 3F        		.byte	63
 1459 0093 3F        		.byte	63
 1460 0094 3F        		.byte	63
 1461 0095 3F        		.byte	63
 1462 0096 3F        		.byte	63
 1463 0097 3F        		.byte	63
 1464 0098 3F        		.byte	63
 1465 0099 3F        		.byte	63
 1466 009a 3F        		.byte	63
 1467 009b 3F        		.byte	63
 1468 009c 3F        		.byte	63
 1469 009d 3F        		.byte	63
 1470 009e 3F        		.byte	63
 1471 009f 3F        		.byte	63
 1472 00a0 3F        		.byte	63
 1473 00a1 3F        		.byte	63
 1474 00a2 3F        		.byte	63
 1475 00a3 3F        		.byte	63
 1476 00a4 3F        		.byte	63
 1477 00a5 3F        		.byte	63
 1478 00a6 3F        		.byte	63
 1479 00a7 3F        		.byte	63
 1480 00a8 3F        		.byte	63
 1481 00a9 3F        		.byte	63
 1482 00aa 3F        		.byte	63
 1483 00ab 3F        		.byte	63
 1484 00ac 3F        		.byte	63
 1485 00ad 3F        		.byte	63
 1486 00ae 3F        		.byte	63
 1487 00af 3F        		.byte	63
 1488 00b0 3F        		.byte	63
 1489 00b1 3F        		.byte	63
 1490 00b2 40        		.byte	64
 1491 00b3 3F        		.byte	63
 1492 00b4 01        		.byte	1
 1493 00b5 24        		.byte	36
 1494 00b6 03        		.byte	3
 1495 00b7 3F        		.byte	63
 1496 00b8 5F        		.byte	95
 1497 00b9 3F        		.byte	63
 1498 00ba 3F        		.byte	63
 1499 00bb 3F        		.byte	63
 1500 00bc 3F        		.byte	63
 1501 00bd 3F        		.byte	63
 1502 00be 3F        		.byte	63
 1503 00bf 3F        		.byte	63
 1504 00c0 3F        		.byte	63
 1505 00c1 3F        		.byte	63
 1506 00c2 3F        		.byte	63
 1507 00c3 3F        		.byte	63
 1508 00c4 3F        		.byte	63
 1509 00c5 3F        		.byte	63
 1510 00c6 3F        		.byte	63
 1511 00c7 3F        		.byte	63
 1512 00c8 3F        		.byte	63
 1513 00c9 3F        		.byte	63
 1514 00ca 3F        		.byte	63
 1515 00cb 3F        		.byte	63
 1516 00cc 3F        		.byte	63
 1517 00cd 3F        		.byte	63
 1518 00ce 3F        		.byte	63
 1519 00cf 3F        		.byte	63
 1520 00d0 60        		.byte	96
 1521 00d1 3F        		.byte	63
 1522 00d2 3F        		.byte	63
 1523 00d3 3F        		.byte	63
 1524 00d4 3F        		.byte	63
 1525 00d5 5B        		.byte	91
 1526 00d6 0E        		.byte	14
 1527 00d7 1C        		.byte	28
 1528 00d8 09        		.byte	9
 1529 00d9 3F        		.byte	63
 1530 00da 1F        		.byte	31
 1531 00db 3F        		.byte	63
 1532 00dc 3F        		.byte	63
 1533 00dd 3F        		.byte	63
 1534 00de 3F        		.byte	63
 1535 00df 3F        		.byte	63
 1536 00e0 3F        		.byte	63
 1537 00e1 3F        		.byte	63
 1538 00e2 5D        		.byte	93
 1539 00e3 3F        		.byte	63
 1540 00e4 3F        		.byte	63
 1541 00e5 3F        		.byte	63
 1542 00e6 3F        		.byte	63
 1543 00e7 5C        		.byte	92
 1544 00e8 3F        		.byte	63
 1545 00e9 0B        		.byte	11
 1546 00ea 3F        		.byte	63
 1547 00eb 3F        		.byte	63
 1548 00ec 3F        		.byte	63
 1549 00ed 5E        		.byte	94
 1550 00ee 3F        		.byte	63
 1551 00ef 3F        		.byte	63
 1552 00f0 1E        		.byte	30
 1553 00f1 7F        		.byte	127
 1554 00f2 3F        		.byte	63
 1555 00f3 3F        		.byte	63
 1556 00f4 3F        		.byte	63
 1557 00f5 7B        		.byte	123
 1558 00f6 0F        		.byte	15
 1559 00f7 1D        		.byte	29
 1560 00f8 3F        		.byte	63
 1561 00f9 04        		.byte	4
 1562 00fa 05        		.byte	5
 1563 00fb 3F        		.byte	63
 1564 00fc 3F        		.byte	63
 1565 00fd 07        		.byte	7
 1566 00fe 3F        		.byte	63
 1567 00ff 3F        		.byte	63
 1568 0100 3F        		.byte	63
 1569 0101 3F        		.byte	63
 1570 0102 7D        		.byte	125
 1571 0103 08        		.byte	8
 1572 0104 3F        		.byte	63
 1573 0105 3F        		.byte	63
 1574 0106 3F        		.byte	63
 1575 0107 7C        		.byte	124
 1576 0108 3F        		.byte	63
 1577 0109 0C        		.byte	12
 1578 010a 06        		.byte	6
 1579 010b 3F        		.byte	63
 1580 010c 3F        		.byte	63
 1581 010d 7E        		.byte	126
 1582 010e 3F        		.byte	63
 1583 010f 3F        		.byte	63
 1584 0110 3F        		.byte	63
 1587               	GSM_Default_Alphabet:
 1588 0111 40        		.byte	64
 1589 0112 A3        		.byte	-93
 1590 0113 24        		.byte	36
 1591 0114 A5        		.byte	-91
 1592 0115 E8        		.byte	-24
 1593 0116 E9        		.byte	-23
 1594 0117 F9        		.byte	-7
 1595 0118 EC        		.byte	-20
 1596 0119 F2        		.byte	-14
 1597 011a C7        		.byte	-57
 1598 011b 0A        		.byte	10
 1599 011c D8        		.byte	-40
 1600 011d F8        		.byte	-8
 1601 011e 0D        		.byte	13
 1602 011f C5        		.byte	-59
 1603 0120 E5        		.byte	-27
 1604 0121 3F        		.byte	63
 1605 0122 5F        		.byte	95
 1606 0123 3F        		.byte	63
 1607 0124 3F        		.byte	63
 1608 0125 3F        		.byte	63
 1609 0126 3F        		.byte	63
 1610 0127 3F        		.byte	63
 1611 0128 3F        		.byte	63
 1612 0129 3F        		.byte	63
 1613 012a 3F        		.byte	63
 1614 012b 3F        		.byte	63
 1615 012c 3F        		.byte	63
 1616 012d C6        		.byte	-58
 1617 012e E6        		.byte	-26
 1618 012f DF        		.byte	-33
 1619 0130 C9        		.byte	-55
 1620 0131 20        		.byte	32
 1621 0132 21        		.byte	33
 1622 0133 22        		.byte	34
 1623 0134 23        		.byte	35
 1624 0135 A4        		.byte	-92
 1625 0136 25        		.byte	37
 1626 0137 26        		.byte	38
 1627 0138 27        		.byte	39
 1628 0139 28        		.byte	40
 1629 013a 29        		.byte	41
 1630 013b 2A        		.byte	42
 1631 013c 2B        		.byte	43
 1632 013d 2C        		.byte	44
 1633 013e 2D        		.byte	45
 1634 013f 2E        		.byte	46
 1635 0140 2F        		.byte	47
 1636 0141 30        		.byte	48
 1637 0142 31        		.byte	49
 1638 0143 32        		.byte	50
 1639 0144 33        		.byte	51
 1640 0145 34        		.byte	52
 1641 0146 35        		.byte	53
 1642 0147 36        		.byte	54
 1643 0148 37        		.byte	55
 1644 0149 38        		.byte	56
 1645 014a 39        		.byte	57
 1646 014b 3A        		.byte	58
 1647 014c 3B        		.byte	59
 1648 014d 3C        		.byte	60
 1649 014e 3D        		.byte	61
 1650 014f 3E        		.byte	62
 1651 0150 3F        		.byte	63
 1652 0151 A1        		.byte	-95
 1653 0152 41        		.byte	65
 1654 0153 42        		.byte	66
 1655 0154 43        		.byte	67
 1656 0155 44        		.byte	68
 1657 0156 45        		.byte	69
 1658 0157 46        		.byte	70
 1659 0158 47        		.byte	71
 1660 0159 48        		.byte	72
 1661 015a 49        		.byte	73
 1662 015b 4A        		.byte	74
 1663 015c 4B        		.byte	75
 1664 015d 4C        		.byte	76
 1665 015e 4D        		.byte	77
 1666 015f 4E        		.byte	78
 1667 0160 4F        		.byte	79
 1668 0161 50        		.byte	80
 1669 0162 51        		.byte	81
 1670 0163 52        		.byte	82
 1671 0164 53        		.byte	83
 1672 0165 54        		.byte	84
 1673 0166 55        		.byte	85
 1674 0167 56        		.byte	86
 1675 0168 57        		.byte	87
 1676 0169 58        		.byte	88
 1677 016a 59        		.byte	89
 1678 016b 5A        		.byte	90
 1679 016c C4        		.byte	-60
 1680 016d D6        		.byte	-42
 1681 016e D1        		.byte	-47
 1682 016f DC        		.byte	-36
 1683 0170 A7        		.byte	-89
 1684 0171 BF        		.byte	-65
 1685 0172 61        		.byte	97
 1686 0173 62        		.byte	98
 1687 0174 63        		.byte	99
 1688 0175 64        		.byte	100
 1689 0176 65        		.byte	101
 1690 0177 66        		.byte	102
 1691 0178 67        		.byte	103
 1692 0179 68        		.byte	104
 1693 017a 69        		.byte	105
 1694 017b 6A        		.byte	106
 1695 017c 6B        		.byte	107
 1696 017d 6C        		.byte	108
 1697 017e 6D        		.byte	109
 1698 017f 6E        		.byte	110
 1699 0180 6F        		.byte	111
 1700 0181 70        		.byte	112
 1701 0182 71        		.byte	113
 1702 0183 72        		.byte	114
 1703 0184 73        		.byte	115
 1704 0185 74        		.byte	116
 1705 0186 75        		.byte	117
 1706 0187 76        		.byte	118
 1707 0188 77        		.byte	119
 1708 0189 78        		.byte	120
 1709 018a 79        		.byte	121
 1710 018b 7A        		.byte	122
 1711 018c E4        		.byte	-28
 1712 018d F6        		.byte	-10
 1713 018e F1        		.byte	-15
 1714 018f FC        		.byte	-4
 1715 0190 E0        		.byte	-32
 1716               		.text
 1717               	.Letext0:
 1718               		.file 2 "narzedzia.h"
 1719               		.file 3 "/usr/local/avr8-gnu-toolchain/avr/include/stdint.h"